 FROSTYV2

 Timestamp is 5a1c2630 (Mon Nov 27 15:50:24 2017)

 Preferred load address is 10000000

 Start         Length     Name                   Class
 0001:00000000 000138a0H .text$di                CODE
 0001:000138a0 0007c6f0H .text$mn                CODE
 0001:0008ff90 00002270H .text$x                 CODE
 0001:00092200 000004acH .text$yd                CODE
 0002:00000000 000001c0H .idata$5                DATA
 0002:000001c0 00000004H .00cfg                  DATA
 0002:000001c4 00000004H .CRT$XCA                DATA
 0002:000001c8 0000000cH .CRT$XCC                DATA
 0002:000001d4 00000008H .CRT$XCL                DATA
 0002:000001dc 000000c0H .CRT$XCU                DATA
 0002:0000029c 00000004H .CRT$XCZ                DATA
 0002:000002a0 00000004H .CRT$XIA                DATA
 0002:000002a4 00000018H .CRT$XIC                DATA
 0002:000002bc 00000004H .CRT$XIZ                DATA
 0002:000002c0 00000004H .CRT$XLA                DATA
 0002:000002c4 00000004H .CRT$XLZ                DATA
 0002:000002c8 00000004H .CRT$XPA                DATA
 0002:000002cc 00000008H .CRT$XPX                DATA
 0002:000002d4 00000004H .CRT$XPXA               DATA
 0002:000002d8 00000004H .CRT$XPZ                DATA
 0002:000002dc 00000004H .CRT$XTA                DATA
 0002:000002e0 00000010H .CRT$XTZ                DATA
 0002:000002e4 00000000H .gfids$y                DATA
 0002:000002f0 0001ad20H .rdata                  DATA
 0002:0001b010 00000018H .rdata$T                DATA
 0002:0001b028 00000d08H .rdata$r                DATA
 0002:0001bd30 000001d4H .rdata$sxdata           DATA
 0002:0001bf04 000003e4H .rdata$zzzdbg           DATA
 0002:0001c2e8 00000004H .rtc$IAA                DATA
 0002:0001c2ec 00000004H .rtc$IZZ                DATA
 0002:0001c2f0 00000004H .rtc$TAA                DATA
 0002:0001c2f4 00000004H .rtc$TZZ                DATA
 0002:0001c2f8 00000004H .tls                    DATA
 0002:0001c2fc 00000004H .tls$                   DATA
 0002:0001c300 00000008H .tls$ZZZ                DATA
 0002:0001c308 00002ba4H .xdata$x                DATA
 0002:0001eeac 00000000H .edata                  DATA
 0002:0001eeac 00000064H .idata$2                DATA
 0002:0001ef10 00000014H .idata$3                DATA
 0002:0001ef24 000001c0H .idata$4                DATA
 0002:0001f0e4 000007e8H .idata$6                DATA
 0003:00000000 0008e030H .data                   DATA
 0003:0008e030 00000688H .data$r                 DATA
 0003:0008e6b8 0043ac38H .bss                    DATA
 0004:00000000 000007e0H _RDATA                  DATA
 0005:00000000 00000060H .rsrc$01                DATA
 0005:00000060 00000180H .rsrc$02                DATA

  Address         Publics by Value              Rva+Base       Lib:Object

 0000:00000000       ___guard_iat_count         00000000     <absolute>
 0000:00000000       ___enclave_config          00000000     <absolute>
 0000:00000000       ___hybrid_auxiliary_iat    00000000     <absolute>
 0000:00000000       ___guard_longjmp_count     00000000     <absolute>
 0000:00000000       ___guard_longjmp_table     00000000     <absolute>
 0000:00000000       __except_list              00000000     <absolute>
 0000:00000000       ___guard_fids_table        00000000     <absolute>
 0000:00000000       ___guard_fids_count        00000000     <absolute>
 0000:00000000       ___guard_iat_table         00000000     <absolute>
 0000:00000000       ___hybrid_code_map_count   00000000     <absolute>
 0000:00000000       ___hybrid_code_map         00000000     <absolute>
 0000:00000000       ___dynamic_value_reloc_table 00000000     <absolute>
 0000:0000002c       __tls_array                0000002c     <absolute>
 0000:00000075       ___safe_se_handler_count   00000075     <absolute>
 0000:00000100       ___guard_flags             00000100     <absolute>
 0000:00000000       ___ImageBase               10000000     <linker-defined>
 0001:000138a0       ?MyColorEdit3@ImGui@@YA_NPBDQAMH@Z 100148a0 f   imguicolorpicker.obj
 0001:00013930       ?MyColorEdit4@ImGui@@YA_NPBDQAMH@Z 10014930 f   imguicolorpicker.obj
 0001:00014130       ?MyColorPicker4@ImGui@@YA_NPBDQAMH@Z 10015130 f   imguicolorpicker.obj
 0001:00014a60       ___local_stdio_scanf_options 10015a60 f i imguicolorpicker.obj
 0001:00014a70       _sscanf_s                  10015a70 f i imguicolorpicker.obj
 0001:00014aa0       ??$?0V?$_Vector_iterator@V?$_Vector_val@U?$_Simple_types@_S@std@@@std@@@std@@X@?$basic_string@DU?$char_traits@D@std@@V?$allocator@D@2@@std@@QAE@V?$_Vector_iterator@V?$_Vector_val@U?$_Simple_types@_S@std@@@std@@@1@0ABV?$allocator@D@1@@Z 10015aa0 f i Parser.obj
 0001:00014bf0       ??$_Construct@PA_S@?$basic_string@DU?$char_traits@D@std@@V?$allocator@D@2@@std@@QAEXPA_SQA_SUinput_iterator_tag@1@@Z 10015bf0 f i Parser.obj
 0001:00014d80       ??$_Destroy_range@V?$allocator@V?$shared_ptr@VNode@valve_parser@@@std@@@std@@@std@@YAXPAV?$shared_ptr@VNode@valve_parser@@@0@0AAV?$allocator@V?$shared_ptr@VNode@valve_parser@@@std@@@0@@Z 10015d80 f i Parser.obj
 0001:00014dd0       ??$_Uninitialized_move_al_unchecked@PAV?$shared_ptr@VNode@valve_parser@@@std@@PAV12@V?$allocator@V?$shared_ptr@VNode@valve_parser@@@std@@@2@@std@@YAPAV?$shared_ptr@VNode@valve_parser@@@0@PAV10@00AAV?$allocator@V?$shared_ptr@VNode@valve_parser@@@std@@@0@U_General_ptr_iterator_tag@0@U_Unused_parameter@0@@Z 10015dd0 f i Parser.obj
 0001:00014e10       ??$destroy@V?$shared_ptr@VNode@valve_parser@@@std@@@?$_Default_allocator_traits@V?$allocator@V?$shared_ptr@VNode@valve_parser@@@std@@@std@@@std@@SAXAAV?$allocator@V?$shared_ptr@VNode@valve_parser@@@std@@@1@QAV?$shared_ptr@VNode@valve_parser@@@1@@Z 10015e10 f i Parser.obj
 0001:00014e50       ??$emplace_back@ABV?$shared_ptr@VNode@valve_parser@@@std@@@?$vector@V?$shared_ptr@VNode@valve_parser@@@std@@V?$allocator@V?$shared_ptr@VNode@valve_parser@@@std@@@2@@std@@QAEXABV?$shared_ptr@VNode@valve_parser@@@1@@Z 10015e50 f i Parser.obj
 0001:00014fd0       ??$emplace_back@AB_S@?$vector@_SV?$allocator@_S@std@@@std@@QAEXAB_S@Z 10015fd0 f i Parser.obj
 0001:00015080       ??0?$shared_ptr@VNode@valve_parser@@@std@@QAE@ABV01@@Z 10016080 f i Parser.obj
 0001:000150f0       ??1?$shared_ptr@VNode@valve_parser@@@std@@QAE@XZ 100160f0 f i Parser.obj
 0001:000150f0       ??1?$shared_ptr@VKeyValue@valve_parser@@@std@@QAE@XZ 100160f0 f i Parser.obj
 0001:000150f0       ??1?$shared_ptr@VObject@valve_parser@@@std@@QAE@XZ 100160f0 f i Parser.obj
 0001:00015120       ??1?$vector@V?$shared_ptr@VNode@valve_parser@@@std@@V?$allocator@V?$shared_ptr@VNode@valve_parser@@@std@@@2@@std@@QAE@XZ 10016120 f i Parser.obj
 0001:00015190       ??1?$vector@_SV?$allocator@_S@std@@@std@@QAE@XZ 10016190 f i Parser.obj
 0001:000151f0       ??_G?$_Ref_count_obj@VKeyValue@valve_parser@@@std@@UAEPAXI@Z 100161f0 f i Parser.obj
 0001:000151f0       ??_E?$_Ref_count_obj@VKeyValue@valve_parser@@@std@@UAEPAXI@Z 100161f0 f i Parser.obj
 0001:00015220       ??_E?$_Ref_count_obj@VObject@valve_parser@@@std@@UAEPAXI@Z 10016220 f i Parser.obj
 0001:00015220       ??_G?$_Ref_count_obj@VObject@valve_parser@@@std@@UAEPAXI@Z 10016220 f i Parser.obj
 0001:00015250       ??_E_Ref_count_base@std@@UAEPAXI@Z 10016250 f i Parser.obj
 0001:00015250       ??_G_Ref_count_base@std@@UAEPAXI@Z 10016250 f i Parser.obj
 0001:00015280       ?EndReached@Str@valve_parser@@SAPA_UPA_U_U@Z 10016280 f i Parser.obj
 0001:00015300       ?GetKeyByName@Object@valve_parser@@QAE?AV?$shared_ptr@VNode@valve_parser@@@std@@PAD@Z 10016300 f   Parser.obj
 0001:00015540       ?Parse@Node@valve_parser@@UAE_NXZ 10016540 f   Parser.obj
 0001:00015670       ?Parse@Object@valve_parser@@UAE_NXZ 10016670 f   Parser.obj
 0001:00015800       ?ParseTextEndTag@Str@valve_parser@@SAPA_UPA_U_U@Z 10016800 f i Parser.obj
 0001:00015830       ?ParseTextExpectedTag@Str@valve_parser@@SAPA_UPA_U_U_N@Z 10016830 f i Parser.obj
 0001:000158b0       ?_Become_small@?$basic_string@DU?$char_traits@D@std@@V?$allocator@D@2@@std@@QAEXXZ 100168b0 f i Parser.obj
 0001:00015910       ?_Change_array@?$vector@_SV?$allocator@_S@std@@@std@@AAEXQA_SII@Z 10016910 f i Parser.obj
 0001:00015980       ?_Delete_this@?$_Ref_count_obj@VObject@valve_parser@@@std@@EAEXXZ 10016980 f i Parser.obj
 0001:00015980       ?_Delete_this@?$_Ref_count_obj@VKeyValue@valve_parser@@@std@@EAEXXZ 10016980 f i Parser.obj
 0001:00015980       ?_Delete_this@?$_Ref_count_obj@VNode@valve_parser@@@std@@EAEXXZ 10016980 f i Hooks.obj
 0001:00015990       ?_Destroy@?$_Ref_count_obj@VObject@valve_parser@@@std@@EAEXXZ 10016990 f i Parser.obj
 0001:00015990       ?_Destroy@?$_Ref_count_obj@VKeyValue@valve_parser@@@std@@EAEXXZ 10016990 f i Parser.obj
 0001:00015990       ?_Destroy@?$_Ref_count_obj@VNode@valve_parser@@@std@@EAEXXZ 10016990 f i Hooks.obj
 0001:000159a0       ?_Get_deleter@_Ref_count_base@std@@UBEPAXABVtype_info@@@Z 100169a0 f i Parser.obj
 0001:000159b0       ?_Reallocate_exactly@?$vector@_SV?$allocator@_S@std@@@std@@AAEXI@Z 100169b0 f i Parser.obj
 0001:00015a00       ?_Xlen@?$basic_string@DU?$char_traits@D@std@@V?$allocator@D@2@@std@@SAXXZ 10016a00 f i Parser.obj
 0001:00015a10       ?allocate@?$allocator@D@std@@QAEPADI@Z 10016a10 f i Parser.obj
 0001:00015a70       ?allocate@?$allocator@V?$shared_ptr@VNode@valve_parser@@@std@@@std@@QAEPAV?$shared_ptr@VNode@valve_parser@@@2@I@Z 10016a70 f i Parser.obj
 0001:00015ae0       ?allocate@?$allocator@_S@std@@QAEPA_SI@Z 10016ae0 f i Parser.obj
 0001:00015b50       ?assign@?$basic_string@DU?$char_traits@D@std@@V?$allocator@D@2@@std@@QAEAAV12@QBDI@Z 10016b50 f i Parser.obj
 0001:00015c40       ?deallocate@?$allocator@V?$shared_ptr@VNode@valve_parser@@@std@@@std@@QAEXQAV?$shared_ptr@VNode@valve_parser@@@2@I@Z 10016c40 f i Parser.obj
 0001:00015c90       ?identify@Document@valve_parser@@AAE_NAAV?$shared_ptr@VNode@valve_parser@@@std@@@Z 10016c90 f i Parser.obj
 0001:00015ee0       ?toString@Str@valve_parser@@QAE?AV?$basic_string@DU?$char_traits@D@std@@V?$allocator@D@2@@std@@XZ 10016ee0 f i Parser.obj
 0001:00016070       ??$?8DU?$char_traits@D@std@@V?$allocator@D@1@@std@@YA_NABV?$basic_string@DU?$char_traits@D@std@@V?$allocator@D@2@@0@QBD@Z 10017070 f i recvproxy.obj
 0001:000160c0       ??$_Buynode@ABU?$pair@$$CBW4ItemDefinitionIndexx@@UDefItem_t@@@std@@@?$_Tree_comp_alloc@V?$_Tmap_traits@W4ItemDefinitionIndexx@@UDefItem_t@@U?$less@W4ItemDefinitionIndexx@@@std@@V?$allocator@U?$pair@$$CBW4ItemDefinitionIndexx@@UDefItem_t@@@std@@@4@$0A@@std@@@std@@QAEPAU?$_Tree_node@U?$pair@$$CBW4ItemDefinitionIndexx@@UDefItem_t@@@std@@PAX@1@ABU?$pair@$$CBW4ItemDefinitionIndexx@@UDefItem_t@@@1@@Z 100170c0 f i recvproxy.obj
 0001:000160f0       ??$_Insert_at@AAU?$pair@$$CBW4ItemDefinitionIndexx@@UDefItem_t@@@std@@PAU?$_Tree_node@U?$pair@$$CBW4ItemDefinitionIndexx@@UDefItem_t@@@std@@PAX@2@@?$_Tree@V?$_Tmap_traits@W4ItemDefinitionIndexx@@UDefItem_t@@U?$less@W4ItemDefinitionIndexx@@@std@@V?$allocator@U?$pair@$$CBW4ItemDefinitionIndexx@@UDefItem_t@@@std@@@4@$0A@@std@@@std@@IAE?AV?$_Tree_iterator@V?$_Tree_val@U?$_Tree_simple_types@U?$pair@$$CBW4ItemDefinitionIndexx@@UDefItem_t@@@std@@@std@@@std@@@1@_NPAU?$_Tree_node@U?$pair@$$CBW4ItemDefinitionIndexx@@UDefItem_t@@@std@@PAX@1@AAU?$pair@$$CBW4ItemDefinitionIndexx@@UDefItem_t@@@1@1@Z 100170f0 f i recvproxy.obj
 0001:00016250       ??$_Insert_hint@AAU?$pair@$$CBW4ItemDefinitionIndexx@@UDefItem_t@@@std@@PAU?$_Tree_node@U?$pair@$$CBW4ItemDefinitionIndexx@@UDefItem_t@@@std@@PAX@2@@?$_Tree@V?$_Tmap_traits@W4ItemDefinitionIndexx@@UDefItem_t@@U?$less@W4ItemDefinitionIndexx@@@std@@V?$allocator@U?$pair@$$CBW4ItemDefinitionIndexx@@UDefItem_t@@@std@@@4@$0A@@std@@@std@@IAE?AV?$_Tree_iterator@V?$_Tree_val@U?$_Tree_simple_types@U?$pair@$$CBW4ItemDefinitionIndexx@@UDefItem_t@@@std@@@std@@@std@@@1@V?$_Tree_const_iterator@V?$_Tree_val@U?$_Tree_simple_types@U?$pair@$$CBW4ItemDefinitionIndexx@@UDefItem_t@@@std@@@std@@@std@@@1@AAU?$pair@$$CBW4ItemDefinitionIndexx@@UDefItem_t@@@1@PAU?$_Tree_node@U?$pair@$$CBW4ItemDefinitionIndexx@@UDefItem_t@@@std@@PAX@1@@Z 10017250 f i recvproxy.obj
 0001:00016480       ??$_Insert_nohint@AAU?$pair@$$CBW4ItemDefinitionIndexx@@UDefItem_t@@@std@@PAU?$_Tree_node@U?$pair@$$CBW4ItemDefinitionIndexx@@UDefItem_t@@@std@@PAX@2@@?$_Tree@V?$_Tmap_traits@W4ItemDefinitionIndexx@@UDefItem_t@@U?$less@W4ItemDefinitionIndexx@@@std@@V?$allocator@U?$pair@$$CBW4ItemDefinitionIndexx@@UDefItem_t@@@std@@@4@$0A@@std@@@std@@IAE?AU?$pair@V?$_Tree_iterator@V?$_Tree_val@U?$_Tree_simple_types@U?$pair@$$CBW4ItemDefinitionIndexx@@UDefItem_t@@@std@@@std@@@std@@@std@@_N@1@_NAAU?$pair@$$CBW4ItemDefinitionIndexx@@UDefItem_t@@@1@PAU?$_Tree_node@U?$pair@$$CBW4ItemDefinitionIndexx@@UDefItem_t@@@std@@PAX@1@@Z 10017480 f i recvproxy.obj
 0001:000165a0       ??1?$_Tree@V?$_Tmap_traits@W4ItemDefinitionIndexx@@UDefItem_t@@U?$less@W4ItemDefinitionIndexx@@@std@@V?$allocator@U?$pair@$$CBW4ItemDefinitionIndexx@@UDefItem_t@@@std@@@4@$0A@@std@@@std@@QAE@XZ 100175a0 f i recvproxy.obj
 0001:00016640       ??E?$_Tree_const_iterator@V?$_Tree_val@U?$_Tree_simple_types@U?$pair@$$CBW4ItemDefinitionIndexx@@UDefItem_t@@@std@@@std@@@std@@@std@@QAEAAV01@XZ 10017640 f i recvproxy.obj
 0001:00016640       ??E?$_Tree_unchecked_const_iterator@V?$_Tree_val@U?$_Tree_simple_types@U?$pair@$$CBW4ItemDefinitionIndexx@@UDefItem_t@@@std@@@std@@@std@@U_Iterator_base0@2@@std@@QAEAAV01@XZ 10017640 f i Hooks.obj
 0001:00016640       ??E?$_Tree_unchecked_const_iterator@V?$_Tree_val@U?$_Tree_simple_types@V?$basic_string@DU?$char_traits@D@std@@V?$allocator@D@2@@std@@@std@@@std@@U_Iterator_base0@2@@std@@QAEAAV01@XZ 10017640 f i Hooks.obj
 0001:00016690       ??F?$_Tree_const_iterator@V?$_Tree_val@U?$_Tree_simple_types@U?$pair@$$CBW4ItemDefinitionIndexx@@UDefItem_t@@@std@@@std@@@std@@@std@@QAEAAV01@XZ 10017690 f i recvproxy.obj
 0001:000166f0       ?Hooked_RecvProxy_Viewmodel@@YAXPAVCRecvProxyData@@PAX1@Z 100176f0 f   recvproxy.obj
 0001:00016930       ?NetvarHook@@YAXXZ         10017930 f   recvproxy.obj
 0001:00016b50       ?NoSmoke@@YAXPBVCRecvProxyData@@PAX1@Z 10017b50 f   recvproxy.obj
 0001:00016b70       ?SetViewModelSequence2@@YAXPBVCRecvProxyData@@PAX1@Z 10017b70 f   recvproxy.obj
 0001:00016ef0       ?UnloadProxy@@YAXXZ        10017ef0 f   recvproxy.obj
 0001:00017100       ?_Buyheadnode@?$_Tree_comp_alloc@V?$_Tmap_traits@W4ItemDefinitionIndexx@@UDefItem_t@@U?$less@W4ItemDefinitionIndexx@@@std@@V?$allocator@U?$pair@$$CBW4ItemDefinitionIndexx@@UDefItem_t@@@std@@@4@$0A@@std@@@std@@QAEPAU?$_Tree_node@U?$pair@$$CBW4ItemDefinitionIndexx@@UDefItem_t@@@std@@PAX@2@XZ 10018100 f i recvproxy.obj
 0001:00017130       ?_Buynode0@?$_Tree_comp_alloc@V?$_Tmap_traits@W4ItemDefinitionIndexx@@UDefItem_t@@U?$less@W4ItemDefinitionIndexx@@@std@@V?$allocator@U?$pair@$$CBW4ItemDefinitionIndexx@@UDefItem_t@@@std@@@4@$0A@@std@@@std@@QAEPAU?$_Tree_node@U?$pair@$$CBW4ItemDefinitionIndexx@@UDefItem_t@@@std@@PAX@2@XZ 10018130 f i recvproxy.obj
 0001:00017160       ?_Destroy_if_not_nil@?$_Tree@V?$_Tmap_traits@W4ItemDefinitionIndexx@@UDefItem_t@@U?$less@W4ItemDefinitionIndexx@@@std@@V?$allocator@U?$pair@$$CBW4ItemDefinitionIndexx@@UDefItem_t@@@std@@@4@$0A@@std@@@std@@IAEXPAU?$_Tree_node@U?$pair@$$CBW4ItemDefinitionIndexx@@UDefItem_t@@@std@@PAX@2@@Z 10018160 f i recvproxy.obj
 0001:00017180       ?_Erase@?$_Tree@V?$_Tmap_traits@W4ItemDefinitionIndexx@@UDefItem_t@@U?$less@W4ItemDefinitionIndexx@@@std@@V?$allocator@U?$pair@$$CBW4ItemDefinitionIndexx@@UDefItem_t@@@std@@@4@$0A@@std@@@std@@IAEXPAU?$_Tree_node@U?$pair@$$CBW4ItemDefinitionIndexx@@UDefItem_t@@@std@@PAX@2@@Z 10018180 f i recvproxy.obj
 0001:000171c0       ?_Rrotate@?$_Tree@V?$_Tmap_traits@W4ItemDefinitionIndexx@@UDefItem_t@@U?$less@W4ItemDefinitionIndexx@@@std@@V?$allocator@U?$pair@$$CBW4ItemDefinitionIndexx@@UDefItem_t@@@std@@@4@$0A@@std@@@std@@IAEXPAU?$_Tree_node@U?$pair@$$CBW4ItemDefinitionIndexx@@UDefItem_t@@@std@@PAX@2@@Z 100181c0 f i recvproxy.obj
 0001:000171c0       ?_Rrotate@?$_Tree@V?$_Tset_traits@V?$basic_string@DU?$char_traits@D@std@@V?$allocator@D@2@@std@@U?$less@V?$basic_string@DU?$char_traits@D@std@@V?$allocator@D@2@@std@@@2@V?$allocator@V?$basic_string@DU?$char_traits@D@std@@V?$allocator@D@2@@std@@@2@$0A@@std@@@std@@IAEXPAU?$_Tree_node@V?$basic_string@DU?$char_traits@D@std@@V?$allocator@D@2@@std@@PAX@2@@Z 100181c0 f i Hooks.obj
 0001:00017220       ?compare@?$char_traits@D@std@@SAHQBD0I@Z 10018220 f i recvproxy.obj
 0001:00017290       ?CanHit@@YA_NPAVC_BaseEntity@@ABVVector@@PAM@Z 10018290 f   Autowall.obj
 0001:000174d0       ?CanWallbang@@YA_NAAH@Z    100184d0 f   Autowall.obj
 0001:00017860       ?sync@?$basic_streambuf@DU?$char_traits@D@std@@@std@@MAEHXZ 10018860 f i Utilities.obj
 0001:00017860       ?ToObject@Node@valve_parser@@UAEPAVObject@2@XZ 10018860 f i Parser.obj
 0001:00017860       ?GetTraceType@CTraceFilterWorldAndPropsOnly@@UBE?AW4TraceType_t@@XZ 10018860 f i GrenadePrediction.obj
 0001:00017860       ?GetTraceType@CTraceFilter@@UBE?AW4TraceType_t@@XZ 10018860 f i Autowall.obj
 0001:00017860       ?ToKeyValue@Node@valve_parser@@UAEPAVKeyValue@2@XZ 10018860 f i Parser.obj
 0001:00017870       ?HandleBulletPenetration@@YA_NPAVCSWeaponInfo@@AAUFireBulletData@@@Z 10018870 f   Autowall.obj
 0001:00017b90       ?ShouldHitEntity@CTraceFilter@@UAE_NPAVC_BaseEntity@@H@Z 10018b90 f i Autowall.obj
 0001:00017ba0       ?SimulateFireBullet@@YA_NPAVC_BaseEntity@@0PAVCBaseCombatWeapon@@AAUFireBulletData@@@Z 10018ba0 f   Autowall.obj
 0001:00017f30       ?CreateMaterial@@YAPAVIMaterial@@_N00@Z 10018f30 f   Chams.obj
 0001:00018100       ?ForceMaterial@@YAXVColor@@PAVIMaterial@@_N2@Z 10019100 f   Chams.obj
 0001:000181d0       ___local_stdio_printf_options 100191d0 f i Chams.obj
 0001:000181e0       _sprintf_s                 100191e0 f i Chams.obj
 0001:00018210       ??$?HDU?$char_traits@D@std@@V?$allocator@D@1@@std@@YA?AV?$basic_string@DU?$char_traits@D@std@@V?$allocator@D@2@@0@$$QAV10@0@Z 10019210 f i Configuration.obj
 0001:00018290       ??$?HDU?$char_traits@D@std@@V?$allocator@D@1@@std@@YA?AV?$basic_string@DU?$char_traits@D@std@@V?$allocator@D@2@@0@$$QAV10@QBD@Z 10019290 f i Configuration.obj
 0001:000182f0       ??$_Fill_unchecked@PAV?$_List_unchecked_iterator@V?$_List_val@U?$_List_simple_types@U?$pair@$$CBV?$basic_string@DU?$char_traits@D@std@@V?$allocator@D@2@@std@@UskinInfo@@@std@@@std@@@std@@@std@@V12@@std@@YAXPAV?$_List_unchecked_iterator@V?$_List_val@U?$_List_simple_types@U?$pair@$$CBV?$basic_string@DU?$char_traits@D@std@@V?$allocator@D@2@@std@@UskinInfo@@@std@@@std@@@std@@@0@0ABV10@@Z 100192f0 f i Configuration.obj
 0001:000182f0       ??$_Fill_unchecked@PAV?$_List_unchecked_iterator@V?$_List_val@U?$_List_simple_types@U?$pair@$$CBV?$basic_string@DU?$char_traits@D@std@@V?$allocator@D@2@@std@@V12@@std@@@std@@@std@@@std@@V12@@std@@YAXPAV?$_List_unchecked_iterator@V?$_List_val@U?$_List_simple_types@U?$pair@$$CBV?$basic_string@DU?$char_traits@D@std@@V?$allocator@D@2@@std@@V12@@std@@@std@@@std@@@0@0ABV10@@Z 100192f0 f i Configuration.obj
 0001:000182f0       ??$_Fill_unchecked@PAV?$_List_unchecked_iterator@V?$_List_val@U?$_List_simple_types@U?$pair@$$CBV?$basic_string@DU?$char_traits@D@std@@V?$allocator@D@2@@std@@V?$set@V?$basic_string@DU?$char_traits@D@std@@V?$allocator@D@2@@std@@U?$less@V?$basic_string@DU?$char_traits@D@std@@V?$allocator@D@2@@std@@@2@V?$allocator@V?$basic_string@DU?$char_traits@D@std@@V?$allocator@D@2@@std@@@2@@2@@std@@@std@@@std@@@std@@V12@@std@@YAXPAV?$_List_unchecked_iterator@V?$_List_val@U?$_List_simple_types@U?$pair@$$CBV?$basic_string@DU?$char_traits@D@std@@V?$allocator@D@2@@std@@V?$set@V?$basic_string@DU?$char_traits@D@std@@V?$allocator@D@2@@std@@U?$less@V?$basic_string@DU?$char_traits@D@std@@V?$allocator@D@2@@std@@@2@V?$allocator@V?$basic_string@DU?$char_traits@D@std@@V?$allocator@D@2@@std@@@2@@2@@std@@@std@@@std@@@0@0ABV10@@Z 100192f0 f i Configuration.obj
 0001:000182f0       ??$_Fill_unchecked@PAV?$_List_unchecked_iterator@V?$_List_val@U?$_List_simple_types@U?$pair@QADPAD@std@@@std@@@std@@@std@@V12@@std@@YAXPAV?$_List_unchecked_iterator@V?$_List_val@U?$_List_simple_types@U?$pair@QADPAD@std@@@std@@@std@@@0@0ABV10@@Z 100192f0 f i Hooks.obj
 0001:00018370       ??$_UIntegral_to_buff@DI@std@@YAPADPADI@Z 10019370 f i Configuration.obj
 0001:000183b0       ??$emplace_back@ABQAURecvTable@@@?$vector@PAURecvTable@@V?$allocator@PAURecvTable@@@std@@@std@@QAEXABQAURecvTable@@@Z 100193b0 f i NetVarManager.obj
 0001:000183b0       ??$emplace_back@PAV?$ConfigValue@H@@@?$vector@PAV?$ConfigValue@H@@V?$allocator@PAV?$ConfigValue@H@@@std@@@std@@QAEX$$QAPAV?$ConfigValue@H@@@Z 100193b0 f i Configuration.obj
 0001:000183b0       ??$emplace_back@PAV?$ConfigValue@M@@@?$vector@PAV?$ConfigValue@M@@V?$allocator@PAV?$ConfigValue@M@@@std@@@std@@QAEX$$QAPAV?$ConfigValue@M@@@Z 100193b0 f i Configuration.obj
 0001:000183b0       ??$emplace_back@PAV?$ConfigValue@_N@@@?$vector@PAV?$ConfigValue@_N@@V?$allocator@PAV?$ConfigValue@_N@@@std@@@std@@QAEX$$QAPAV?$ConfigValue@_N@@@Z 100193b0 f i Configuration.obj
 0001:00018510       ??0<unnamed-type-Skinchanger>@Variables@@QAE@XZ 10019510 f i Configuration.obj
 0001:000186f0       ??0?$basic_string@DU?$char_traits@D@std@@V?$allocator@D@2@@std@@QAE@ABV01@@Z 100196f0 f i Configuration.obj
 0001:00018780       ??0?$basic_string@DU?$char_traits@D@std@@V?$allocator@D@2@@std@@QAE@ID@Z 10019780 f i Configuration.obj
 0001:00018880       ??0?$basic_string@DU?$char_traits@D@std@@V?$allocator@D@2@@std@@QAE@QBD@Z 10019880 f i Configuration.obj
 0001:000188c0       ??1?$list@U?$pair@$$CBV?$basic_string@DU?$char_traits@D@std@@V?$allocator@D@2@@std@@UskinInfo@@@std@@V?$allocator@U?$pair@$$CBV?$basic_string@DU?$char_traits@D@std@@V?$allocator@D@2@@std@@UskinInfo@@@std@@@2@@std@@QAE@XZ 100198c0 f i Configuration.obj
 0001:000189b0       ??1?$list@U?$pair@$$CBV?$basic_string@DU?$char_traits@D@std@@V?$allocator@D@2@@std@@V12@@std@@V?$allocator@U?$pair@$$CBV?$basic_string@DU?$char_traits@D@std@@V?$allocator@D@2@@std@@V12@@std@@@2@@std@@QAE@XZ 100199b0 f i Configuration.obj
 0001:00018aa0       ??1?$list@U?$pair@$$CBV?$basic_string@DU?$char_traits@D@std@@V?$allocator@D@2@@std@@V?$set@V?$basic_string@DU?$char_traits@D@std@@V?$allocator@D@2@@std@@U?$less@V?$basic_string@DU?$char_traits@D@std@@V?$allocator@D@2@@std@@@2@V?$allocator@V?$basic_string@DU?$char_traits@D@std@@V?$allocator@D@2@@std@@@2@@2@@std@@V?$allocator@U?$pair@$$CBV?$basic_string@DU?$char_traits@D@std@@V?$allocator@D@2@@std@@V?$set@V?$basic_string@DU?$char_traits@D@std@@V?$allocator@D@2@@std@@U?$less@V?$basic_string@DU?$char_traits@D@std@@V?$allocator@D@2@@std@@@2@V?$allocator@V?$basic_string@DU?$char_traits@D@std@@V?$allocator@D@2@@std@@@2@@2@@std@@@2@@std@@QAE@XZ 10019aa0 f i Configuration.obj
 0001:00018bc0       ??1?$unordered_map@V?$basic_string@DU?$char_traits@D@std@@V?$allocator@D@2@@std@@UskinInfo@@U?$hash@V?$basic_string@DU?$char_traits@D@std@@V?$allocator@D@2@@std@@@2@U?$equal_to@V?$basic_string@DU?$char_traits@D@std@@V?$allocator@D@2@@std@@@2@V?$allocator@U?$pair@$$CBV?$basic_string@DU?$char_traits@D@std@@V?$allocator@D@2@@std@@UskinInfo@@@std@@@2@@std@@QAE@XZ 10019bc0 f i Configuration.obj
 0001:00018be0       ??1?$unordered_map@V?$basic_string@DU?$char_traits@D@std@@V?$allocator@D@2@@std@@V?$set@V?$basic_string@DU?$char_traits@D@std@@V?$allocator@D@2@@std@@U?$less@V?$basic_string@DU?$char_traits@D@std@@V?$allocator@D@2@@std@@@2@V?$allocator@V?$basic_string@DU?$char_traits@D@std@@V?$allocator@D@2@@std@@@2@@2@U?$hash@V?$basic_string@DU?$char_traits@D@std@@V?$allocator@D@2@@std@@@2@U?$equal_to@V?$basic_string@DU?$char_traits@D@std@@V?$allocator@D@2@@std@@@2@V?$allocator@U?$pair@$$CBV?$basic_string@DU?$char_traits@D@std@@V?$allocator@D@2@@std@@V?$set@V?$basic_string@DU?$char_traits@D@std@@V?$allocator@D@2@@std@@U?$less@V?$basic_string@DU?$char_traits@D@std@@V?$allocator@D@2@@std@@@2@V?$allocator@V?$basic_string@DU?$char_traits@D@std@@V?$allocator@D@2@@std@@@2@@2@@std@@@2@@std@@QAE@XZ 10019be0 f i Configuration.obj
 0001:00018c00       ??1?$vector@V?$basic_string@DU?$char_traits@D@std@@V?$allocator@D@2@@std@@V?$allocator@V?$basic_string@DU?$char_traits@D@std@@V?$allocator@D@2@@std@@@2@@std@@QAE@XZ 10019c00 f i Configuration.obj
 0001:00018ce0       ??4?$basic_string@DU?$char_traits@D@std@@V?$allocator@D@2@@std@@QAEAAV01@$$QAV01@@Z 10019ce0 f i Configuration.obj
 0001:00018d20       ?Load@CConfig@@QAEXXZ      10019d20 f   Configuration.obj
 0001:00019490       ?Save@CConfig@@QAEXXZ      1001a490 f   Configuration.obj
 0001:00019d20       ?Setup@CConfig@@QAEXXZ     1001ad20 f   Configuration.obj
 0001:0001c750       ?SetupValue@CConfig@@AAEXAAHHV?$basic_string@DU?$char_traits@D@std@@V?$allocator@D@2@@std@@1@Z 1001d750 f   Configuration.obj
 0001:0001c980       ?SetupValue@CConfig@@AAEXAAMMV?$basic_string@DU?$char_traits@D@std@@V?$allocator@D@2@@std@@1@Z 1001d980 f   Configuration.obj
 0001:0001cbb0       ?SetupValue@CConfig@@AAEXAA_N_NV?$basic_string@DU?$char_traits@D@std@@V?$allocator@D@2@@std@@2@Z 1001dbb0 f   Configuration.obj
 0001:0001cde0       ?_Buynode0@?$_List_alloc@U?$_List_base_types@U?$pair@$$CBV?$basic_string@DU?$char_traits@D@std@@V?$allocator@D@2@@std@@UskinInfo@@@std@@V?$allocator@U?$pair@$$CBV?$basic_string@DU?$char_traits@D@std@@V?$allocator@D@2@@std@@UskinInfo@@@std@@@2@@std@@@std@@QAEPAU?$_List_node@U?$pair@$$CBV?$basic_string@DU?$char_traits@D@std@@V?$allocator@D@2@@std@@UskinInfo@@@std@@PAX@2@PAU32@0@Z 1001dde0 f i Configuration.obj
 0001:0001ce20       ?_Buynode0@?$_List_alloc@U?$_List_base_types@U?$pair@$$CBV?$basic_string@DU?$char_traits@D@std@@V?$allocator@D@2@@std@@V12@@std@@V?$allocator@U?$pair@$$CBV?$basic_string@DU?$char_traits@D@std@@V?$allocator@D@2@@std@@V12@@std@@@2@@std@@@std@@QAEPAU?$_List_node@U?$pair@$$CBV?$basic_string@DU?$char_traits@D@std@@V?$allocator@D@2@@std@@V12@@std@@PAX@2@PAU32@0@Z 1001de20 f i Configuration.obj
 0001:0001ce60       ?_Buynode0@?$_List_alloc@U?$_List_base_types@U?$pair@$$CBV?$basic_string@DU?$char_traits@D@std@@V?$allocator@D@2@@std@@V?$set@V?$basic_string@DU?$char_traits@D@std@@V?$allocator@D@2@@std@@U?$less@V?$basic_string@DU?$char_traits@D@std@@V?$allocator@D@2@@std@@@2@V?$allocator@V?$basic_string@DU?$char_traits@D@std@@V?$allocator@D@2@@std@@@2@@2@@std@@V?$allocator@U?$pair@$$CBV?$basic_string@DU?$char_traits@D@std@@V?$allocator@D@2@@std@@V?$set@V?$basic_string@DU?$char_traits@D@std@@V?$allocator@D@2@@std@@U?$less@V?$basic_string@DU?$char_traits@D@std@@V?$allocator@D@2@@std@@@2@V?$allocator@V?$basic_string@DU?$char_traits@D@std@@V?$allocator@D@2@@std@@@2@@2@@std@@@2@@std@@@std@@QAEPAU?$_List_node@U?$pair@$$CBV?$basic_string@DU?$char_traits@D@std@@V?$allocator@D@2@@std@@V?$set@V?$basic_string@DU?$char_traits@D@std@@V?$allocator@D@2@@std@@U?$less@V?$basic_string@DU?$char_traits@D@std@@V?$allocator@D@2@@std@@@2@V?$allocator@V?$basic_string@DU?$char_traits@D@std@@V?$allocator@D@2@@std@@@2@@2@@std@@PAX@2@PAU32@0@Z 1001de60 f i Configuration.obj
 0001:0001cea0       ?_Erase@?$_Tree@V?$_Tset_traits@V?$basic_string@DU?$char_traits@D@std@@V?$allocator@D@2@@std@@U?$less@V?$basic_string@DU?$char_traits@D@std@@V?$allocator@D@2@@std@@@2@V?$allocator@V?$basic_string@DU?$char_traits@D@std@@V?$allocator@D@2@@std@@@2@$0A@@std@@@std@@IAEXPAU?$_Tree_node@V?$basic_string@DU?$char_traits@D@std@@V?$allocator@D@2@@std@@PAX@2@@Z 1001dea0 f i Configuration.obj
 0001:0001cf30       ?_Init@?$_Hash@V?$_Umap_traits@V?$basic_string@DU?$char_traits@D@std@@V?$allocator@D@2@@std@@V?$set@V?$basic_string@DU?$char_traits@D@std@@V?$allocator@D@2@@std@@U?$less@V?$basic_string@DU?$char_traits@D@std@@V?$allocator@D@2@@std@@@2@V?$allocator@V?$basic_string@DU?$char_traits@D@std@@V?$allocator@D@2@@std@@@2@@2@V?$_Uhash_compare@V?$basic_string@DU?$char_traits@D@std@@V?$allocator@D@2@@std@@U?$hash@V?$basic_string@DU?$char_traits@D@std@@V?$allocator@D@2@@std@@@2@U?$equal_to@V?$basic_string@DU?$char_traits@D@std@@V?$allocator@D@2@@std@@@2@@2@V?$allocator@U?$pair@$$CBV?$basic_string@DU?$char_traits@D@std@@V?$allocator@D@2@@std@@V?$set@V?$basic_string@DU?$char_traits@D@std@@V?$allocator@D@2@@std@@U?$less@V?$basic_string@DU?$char_traits@D@std@@V?$allocator@D@2@@std@@@2@V?$allocator@V?$basic_string@DU?$char_traits@D@std@@V?$allocator@D@2@@std@@@2@@2@@std@@@2@$0A@@std@@@std@@IAEXI@Z 1001df30 f i Configuration.obj
 0001:0001cf30       ?_Init@?$_Hash@V?$_Umap_traits@V?$basic_string@DU?$char_traits@D@std@@V?$allocator@D@2@@std@@V12@V?$_Uhash_compare@V?$basic_string@DU?$char_traits@D@std@@V?$allocator@D@2@@std@@U?$hash@V?$basic_string@DU?$char_traits@D@std@@V?$allocator@D@2@@std@@@2@U?$equal_to@V?$basic_string@DU?$char_traits@D@std@@V?$allocator@D@2@@std@@@2@@2@V?$allocator@U?$pair@$$CBV?$basic_string@DU?$char_traits@D@std@@V?$allocator@D@2@@std@@V12@@std@@@2@$0A@@std@@@std@@IAEXI@Z 1001df30 f i Configuration.obj
 0001:0001cf30       ?_Init@?$_Hash@V?$_Umap_traits@V?$basic_string@DU?$char_traits@D@std@@V?$allocator@D@2@@std@@UskinInfo@@V?$_Uhash_compare@V?$basic_string@DU?$char_traits@D@std@@V?$allocator@D@2@@std@@U?$hash@V?$basic_string@DU?$char_traits@D@std@@V?$allocator@D@2@@std@@@2@U?$equal_to@V?$basic_string@DU?$char_traits@D@std@@V?$allocator@D@2@@std@@@2@@2@V?$allocator@U?$pair@$$CBV?$basic_string@DU?$char_traits@D@std@@V?$allocator@D@2@@std@@UskinInfo@@@std@@@2@$0A@@std@@@std@@IAEXI@Z 1001df30 f i Configuration.obj
 0001:0001cf30       ?_Init@?$_Hash@V?$_Umap_traits@PADPADV?$_Uhash_compare@PADU?$hash@PAD@std@@U?$equal_to@PAD@2@@std@@V?$allocator@U?$pair@QADPAD@std@@@2@$0A@@std@@@std@@IAEXI@Z 1001df30 f i Hooks.obj
 0001:0001d080       ?_Xlength@?$vector@V?$_List_unchecked_iterator@V?$_List_val@U?$_List_simple_types@U?$pair@$$CBV?$basic_string@DU?$char_traits@D@std@@V?$allocator@D@2@@std@@UskinInfo@@@std@@@std@@@std@@@std@@V?$allocator@V?$_List_unchecked_iterator@V?$_List_val@U?$_List_simple_types@U?$pair@$$CBV?$basic_string@DU?$char_traits@D@std@@V?$allocator@D@2@@std@@UskinInfo@@@std@@@std@@@std@@@std@@@2@@std@@CAXXZ 1001e080 f i Configuration.obj
 0001:0001d080       ?_Xlength@?$vector@PAURecvTable@@V?$allocator@PAURecvTable@@@std@@@std@@CAXXZ 1001e080 f i NetVarManager.obj
 0001:0001d080       ?_Xlength@?$vector@V?$shared_ptr@VNode@valve_parser@@@std@@V?$allocator@V?$shared_ptr@VNode@valve_parser@@@std@@@2@@std@@CAXXZ 1001e080 f i Parser.obj
 0001:0001d080       ?_Xlength@?$vector@V?$_List_unchecked_iterator@V?$_List_val@U?$_List_simple_types@U?$pair@QADPAD@std@@@std@@@std@@@std@@V?$allocator@V?$_List_unchecked_iterator@V?$_List_val@U?$_List_simple_types@U?$pair@QADPAD@std@@@std@@@std@@@std@@@2@@std@@CAXXZ 1001e080 f i Hooks.obj
 0001:0001d080       ?_Xlength@?$vector@PAV?$ConfigValue@M@@V?$allocator@PAV?$ConfigValue@M@@@std@@@std@@CAXXZ 1001e080 f i Configuration.obj
 0001:0001d080       ?_Xlength@?$vector@V?$_List_unchecked_iterator@V?$_List_val@U?$_List_simple_types@U?$pair@$$CBV?$basic_string@DU?$char_traits@D@std@@V?$allocator@D@2@@std@@V12@@std@@@std@@@std@@@std@@V?$allocator@V?$_List_unchecked_iterator@V?$_List_val@U?$_List_simple_types@U?$pair@$$CBV?$basic_string@DU?$char_traits@D@std@@V?$allocator@D@2@@std@@V12@@std@@@std@@@std@@@std@@@2@@std@@CAXXZ 1001e080 f i Configuration.obj
 0001:0001d080       ?_Xlength@?$vector@V?$basic_string@DU?$char_traits@D@std@@V?$allocator@D@2@@std@@V?$allocator@V?$basic_string@DU?$char_traits@D@std@@V?$allocator@D@2@@std@@@2@@std@@CAXXZ 1001e080 f i Hooks.obj
 0001:0001d080       ?_Xlength@?$vector@HV?$allocator@H@std@@@std@@CAXXZ 1001e080 f i LegitBot.obj
 0001:0001d080       ?_Xlength@?$vector@V?$_List_unchecked_iterator@V?$_List_val@U?$_List_simple_types@U?$pair@$$CBV?$basic_string@DU?$char_traits@D@std@@V?$allocator@D@2@@std@@V?$set@V?$basic_string@DU?$char_traits@D@std@@V?$allocator@D@2@@std@@U?$less@V?$basic_string@DU?$char_traits@D@std@@V?$allocator@D@2@@std@@@2@V?$allocator@V?$basic_string@DU?$char_traits@D@std@@V?$allocator@D@2@@std@@@2@@2@@std@@@std@@@std@@@std@@V?$allocator@V?$_List_unchecked_iterator@V?$_List_val@U?$_List_simple_types@U?$pair@$$CBV?$basic_string@DU?$char_traits@D@std@@V?$allocator@D@2@@std@@V?$set@V?$basic_string@DU?$char_traits@D@std@@V?$allocator@D@2@@std@@U?$less@V?$basic_string@DU?$char_traits@D@std@@V?$allocator@D@2@@std@@@2@V?$allocator@V?$basic_string@DU?$char_traits@D@std@@V?$allocator@D@2@@std@@@2@@2@@std@@@std@@@std@@@std@@@2@@std@@CAXXZ 1001e080 f i Configuration.obj
 0001:0001d080       ?_Xlength@?$vector@PAV?$ConfigValue@H@@V?$allocator@PAV?$ConfigValue@H@@@std@@@std@@CAXXZ 1001e080 f i Configuration.obj
 0001:0001d080       ?_Xlength@?$vector@_SV?$allocator@_S@std@@@std@@CAXXZ 1001e080 f i Parser.obj
 0001:0001d080       ?_Xlength@?$vector@VVector@@V?$allocator@VVector@@@std@@@std@@CAXXZ 1001e080 f i GrenadePrediction.obj
 0001:0001d080       ?_Xlength@?$vector@PAV?$ConfigValue@_N@@V?$allocator@PAV?$ConfigValue@_N@@@std@@@std@@CAXXZ 1001e080 f i Configuration.obj
 0001:0001d090       ?_Xran@?$_String_val@U?$_Simple_types@D@std@@@std@@SAXXZ 1001e090 f i Configuration.obj
 0001:0001d0a0       ?append@?$basic_string@DU?$char_traits@D@std@@V?$allocator@D@2@@std@@QAEAAV12@ID@Z 1001e0a0 f i Configuration.obj
 0001:0001d1f0       ?append@?$basic_string@DU?$char_traits@D@std@@V?$allocator@D@2@@std@@QAEAAV12@QBDI@Z 1001e1f0 f i Configuration.obj
 0001:0001d340       ?insert@?$basic_string@DU?$char_traits@D@std@@V?$allocator@D@2@@std@@QAEAAV12@IQBDI@Z 1001e340 f i Configuration.obj
 0001:0001d520       __scprintf                 1001e520 f i Configuration.obj
 0001:0001d550       ?on_dll_attach@@YA_NPAX@Z  1001e550 f   DLLMain.obj
 0001:0001d5c0       _DllMain@12                1001e5c0 f   DLLMain.obj
 0001:0001d680       ??$_Unfancy@V?$shared_ptr@VNode@valve_parser@@@std@@@std@@YAPAV?$shared_ptr@VNode@valve_parser@@@0@PAV10@@Z 1001e680 f   Parser.obj
 0001:0001da10       ??$sprintf_s@$0EA@@@YAHAAY0EA@DPBDZZ 1001ea10 f i ESP.obj
 0001:0001dae0       ??0visuals@@QAE@XZ         1001eae0 f   ESP.obj
 0001:0001db80       ??1?$vector@VVector@@V?$allocator@VVector@@@std@@@std@@QAE@XZ 1001eb80 f i ESP.obj
 0001:0001dc00       ?_Tidy_deallocate@?$basic_string@DU?$char_traits@D@std@@V?$allocator@D@2@@std@@QAEXXZ 1001ec00 f   Parser.obj
 0001:0001dc00       ??1?$basic_string@DU?$char_traits@D@std@@V?$allocator@D@2@@std@@QAE@XZ 1001ec00 f   Parser.obj
 0001:0001dc60       ?BulletTrace@visuals@@AAEXPAVC_BaseEntity@@VColor@@@Z 1001ec60 f   ESP.obj
 0001:0001df70       ?Crosshair@visuals@@AAEXPAVC_BaseEntity@@@Z 1001ef70 f   ESP.obj
 0001:0001e1c0       ?DrawAngles@visuals@@AAEXXZ 1001f1c0 f   ESP.obj
 0001:0001e660       ?DrawCorners@visuals@@AAEXUtagRECT@@VColor@@@Z 1001f660 f   ESP.obj
 0001:0001e920       ?DrawInfo@visuals@@AAEXUtagRECT@@PAVC_BaseEntity@@1@Z 1001f920 f   ESP.obj
 0001:0001f800       ?DynamicBox@visuals@@AAE?AUtagRECT@@PAVC_BaseEntity@@AA_N0@Z 10020800 f   ESP.obj
 0001:0001fd70       ?GetBonePos@C_BaseEntity@@QAE?AVVector@@H@Z 10020d70 f i ESP.obj
 0001:0001fe30       ?GetEyePosition@C_BaseEntity@@QAE?AVVector@@XZ 10020e30 f i ESP.obj
 0001:0001fea0       ?Init@Ray_t@@QAEXABVVector@@0@Z 10020ea0 f i ESP.obj
 0001:0001ff60       ?IsAlive@C_BaseEntity@@QAE_NXZ 10020f60 f i ESP.obj
 0001:0001ff80       ?NightMode@visuals@@AAEXXZ 10020f80 f   ESP.obj
 0001:000203b0       ?OnPaintTraverse@visuals@@QAEXPAVC_BaseEntity@@@Z 100213b0 f   ESP.obj
 0001:00021bc0       ?ThreeDBox@visuals@@AAEXVVector@@00VColor@@@Z 10022bc0 f   ESP.obj
 0001:00021df0       ?flGetDistance@@YAHVVector@@0@Z 10022df0 f i ESP.obj
 0001:00021e80       ?to_string@std@@YA?AV?$basic_string@DU?$char_traits@D@std@@V?$allocator@D@2@@1@H@Z 10022e80 f i ESP.obj
 0001:00021f00       _sprintf                   10022f00 f i ESP.obj
 0001:00021f40       ??$_Uninitialized_move_al_unchecked@PAVVector@@PAV1@V?$allocator@VVector@@@std@@@std@@YAPAVVector@@PAV1@00AAV?$allocator@VVector@@@0@U_General_ptr_iterator_tag@0@U_Unused_parameter@0@@Z 10022f40 f i GrenadePrediction.obj
 0001:00021f70       ??$emplace_back@ABVVector@@@?$vector@VVector@@V?$allocator@VVector@@@std@@@std@@QAEXABVVector@@@Z 10022f70 f i GrenadePrediction.obj
 0001:00022180       ?Init@Ray_t@@QAEXABVVector@@000@Z 10023180 f i GrenadePrediction.obj
 0001:00022360       ?Paint@grenade_prediction@@QAEXXZ 10023360 f   GrenadePrediction.obj
 0001:000224a0       ?Setup@grenade_prediction@@AAEXAAVVector@@0V2@@Z 100234a0 f   GrenadePrediction.obj
 0001:00022840       ?ShouldHitEntity@CTraceFilterWorldAndPropsOnly@@UAE_NPAVC_BaseEntity@@H@Z 10023840 f i GrenadePrediction.obj
 0001:00022850       ?Step@grenade_prediction@@AAEHAAVVector@@0HM@Z 10023850 f   GrenadePrediction.obj
 0001:00022c10       ?Tick@grenade_prediction@@QAEXH@Z 10023c10 f   GrenadePrediction.obj
 0001:00022c50       ?TraceHull@grenade_prediction@@AAEXAAVVector@@0AAVCGameTrace@@@Z 10023c50 f   GrenadePrediction.obj
 0001:00022d30       ?View@grenade_prediction@@QAEXPAUCViewSetup@@@Z 10023d30 f   GrenadePrediction.obj
 0001:00022eb0       ?deallocate@?$allocator@VVector@@@std@@QAEXQAVVector@@I@Z 10023eb0 f i GrenadePrediction.obj
 0001:00022f00       ??$?0PADX@?$basic_string@DU?$char_traits@D@std@@V?$allocator@D@2@@std@@QAE@PAD0ABV?$allocator@D@1@@Z 10023f00 f i Hooks.obj
 0001:00022f40       ??$_Buynode@ABUpiecewise_construct_t@std@@V?$tuple@ABV?$basic_string@DU?$char_traits@D@std@@V?$allocator@D@2@@std@@@2@V?$tuple@$$V@2@@?$_List_buy@U?$pair@$$CBV?$basic_string@DU?$char_traits@D@std@@V?$allocator@D@2@@std@@UskinInfo@@@std@@V?$allocator@U?$pair@$$CBV?$basic_string@DU?$char_traits@D@std@@V?$allocator@D@2@@std@@UskinInfo@@@std@@@2@@std@@QAEPAU?$_List_node@U?$pair@$$CBV?$basic_string@DU?$char_traits@D@std@@V?$allocator@D@2@@std@@UskinInfo@@@std@@PAX@1@PAU21@0ABUpiecewise_construct_t@1@$$QAV?$tuple@ABV?$basic_string@DU?$char_traits@D@std@@V?$allocator@D@2@@std@@@1@$$QAV?$tuple@$$V@1@@Z 10023f40 f i Hooks.obj
 0001:00022ff0       ??$_Buynode@ABUpiecewise_construct_t@std@@V?$tuple@ABV?$basic_string@DU?$char_traits@D@std@@V?$allocator@D@2@@std@@@2@V?$tuple@$$V@2@@?$_List_buy@U?$pair@$$CBV?$basic_string@DU?$char_traits@D@std@@V?$allocator@D@2@@std@@V12@@std@@V?$allocator@U?$pair@$$CBV?$basic_string@DU?$char_traits@D@std@@V?$allocator@D@2@@std@@V12@@std@@@2@@std@@QAEPAU?$_List_node@U?$pair@$$CBV?$basic_string@DU?$char_traits@D@std@@V?$allocator@D@2@@std@@V12@@std@@PAX@1@PAU21@0ABUpiecewise_construct_t@1@$$QAV?$tuple@ABV?$basic_string@DU?$char_traits@D@std@@V?$allocator@D@2@@std@@@1@$$QAV?$tuple@$$V@1@@Z 10023ff0 f i Hooks.obj
 0001:00023090       ??$_Buynode@ABUpiecewise_construct_t@std@@V?$tuple@ABV?$basic_string@DU?$char_traits@D@std@@V?$allocator@D@2@@std@@@2@V?$tuple@$$V@2@@?$_List_buy@U?$pair@$$CBV?$basic_string@DU?$char_traits@D@std@@V?$allocator@D@2@@std@@V?$set@V?$basic_string@DU?$char_traits@D@std@@V?$allocator@D@2@@std@@U?$less@V?$basic_string@DU?$char_traits@D@std@@V?$allocator@D@2@@std@@@2@V?$allocator@V?$basic_string@DU?$char_traits@D@std@@V?$allocator@D@2@@std@@@2@@2@@std@@V?$allocator@U?$pair@$$CBV?$basic_string@DU?$char_traits@D@std@@V?$allocator@D@2@@std@@V?$set@V?$basic_string@DU?$char_traits@D@std@@V?$allocator@D@2@@std@@U?$less@V?$basic_string@DU?$char_traits@D@std@@V?$allocator@D@2@@std@@@2@V?$allocator@V?$basic_string@DU?$char_traits@D@std@@V?$allocator@D@2@@std@@@2@@2@@std@@@2@@std@@QAEPAU?$_List_node@U?$pair@$$CBV?$basic_string@DU?$char_traits@D@std@@V?$allocator@D@2@@std@@V?$set@V?$basic_string@DU?$char_traits@D@std@@V?$allocator@D@2@@std@@U?$less@V?$basic_string@DU?$char_traits@D@std@@V?$allocator@D@2@@std@@@2@V?$allocator@V?$basic_string@DU?$char_traits@D@std@@V?$allocator@D@2@@std@@@2@@2@@std@@PAX@1@PAU21@0ABUpiecewise_construct_t@1@$$QAV?$tuple@ABV?$basic_string@DU?$char_traits@D@std@@V?$allocator@D@2@@std@@@1@$$QAV?$tuple@$$V@1@@Z 10024090 f i Hooks.obj
 0001:00023140       ??$_Buynode@V?$basic_string@DU?$char_traits@D@std@@V?$allocator@D@2@@std@@@?$_Tree_comp_alloc@V?$_Tset_traits@V?$basic_string@DU?$char_traits@D@std@@V?$allocator@D@2@@std@@U?$less@V?$basic_string@DU?$char_traits@D@std@@V?$allocator@D@2@@std@@@2@V?$allocator@V?$basic_string@DU?$char_traits@D@std@@V?$allocator@D@2@@std@@@2@$0A@@std@@@std@@QAEPAU?$_Tree_node@V?$basic_string@DU?$char_traits@D@std@@V?$allocator@D@2@@std@@PAX@1@$$QAV?$basic_string@DU?$char_traits@D@std@@V?$allocator@D@2@@1@@Z 10024140 f i Hooks.obj
 0001:00023190       ??$_Destroy_range@V?$allocator@V?$basic_string@DU?$char_traits@D@std@@V?$allocator@D@2@@std@@@std@@@std@@YAXPAV?$basic_string@DU?$char_traits@D@std@@V?$allocator@D@2@@0@0AAV?$allocator@V?$basic_string@DU?$char_traits@D@std@@V?$allocator@D@2@@std@@@0@@Z 10024190 f i Hooks.obj
 0001:00023200       ??$_Insert@AAU?$pair@$$CBV?$basic_string@DU?$char_traits@D@std@@V?$allocator@D@2@@std@@UskinInfo@@@std@@V?$_List_unchecked_iterator@V?$_List_val@U?$_List_simple_types@U?$pair@$$CBV?$basic_string@DU?$char_traits@D@std@@V?$allocator@D@2@@std@@UskinInfo@@@std@@@std@@@std@@@2@@?$_Hash@V?$_Umap_traits@V?$basic_string@DU?$char_traits@D@std@@V?$allocator@D@2@@std@@UskinInfo@@V?$_Uhash_compare@V?$basic_string@DU?$char_traits@D@std@@V?$allocator@D@2@@std@@U?$hash@V?$basic_string@DU?$char_traits@D@std@@V?$allocator@D@2@@std@@@2@U?$equal_to@V?$basic_string@DU?$char_traits@D@std@@V?$allocator@D@2@@std@@@2@@2@V?$allocator@U?$pair@$$CBV?$basic_string@DU?$char_traits@D@std@@V?$allocator@D@2@@std@@UskinInfo@@@std@@@2@$0A@@std@@@std@@IAE?AU?$pair@V?$_List_iterator@V?$_List_val@U?$_List_simple_types@U?$pair@$$CBV?$basic_string@DU?$char_traits@D@std@@V?$allocator@D@2@@std@@UskinInfo@@@std@@@std@@@std@@@std@@_N@1@AAU?$pair@$$CBV?$basic_string@DU?$char_traits@D@std@@V?$allocator@D@2@@std@@UskinInfo@@@1@V?$_List_unchecked_iterator@V?$_List_val@U?$_List_simple_types@U?$pair@$$CBV?$basic_string@DU?$char_traits@D@std@@V?$allocator@D@2@@std@@UskinInfo@@@std@@@std@@@std@@@1@@Z 10024200 f i Hooks.obj
 0001:000234a0       ??$_Insert@AAU?$pair@$$CBV?$basic_string@DU?$char_traits@D@std@@V?$allocator@D@2@@std@@V12@@std@@V?$_List_unchecked_iterator@V?$_List_val@U?$_List_simple_types@U?$pair@$$CBV?$basic_string@DU?$char_traits@D@std@@V?$allocator@D@2@@std@@V12@@std@@@std@@@std@@@2@@?$_Hash@V?$_Umap_traits@V?$basic_string@DU?$char_traits@D@std@@V?$allocator@D@2@@std@@V12@V?$_Uhash_compare@V?$basic_string@DU?$char_traits@D@std@@V?$allocator@D@2@@std@@U?$hash@V?$basic_string@DU?$char_traits@D@std@@V?$allocator@D@2@@std@@@2@U?$equal_to@V?$basic_string@DU?$char_traits@D@std@@V?$allocator@D@2@@std@@@2@@2@V?$allocator@U?$pair@$$CBV?$basic_string@DU?$char_traits@D@std@@V?$allocator@D@2@@std@@V12@@std@@@2@$0A@@std@@@std@@IAE?AU?$pair@V?$_List_iterator@V?$_List_val@U?$_List_simple_types@U?$pair@$$CBV?$basic_string@DU?$char_traits@D@std@@V?$allocator@D@2@@std@@V12@@std@@@std@@@std@@@std@@_N@1@AAU?$pair@$$CBV?$basic_string@DU?$char_traits@D@std@@V?$allocator@D@2@@std@@V12@@1@V?$_List_unchecked_iterator@V?$_List_val@U?$_List_simple_types@U?$pair@$$CBV?$basic_string@DU?$char_traits@D@std@@V?$allocator@D@2@@std@@V12@@std@@@std@@@std@@@1@@Z 100244a0 f i Hooks.obj
 0001:00023740       ??$_Insert@AAU?$pair@$$CBV?$basic_string@DU?$char_traits@D@std@@V?$allocator@D@2@@std@@V?$set@V?$basic_string@DU?$char_traits@D@std@@V?$allocator@D@2@@std@@U?$less@V?$basic_string@DU?$char_traits@D@std@@V?$allocator@D@2@@std@@@2@V?$allocator@V?$basic_string@DU?$char_traits@D@std@@V?$allocator@D@2@@std@@@2@@2@@std@@V?$_List_unchecked_iterator@V?$_List_val@U?$_List_simple_types@U?$pair@$$CBV?$basic_string@DU?$char_traits@D@std@@V?$allocator@D@2@@std@@V?$set@V?$basic_string@DU?$char_traits@D@std@@V?$allocator@D@2@@std@@U?$less@V?$basic_string@DU?$char_traits@D@std@@V?$allocator@D@2@@std@@@2@V?$allocator@V?$basic_string@DU?$char_traits@D@std@@V?$allocator@D@2@@std@@@2@@2@@std@@@std@@@std@@@2@@?$_Hash@V?$_Umap_traits@V?$basic_string@DU?$char_traits@D@std@@V?$allocator@D@2@@std@@V?$set@V?$basic_string@DU?$char_traits@D@std@@V?$allocator@D@2@@std@@U?$less@V?$basic_string@DU?$char_traits@D@std@@V?$allocator@D@2@@std@@@2@V?$allocator@V?$basic_string@DU?$char_traits@D@std@@V?$allocator@D@2@@std@@@2@@2@V?$_Uhash_compare@V?$basic_string@DU?$char_traits@D@std@@V?$allocator@D@2@@std@@U?$hash@V?$basic_string@DU?$char_traits@D@std@@V?$allocator@D@2@@std@@@2@U?$equal_to@V?$basic_string@DU?$char_traits@D@std@@V?$allocator@D@2@@std@@@2@@2@V?$allocator@U?$pair@$$CBV?$basic_string@DU?$char_traits@D@std@@V?$allocator@D@2@@std@@V?$set@V?$basic_string@DU?$char_traits@D@std@@V?$allocator@D@2@@std@@U?$less@V?$basic_string@DU?$char_traits@D@std@@V?$allocator@D@2@@std@@@2@V?$allocator@V?$basic_string@DU?$char_traits@D@std@@V?$allocator@D@2@@std@@@2@@2@@std@@@2@$0A@@std@@@std@@IAE?AU?$pair@V?$_List_iterator@V?$_List_val@U?$_List_simple_types@U?$pair@$$CBV?$basic_string@DU?$char_traits@D@std@@V?$allocator@D@2@@std@@V?$set@V?$basic_string@DU?$char_traits@D@std@@V?$allocator@D@2@@std@@U?$less@V?$basic_string@DU?$char_traits@D@std@@V?$allocator@D@2@@std@@@2@V?$allocator@V?$basic_string@DU?$char_traits@D@std@@V?$allocator@D@2@@std@@@2@@2@@std@@@std@@@std@@@std@@_N@1@AAU?$pair@$$CBV?$basic_string@DU?$char_traits@D@std@@V?$allocator@D@2@@std@@V?$set@V?$basic_string@DU?$char_traits@D@std@@V?$allocator@D@2@@std@@U?$less@V?$basic_string@DU?$char_traits@D@std@@V?$allocator@D@2@@std@@@2@V?$allocator@V?$basic_string@DU?$char_traits@D@std@@V?$allocator@D@2@@std@@@2@@2@@1@V?$_List_unchecked_iterator@V?$_List_val@U?$_List_simple_types@U?$pair@$$CBV?$basic_string@DU?$char_traits@D@std@@V?$allocator@D@2@@std@@V?$set@V?$basic_string@DU?$char_traits@D@std@@V?$allocator@D@2@@std@@U?$less@V?$basic_string@DU?$char_traits@D@std@@V?$allocator@D@2@@std@@@2@V?$allocator@V?$basic_string@DU?$char_traits@D@std@@V?$allocator@D@2@@std@@@2@@2@@std@@@std@@@std@@@1@@Z 10024740 f i Hooks.obj
 0001:000239e0       ??$_Insert_at@V?$basic_string@DU?$char_traits@D@std@@V?$allocator@D@2@@std@@U_Nil@2@@?$_Tree@V?$_Tset_traits@V?$basic_string@DU?$char_traits@D@std@@V?$allocator@D@2@@std@@U?$less@V?$basic_string@DU?$char_traits@D@std@@V?$allocator@D@2@@std@@@2@V?$allocator@V?$basic_string@DU?$char_traits@D@std@@V?$allocator@D@2@@std@@@2@$0A@@std@@@std@@IAE?AV?$_Tree_const_iterator@V?$_Tree_val@U?$_Tree_simple_types@V?$basic_string@DU?$char_traits@D@std@@V?$allocator@D@2@@std@@@std@@@std@@@1@_NPAU?$_Tree_node@V?$basic_string@DU?$char_traits@D@std@@V?$allocator@D@2@@std@@PAX@1@$$QAV?$basic_string@DU?$char_traits@D@std@@V?$allocator@D@2@@1@U_Nil@1@@Z 100249e0 f i Hooks.obj
 0001:00023b40       ??$_Insert_nohint@V?$basic_string@DU?$char_traits@D@std@@V?$allocator@D@2@@std@@U_Nil@2@@?$_Tree@V?$_Tset_traits@V?$basic_string@DU?$char_traits@D@std@@V?$allocator@D@2@@std@@U?$less@V?$basic_string@DU?$char_traits@D@std@@V?$allocator@D@2@@std@@@2@V?$allocator@V?$basic_string@DU?$char_traits@D@std@@V?$allocator@D@2@@std@@@2@$0A@@std@@@std@@IAE?AU?$pair@V?$_Tree_const_iterator@V?$_Tree_val@U?$_Tree_simple_types@V?$basic_string@DU?$char_traits@D@std@@V?$allocator@D@2@@std@@@std@@@std@@@std@@_N@1@_N$$QAV?$basic_string@DU?$char_traits@D@std@@V?$allocator@D@2@@1@U_Nil@1@@Z 10024b40 f i Hooks.obj
 0001:00023cf0       ??$_Range_construct_or_tidy@PBV?$basic_string@DU?$char_traits@D@std@@V?$allocator@D@2@@std@@@?$vector@V?$basic_string@DU?$char_traits@D@std@@V?$allocator@D@2@@std@@V?$allocator@V?$basic_string@DU?$char_traits@D@std@@V?$allocator@D@2@@std@@@2@@std@@AAEXPBV?$basic_string@DU?$char_traits@D@std@@V?$allocator@D@2@@1@0Uforward_iterator_tag@1@@Z 10024cf0 f i Hooks.obj
 0001:00023e00       ??$_Traits_compare@U?$char_traits@D@std@@@std@@YAHQBDI0I@Z 10024e00 f i Hooks.obj
 0001:00023e90       ??$_Traits_find@U?$char_traits@D@std@@@std@@YAIQBDII0I@Z 10024e90 f i Hooks.obj
 0001:00023f90       ??$_Try_emplace@ABV?$basic_string@DU?$char_traits@D@std@@V?$allocator@D@2@@std@@$$V@?$unordered_map@V?$basic_string@DU?$char_traits@D@std@@V?$allocator@D@2@@std@@UskinInfo@@U?$hash@V?$basic_string@DU?$char_traits@D@std@@V?$allocator@D@2@@std@@@2@U?$equal_to@V?$basic_string@DU?$char_traits@D@std@@V?$allocator@D@2@@std@@@2@V?$allocator@U?$pair@$$CBV?$basic_string@DU?$char_traits@D@std@@V?$allocator@D@2@@std@@UskinInfo@@@std@@@2@@std@@QAE?AU?$pair@V?$_List_iterator@V?$_List_val@U?$_List_simple_types@U?$pair@$$CBV?$basic_string@DU?$char_traits@D@std@@V?$allocator@D@2@@std@@UskinInfo@@@std@@@std@@@std@@@std@@_N@1@ABV?$basic_string@DU?$char_traits@D@std@@V?$allocator@D@2@@1@@Z 10024f90 f i Hooks.obj
 0001:00024190       ??$_Try_emplace@ABV?$basic_string@DU?$char_traits@D@std@@V?$allocator@D@2@@std@@$$V@?$unordered_map@V?$basic_string@DU?$char_traits@D@std@@V?$allocator@D@2@@std@@V12@U?$hash@V?$basic_string@DU?$char_traits@D@std@@V?$allocator@D@2@@std@@@2@U?$equal_to@V?$basic_string@DU?$char_traits@D@std@@V?$allocator@D@2@@std@@@2@V?$allocator@U?$pair@$$CBV?$basic_string@DU?$char_traits@D@std@@V?$allocator@D@2@@std@@V12@@std@@@2@@std@@QAE?AU?$pair@V?$_List_iterator@V?$_List_val@U?$_List_simple_types@U?$pair@$$CBV?$basic_string@DU?$char_traits@D@std@@V?$allocator@D@2@@std@@V12@@std@@@std@@@std@@@std@@_N@1@ABV?$basic_string@DU?$char_traits@D@std@@V?$allocator@D@2@@1@@Z 10025190 f i Hooks.obj
 0001:00024390       ??$_Try_emplace@ABV?$basic_string@DU?$char_traits@D@std@@V?$allocator@D@2@@std@@$$V@?$unordered_map@V?$basic_string@DU?$char_traits@D@std@@V?$allocator@D@2@@std@@V?$set@V?$basic_string@DU?$char_traits@D@std@@V?$allocator@D@2@@std@@U?$less@V?$basic_string@DU?$char_traits@D@std@@V?$allocator@D@2@@std@@@2@V?$allocator@V?$basic_string@DU?$char_traits@D@std@@V?$allocator@D@2@@std@@@2@@2@U?$hash@V?$basic_string@DU?$char_traits@D@std@@V?$allocator@D@2@@std@@@2@U?$equal_to@V?$basic_string@DU?$char_traits@D@std@@V?$allocator@D@2@@std@@@2@V?$allocator@U?$pair@$$CBV?$basic_string@DU?$char_traits@D@std@@V?$allocator@D@2@@std@@V?$set@V?$basic_string@DU?$char_traits@D@std@@V?$allocator@D@2@@std@@U?$less@V?$basic_string@DU?$char_traits@D@std@@V?$allocator@D@2@@std@@@2@V?$allocator@V?$basic_string@DU?$char_traits@D@std@@V?$allocator@D@2@@std@@@2@@2@@std@@@2@@std@@QAE?AU?$pair@V?$_List_iterator@V?$_List_val@U?$_List_simple_types@U?$pair@$$CBV?$basic_string@DU?$char_traits@D@std@@V?$allocator@D@2@@std@@V?$set@V?$basic_string@DU?$char_traits@D@std@@V?$allocator@D@2@@std@@U?$less@V?$basic_string@DU?$char_traits@D@std@@V?$allocator@D@2@@std@@@2@V?$allocator@V?$basic_string@DU?$char_traits@D@std@@V?$allocator@D@2@@std@@@2@@2@@std@@@std@@@std@@@std@@_N@1@ABV?$basic_string@DU?$char_traits@D@std@@V?$allocator@D@2@@1@@Z 10025390 f i Hooks.obj
 0001:00024590       ??$_Uninit_alloc_fill_n1@PAV?$_List_unchecked_iterator@V?$_List_val@U?$_List_simple_types@U?$pair@$$CBV?$basic_string@DU?$char_traits@D@std@@V?$allocator@D@2@@std@@V12@@std@@@std@@@std@@@std@@IV?$allocator@V?$_List_unchecked_iterator@V?$_List_val@U?$_List_simple_types@U?$pair@$$CBV?$basic_string@DU?$char_traits@D@std@@V?$allocator@D@2@@std@@V12@@std@@@std@@@std@@@std@@@2@@std@@YAPAV?$_List_unchecked_iterator@V?$_List_val@U?$_List_simple_types@U?$pair@$$CBV?$basic_string@DU?$char_traits@D@std@@V?$allocator@D@2@@std@@V12@@std@@@std@@@std@@@0@PAV10@IABV10@AAV?$allocator@V?$_List_unchecked_iterator@V?$_List_val@U?$_List_simple_types@U?$pair@$$CBV?$basic_string@DU?$char_traits@D@std@@V?$allocator@D@2@@std@@V12@@std@@@std@@@std@@@std@@@0@U?$integral_constant@_N$0A@@0@@Z 10025590 f i Configuration.obj
 0001:00024590       ??$_Uninit_alloc_fill_n1@PAV?$_List_unchecked_iterator@V?$_List_val@U?$_List_simple_types@U?$pair@QADPAD@std@@@std@@@std@@@std@@IV?$allocator@V?$_List_unchecked_iterator@V?$_List_val@U?$_List_simple_types@U?$pair@QADPAD@std@@@std@@@std@@@std@@@2@@std@@YAPAV?$_List_unchecked_iterator@V?$_List_val@U?$_List_simple_types@U?$pair@QADPAD@std@@@std@@@std@@@0@PAV10@IABV10@AAV?$allocator@V?$_List_unchecked_iterator@V?$_List_val@U?$_List_simple_types@U?$pair@QADPAD@std@@@std@@@std@@@std@@@0@U?$integral_constant@_N$0A@@0@@Z 10025590 f i Hooks.obj
 0001:00024590       ??$_Uninit_alloc_fill_n1@PAV?$_List_unchecked_iterator@V?$_List_val@U?$_List_simple_types@U?$pair@$$CBV?$basic_string@DU?$char_traits@D@std@@V?$allocator@D@2@@std@@V?$set@V?$basic_string@DU?$char_traits@D@std@@V?$allocator@D@2@@std@@U?$less@V?$basic_string@DU?$char_traits@D@std@@V?$allocator@D@2@@std@@@2@V?$allocator@V?$basic_string@DU?$char_traits@D@std@@V?$allocator@D@2@@std@@@2@@2@@std@@@std@@@std@@@std@@IV?$allocator@V?$_List_unchecked_iterator@V?$_List_val@U?$_List_simple_types@U?$pair@$$CBV?$basic_string@DU?$char_traits@D@std@@V?$allocator@D@2@@std@@V?$set@V?$basic_string@DU?$char_traits@D@std@@V?$allocator@D@2@@std@@U?$less@V?$basic_string@DU?$char_traits@D@std@@V?$allocator@D@2@@std@@@2@V?$allocator@V?$basic_string@DU?$char_traits@D@std@@V?$allocator@D@2@@std@@@2@@2@@std@@@std@@@std@@@std@@@2@@std@@YAPAV?$_List_unchecked_iterator@V?$_List_val@U?$_List_simple_types@U?$pair@$$CBV?$basic_string@DU?$char_traits@D@std@@V?$allocator@D@2@@std@@V?$set@V?$basic_string@DU?$char_traits@D@std@@V?$allocator@D@2@@std@@U?$less@V?$basic_string@DU?$char_traits@D@std@@V?$allocator@D@2@@std@@@2@V?$allocator@V?$basic_string@DU?$char_traits@D@std@@V?$allocator@D@2@@std@@@2@@2@@std@@@std@@@std@@@0@PAV10@IABV10@AAV?$allocator@V?$_List_unchecked_iterator@V?$_List_val@U?$_List_simple_types@U?$pair@$$CBV?$basic_string@DU?$char_traits@D@std@@V?$allocator@D@2@@std@@V?$set@V?$basic_string@DU?$char_traits@D@std@@V?$allocator@D@2@@std@@U?$less@V?$basic_string@DU?$char_traits@D@std@@V?$allocator@D@2@@std@@@2@V?$allocator@V?$basic_string@DU?$char_traits@D@std@@V?$allocator@D@2@@std@@@2@@2@@std@@@std@@@std@@@std@@@0@U?$integral_constant@_N$0A@@0@@Z 10025590 f i Configuration.obj
 0001:00024590       ??$_Uninit_alloc_fill_n1@PAV?$_List_unchecked_iterator@V?$_List_val@U?$_List_simple_types@U?$pair@$$CBV?$basic_string@DU?$char_traits@D@std@@V?$allocator@D@2@@std@@UskinInfo@@@std@@@std@@@std@@@std@@IV?$allocator@V?$_List_unchecked_iterator@V?$_List_val@U?$_List_simple_types@U?$pair@$$CBV?$basic_string@DU?$char_traits@D@std@@V?$allocator@D@2@@std@@UskinInfo@@@std@@@std@@@std@@@std@@@2@@std@@YAPAV?$_List_unchecked_iterator@V?$_List_val@U?$_List_simple_types@U?$pair@$$CBV?$basic_string@DU?$char_traits@D@std@@V?$allocator@D@2@@std@@UskinInfo@@@std@@@std@@@std@@@0@PAV10@IABV10@AAV?$allocator@V?$_List_unchecked_iterator@V?$_List_val@U?$_List_simple_types@U?$pair@$$CBV?$basic_string@DU?$char_traits@D@std@@V?$allocator@D@2@@std@@UskinInfo@@@std@@@std@@@std@@@std@@@0@U?$integral_constant@_N$0A@@0@@Z 10025590 f i Configuration.obj
 0001:000245b0       ??$_Uninitialized_copy_al_unchecked@PBV?$basic_string@DU?$char_traits@D@std@@V?$allocator@D@2@@std@@PAV12@V?$allocator@V?$basic_string@DU?$char_traits@D@std@@V?$allocator@D@2@@std@@@2@@std@@YAPAV?$basic_string@DU?$char_traits@D@std@@V?$allocator@D@2@@0@PBV10@0PAV10@AAV?$allocator@V?$basic_string@DU?$char_traits@D@std@@V?$allocator@D@2@@std@@@0@U_General_ptr_iterator_tag@0@U_Unused_parameter@0@@Z 100255b0 f i Hooks.obj
 0001:00024640       ??$_Uninitialized_move_al_unchecked@PAV?$_List_unchecked_iterator@V?$_List_val@U?$_List_simple_types@U?$pair@$$CBV?$basic_string@DU?$char_traits@D@std@@V?$allocator@D@2@@std@@V12@@std@@@std@@@std@@@std@@PAV12@V?$allocator@V?$_List_unchecked_iterator@V?$_List_val@U?$_List_simple_types@U?$pair@$$CBV?$basic_string@DU?$char_traits@D@std@@V?$allocator@D@2@@std@@V12@@std@@@std@@@std@@@std@@@2@@std@@YAPAV?$_List_unchecked_iterator@V?$_List_val@U?$_List_simple_types@U?$pair@$$CBV?$basic_string@DU?$char_traits@D@std@@V?$allocator@D@2@@std@@V12@@std@@@std@@@std@@@0@PAV10@00AAV?$allocator@V?$_List_unchecked_iterator@V?$_List_val@U?$_List_simple_types@U?$pair@$$CBV?$basic_string@DU?$char_traits@D@std@@V?$allocator@D@2@@std@@V12@@std@@@std@@@std@@@std@@@0@U_General_ptr_iterator_tag@0@U_Unused_parameter@0@@Z 10025640 f i Configuration.obj
 0001:00024640       ??$_Uninitialized_move_al_unchecked@PAV?$_List_unchecked_iterator@V?$_List_val@U?$_List_simple_types@U?$pair@$$CBV?$basic_string@DU?$char_traits@D@std@@V?$allocator@D@2@@std@@V?$set@V?$basic_string@DU?$char_traits@D@std@@V?$allocator@D@2@@std@@U?$less@V?$basic_string@DU?$char_traits@D@std@@V?$allocator@D@2@@std@@@2@V?$allocator@V?$basic_string@DU?$char_traits@D@std@@V?$allocator@D@2@@std@@@2@@2@@std@@@std@@@std@@@std@@PAV12@V?$allocator@V?$_List_unchecked_iterator@V?$_List_val@U?$_List_simple_types@U?$pair@$$CBV?$basic_string@DU?$char_traits@D@std@@V?$allocator@D@2@@std@@V?$set@V?$basic_string@DU?$char_traits@D@std@@V?$allocator@D@2@@std@@U?$less@V?$basic_string@DU?$char_traits@D@std@@V?$allocator@D@2@@std@@@2@V?$allocator@V?$basic_string@DU?$char_traits@D@std@@V?$allocator@D@2@@std@@@2@@2@@std@@@std@@@std@@@std@@@2@@std@@YAPAV?$_List_unchecked_iterator@V?$_List_val@U?$_List_simple_types@U?$pair@$$CBV?$basic_string@DU?$char_traits@D@std@@V?$allocator@D@2@@std@@V?$set@V?$basic_string@DU?$char_traits@D@std@@V?$allocator@D@2@@std@@U?$less@V?$basic_string@DU?$char_traits@D@std@@V?$allocator@D@2@@std@@@2@V?$allocator@V?$basic_string@DU?$char_traits@D@std@@V?$allocator@D@2@@std@@@2@@2@@std@@@std@@@std@@@0@PAV10@00AAV?$allocator@V?$_List_unchecked_iterator@V?$_List_val@U?$_List_simple_types@U?$pair@$$CBV?$basic_string@DU?$char_traits@D@std@@V?$allocator@D@2@@std@@V?$set@V?$basic_string@DU?$char_traits@D@std@@V?$allocator@D@2@@std@@U?$less@V?$basic_string@DU?$char_traits@D@std@@V?$allocator@D@2@@std@@@2@V?$allocator@V?$basic_string@DU?$char_traits@D@std@@V?$allocator@D@2@@std@@@2@@2@@std@@@std@@@std@@@std@@@0@U_General_ptr_iterator_tag@0@U_Unused_parameter@0@@Z 10025640 f i Configuration.obj
 0001:00024640       ??$_Uninitialized_move_al_unchecked@PAV?$_List_unchecked_iterator@V?$_List_val@U?$_List_simple_types@U?$pair@QADPAD@std@@@std@@@std@@@std@@PAV12@V?$allocator@V?$_List_unchecked_iterator@V?$_List_val@U?$_List_simple_types@U?$pair@QADPAD@std@@@std@@@std@@@std@@@2@@std@@YAPAV?$_List_unchecked_iterator@V?$_List_val@U?$_List_simple_types@U?$pair@QADPAD@std@@@std@@@std@@@0@PAV10@00AAV?$allocator@V?$_List_unchecked_iterator@V?$_List_val@U?$_List_simple_types@U?$pair@QADPAD@std@@@std@@@std@@@std@@@0@U_General_ptr_iterator_tag@0@U_Unused_parameter@0@@Z 10025640 f i Hooks.obj
 0001:00024640       ??$_Uninitialized_move_al_unchecked@PAV?$_List_unchecked_iterator@V?$_List_val@U?$_List_simple_types@U?$pair@$$CBV?$basic_string@DU?$char_traits@D@std@@V?$allocator@D@2@@std@@UskinInfo@@@std@@@std@@@std@@@std@@PAV12@V?$allocator@V?$_List_unchecked_iterator@V?$_List_val@U?$_List_simple_types@U?$pair@$$CBV?$basic_string@DU?$char_traits@D@std@@V?$allocator@D@2@@std@@UskinInfo@@@std@@@std@@@std@@@std@@@2@@std@@YAPAV?$_List_unchecked_iterator@V?$_List_val@U?$_List_simple_types@U?$pair@$$CBV?$basic_string@DU?$char_traits@D@std@@V?$allocator@D@2@@std@@UskinInfo@@@std@@@std@@@std@@@0@PAV10@00AAV?$allocator@V?$_List_unchecked_iterator@V?$_List_val@U?$_List_simple_types@U?$pair@$$CBV?$basic_string@DU?$char_traits@D@std@@V?$allocator@D@2@@std@@UskinInfo@@@std@@@std@@@std@@@std@@@0@U_General_ptr_iterator_tag@0@U_Unused_parameter@0@@Z 10025640 f i Configuration.obj
 0001:00024680       ??$erase@V?$_List_iterator@V?$_List_val@U?$_List_simple_types@U?$pair@$$CBV?$basic_string@DU?$char_traits@D@std@@V?$allocator@D@2@@std@@UskinInfo@@@std@@@std@@@std@@@std@@X@?$_Hash@V?$_Umap_traits@V?$basic_string@DU?$char_traits@D@std@@V?$allocator@D@2@@std@@UskinInfo@@V?$_Uhash_compare@V?$basic_string@DU?$char_traits@D@std@@V?$allocator@D@2@@std@@U?$hash@V?$basic_string@DU?$char_traits@D@std@@V?$allocator@D@2@@std@@@2@U?$equal_to@V?$basic_string@DU?$char_traits@D@std@@V?$allocator@D@2@@std@@@2@@2@V?$allocator@U?$pair@$$CBV?$basic_string@DU?$char_traits@D@std@@V?$allocator@D@2@@std@@UskinInfo@@@std@@@2@$0A@@std@@@std@@QAE?AV?$_List_iterator@V?$_List_val@U?$_List_simple_types@U?$pair@$$CBV?$basic_string@DU?$char_traits@D@std@@V?$allocator@D@2@@std@@UskinInfo@@@std@@@std@@@std@@@1@V21@@Z 10025680 f i Hooks.obj
 0001:00024730       ??$erase@V?$_List_iterator@V?$_List_val@U?$_List_simple_types@U?$pair@$$CBV?$basic_string@DU?$char_traits@D@std@@V?$allocator@D@2@@std@@V12@@std@@@std@@@std@@@std@@X@?$_Hash@V?$_Umap_traits@V?$basic_string@DU?$char_traits@D@std@@V?$allocator@D@2@@std@@V12@V?$_Uhash_compare@V?$basic_string@DU?$char_traits@D@std@@V?$allocator@D@2@@std@@U?$hash@V?$basic_string@DU?$char_traits@D@std@@V?$allocator@D@2@@std@@@2@U?$equal_to@V?$basic_string@DU?$char_traits@D@std@@V?$allocator@D@2@@std@@@2@@2@V?$allocator@U?$pair@$$CBV?$basic_string@DU?$char_traits@D@std@@V?$allocator@D@2@@std@@V12@@std@@@2@$0A@@std@@@std@@QAE?AV?$_List_iterator@V?$_List_val@U?$_List_simple_types@U?$pair@$$CBV?$basic_string@DU?$char_traits@D@std@@V?$allocator@D@2@@std@@V12@@std@@@std@@@std@@@1@V21@@Z 10025730 f i Hooks.obj
 0001:000247e0       ??$erase@V?$_List_iterator@V?$_List_val@U?$_List_simple_types@U?$pair@$$CBV?$basic_string@DU?$char_traits@D@std@@V?$allocator@D@2@@std@@V?$set@V?$basic_string@DU?$char_traits@D@std@@V?$allocator@D@2@@std@@U?$less@V?$basic_string@DU?$char_traits@D@std@@V?$allocator@D@2@@std@@@2@V?$allocator@V?$basic_string@DU?$char_traits@D@std@@V?$allocator@D@2@@std@@@2@@2@@std@@@std@@@std@@@std@@X@?$_Hash@V?$_Umap_traits@V?$basic_string@DU?$char_traits@D@std@@V?$allocator@D@2@@std@@V?$set@V?$basic_string@DU?$char_traits@D@std@@V?$allocator@D@2@@std@@U?$less@V?$basic_string@DU?$char_traits@D@std@@V?$allocator@D@2@@std@@@2@V?$allocator@V?$basic_string@DU?$char_traits@D@std@@V?$allocator@D@2@@std@@@2@@2@V?$_Uhash_compare@V?$basic_string@DU?$char_traits@D@std@@V?$allocator@D@2@@std@@U?$hash@V?$basic_string@DU?$char_traits@D@std@@V?$allocator@D@2@@std@@@2@U?$equal_to@V?$basic_string@DU?$char_traits@D@std@@V?$allocator@D@2@@std@@@2@@2@V?$allocator@U?$pair@$$CBV?$basic_string@DU?$char_traits@D@std@@V?$allocator@D@2@@std@@V?$set@V?$basic_string@DU?$char_traits@D@std@@V?$allocator@D@2@@std@@U?$less@V?$basic_string@DU?$char_traits@D@std@@V?$allocator@D@2@@std@@@2@V?$allocator@V?$basic_string@DU?$char_traits@D@std@@V?$allocator@D@2@@std@@@2@@2@@std@@@2@$0A@@std@@@std@@QAE?AV?$_List_iterator@V?$_List_val@U?$_List_simple_types@U?$pair@$$CBV?$basic_string@DU?$char_traits@D@std@@V?$allocator@D@2@@std@@V?$set@V?$basic_string@DU?$char_traits@D@std@@V?$allocator@D@2@@std@@U?$less@V?$basic_string@DU?$char_traits@D@std@@V?$allocator@D@2@@std@@@2@V?$allocator@V?$basic_string@DU?$char_traits@D@std@@V?$allocator@D@2@@std@@@2@@2@@std@@@std@@@std@@@1@V21@@Z 100257e0 f i Hooks.obj
 0001:00024890       ??$transform@V?$_String_iterator@V?$_String_val@U?$_Simple_types@D@std@@@std@@@std@@V12@P6AGG@Z@std@@YA?AV?$_String_iterator@V?$_String_val@U?$_Simple_types@D@std@@@std@@@0@V10@00P6AGG@Z@Z 10025890 f i Hooks.obj
 0001:000248e0       ??0?$basic_string@DU?$char_traits@D@std@@V?$allocator@D@2@@std@@QAE@XZ 100258e0 f i Hooks.obj
 0001:00024900       ??0exception@std@@QAE@ABV01@@Z 10025900 f i Hooks.obj
 0001:00024930       ??0runtime_error@std@@QAE@ABV01@@Z 10025930 f i Hooks.obj
 0001:00024970       ??0runtime_error@std@@QAE@PBD@Z 10025970 f i Hooks.obj
 0001:000249c0       ??1?$deque@V?$shared_ptr@VNode@valve_parser@@@std@@V?$allocator@V?$shared_ptr@VNode@valve_parser@@@std@@@2@@std@@QAE@XZ 100259c0 f i Hooks.obj
 0001:00024ab0       ??1?$list@U?$pair@QADPAD@std@@V?$allocator@U?$pair@QADPAD@std@@@2@@std@@QAE@XZ 10025ab0 f i Hooks.obj
 0001:00024af0       ??1?$pair@$$CBV?$basic_string@DU?$char_traits@D@std@@V?$allocator@D@2@@std@@UskinInfo@@@std@@QAE@XZ 10025af0 f i Hooks.obj
 0001:00024b90       ??1?$pair@$$CBV?$basic_string@DU?$char_traits@D@std@@V?$allocator@D@2@@std@@V12@@std@@QAE@XZ 10025b90 f i Hooks.obj
 0001:00024c30       ??1?$pair@$$CBV?$basic_string@DU?$char_traits@D@std@@V?$allocator@D@2@@std@@V?$set@V?$basic_string@DU?$char_traits@D@std@@V?$allocator@D@2@@std@@U?$less@V?$basic_string@DU?$char_traits@D@std@@V?$allocator@D@2@@std@@@2@V?$allocator@V?$basic_string@DU?$char_traits@D@std@@V?$allocator@D@2@@std@@@2@@2@@std@@QAE@XZ 10025c30 f i Hooks.obj
 0001:00024d00       ??1Document@valve_parser@@QAE@XZ 10025d00 f i Hooks.obj
 0001:00024d50       ??1skinInfo@@QAE@XZ        10025d50 f i Hooks.obj
 0001:00024db0       ??3@YAXPAX0@Z              10025db0 f i Hooks.obj
 0001:00024db0       ?_Orphan_all@?$_String_alloc@U?$_String_base_types@DV?$allocator@D@std@@@std@@@std@@QAEXXZ 10025db0 f i Misc.obj
 0001:00024db0       ?_Unlock@?$basic_streambuf@DU?$char_traits@D@std@@@std@@UAEXXZ 10025db0 f i Utilities.obj
 0001:00024db0       ??3@YAXPAXUImPlacementNewDummy@@0@Z 10025db0 f i imgui.obj
 0001:00024db0       ??1legitbot@@QAE@XZ        10025db0 f i Hooks.obj
 0001:00024db0       ??1misc@@QAE@XZ            10025db0 f i Hooks.obj
 0001:00024db0       ??1?$_String_alloc@U?$_String_base_types@DV?$allocator@D@std@@@std@@@std@@QAE@XZ 10025db0 f i Misc.obj
 0001:00024db0       ??1visuals@@QAE@XZ         10025db0 f i Hooks.obj
 0001:00024db0       ?_Lock@?$basic_streambuf@DU?$char_traits@D@std@@@std@@UAEXXZ 10025db0 f i Utilities.obj
 0001:00024db0       @_guard_check_icall_nop@4  10025db0 f i LIBCMT:guard_support.obj
 0001:00024db0       ??1ragebot@@QAE@XZ         10025db0 f i Hooks.obj
 0001:00024dc0       ??4?$basic_string@DU?$char_traits@D@std@@V?$allocator@D@2@@std@@QAEAAV01@QBD@Z 10025dc0 f i Hooks.obj
 0001:00024dc0       ?assign@?$basic_string@DU?$char_traits@D@std@@V?$allocator@D@2@@std@@QAEAAV12@QBD@Z 10025dc0 f i Configuration.obj
 0001:00024df0       ??A?$unordered_map@V?$basic_string@DU?$char_traits@D@std@@V?$allocator@D@2@@std@@UskinInfo@@U?$hash@V?$basic_string@DU?$char_traits@D@std@@V?$allocator@D@2@@std@@@2@U?$equal_to@V?$basic_string@DU?$char_traits@D@std@@V?$allocator@D@2@@std@@@2@V?$allocator@U?$pair@$$CBV?$basic_string@DU?$char_traits@D@std@@V?$allocator@D@2@@std@@UskinInfo@@@std@@@2@@std@@QAEAAUskinInfo@@ABV?$basic_string@DU?$char_traits@D@std@@V?$allocator@D@2@@1@@Z 10025df0 f i Hooks.obj
 0001:00024e10       ??A?$unordered_map@V?$basic_string@DU?$char_traits@D@std@@V?$allocator@D@2@@std@@V12@U?$hash@V?$basic_string@DU?$char_traits@D@std@@V?$allocator@D@2@@std@@@2@U?$equal_to@V?$basic_string@DU?$char_traits@D@std@@V?$allocator@D@2@@std@@@2@V?$allocator@U?$pair@$$CBV?$basic_string@DU?$char_traits@D@std@@V?$allocator@D@2@@std@@V12@@std@@@2@@std@@QAEAAV?$basic_string@DU?$char_traits@D@std@@V?$allocator@D@2@@1@ABV21@@Z 10025e10 f i Hooks.obj
 0001:00024e30       ??A?$unordered_map@V?$basic_string@DU?$char_traits@D@std@@V?$allocator@D@2@@std@@V?$set@V?$basic_string@DU?$char_traits@D@std@@V?$allocator@D@2@@std@@U?$less@V?$basic_string@DU?$char_traits@D@std@@V?$allocator@D@2@@std@@@2@V?$allocator@V?$basic_string@DU?$char_traits@D@std@@V?$allocator@D@2@@std@@@2@@2@U?$hash@V?$basic_string@DU?$char_traits@D@std@@V?$allocator@D@2@@std@@@2@U?$equal_to@V?$basic_string@DU?$char_traits@D@std@@V?$allocator@D@2@@std@@@2@V?$allocator@U?$pair@$$CBV?$basic_string@DU?$char_traits@D@std@@V?$allocator@D@2@@std@@V?$set@V?$basic_string@DU?$char_traits@D@std@@V?$allocator@D@2@@std@@U?$less@V?$basic_string@DU?$char_traits@D@std@@V?$allocator@D@2@@std@@@2@V?$allocator@V?$basic_string@DU?$char_traits@D@std@@V?$allocator@D@2@@std@@@2@@2@@std@@@2@@std@@QAEAAV?$set@V?$basic_string@DU?$char_traits@D@std@@V?$allocator@D@2@@std@@U?$less@V?$basic_string@DU?$char_traits@D@std@@V?$allocator@D@2@@std@@@2@V?$allocator@V?$basic_string@DU?$char_traits@D@std@@V?$allocator@D@2@@std@@@2@@1@ABV?$basic_string@DU?$char_traits@D@std@@V?$allocator@D@2@@1@@Z 10025e30 f i Hooks.obj
 0001:00024e50       ??_E?$_Ref_count_obj@VNode@valve_parser@@@std@@UAEPAXI@Z 10025e50 f i Hooks.obj
 0001:00024e50       ??_G?$_Ref_count_obj@VNode@valve_parser@@@std@@UAEPAXI@Z 10025e50 f i Hooks.obj
 0001:00024e80       ??_GIGameEventListener2@@UAEPAXI@Z 10025e80 f i Hooks.obj
 0001:00024e80       ??_Eitem_purchase_listener@item_purchase@@UAEPAXI@Z 10025e80 f i Hooks.obj
 0001:00024e80       ??_EIGameEventListener2@@UAEPAXI@Z 10025e80 f i Hooks.obj
 0001:00024e80       ??_Gitem_purchase_listener@item_purchase@@UAEPAXI@Z 10025e80 f i Hooks.obj
 0001:00024eb0       ??_Eexception@std@@UAEPAXI@Z 10025eb0 f i Hooks.obj
 0001:00024eb0       ??_Gexception@std@@UAEPAXI@Z 10025eb0 f i Hooks.obj
 0001:00024eb0       ??_Eruntime_error@std@@UAEPAXI@Z 10025eb0 f i Hooks.obj
 0001:00024eb0       ??_Gruntime_error@std@@UAEPAXI@Z 10025eb0 f i Hooks.obj
 0001:00024ee0       ?AddLog@AppLog@@QAAXPBDZZ  10025ee0 f i Hooks.obj
 0001:00024fb0       ?BreadthFirstSearch@Document@valve_parser@@QAE?AV?$shared_ptr@VNode@valve_parser@@@std@@PAD_N@Z 10025fb0 f i Hooks.obj
 0001:000253e0       ?BreadthFirstSearchMultiple@Document@valve_parser@@QAE?AV?$vector@V?$shared_ptr@VNode@valve_parser@@@std@@V?$allocator@V?$shared_ptr@VNode@valve_parser@@@std@@@2@@std@@PAD_N@Z 100263e0 f i Hooks.obj
 0001:00025ae0       ?CHLCreateMove@@YGXHM_NAA_N@Z 10026ae0 f   Hooks.obj
 0001:00026480       ?ClientCmd_Unrestricted@IVEngineClient@@QAEXPBD@Z 10027480 f i Hooks.obj
 0001:000264a0       ?Contains@@YA_NABV?$basic_string@DU?$char_traits@D@std@@V?$allocator@D@2@@std@@0@Z 100274a0 f   Hooks.obj
 0001:000264f0       ?FireGameEvent@item_purchase_listener@item_purchase@@UAEXPAVIGameEvent@@@Z 100274f0 f i Hooks.obj
 0001:00026510       ?FullUpdate@@YAXXZ         10027510 f   Hooks.obj
 0001:000265d0       ?GetChecksum@CUserCmd@CInput@@QBEKXZ 100275d0 f i Hooks.obj
 0001:000279e0       ?GetCurrentKnifeModel@@YAHH@Z 100289e0 f   Hooks.obj
 0001:00027b10       ?GetCurrentMaterial@@YAPAVIMaterial@@H@Z 10028b10 f   Hooks.obj
 0001:00027b90       ?GetEventDebugID@item_purchase_listener@item_purchase@@UAEHXZ 10028b90 f i Hooks.obj
 0001:00027ba0       ?GetGloveSkinByMenu@@YAHHH@Z 10028ba0 f   Hooks.obj
 0001:00027d40       ?GetKnifeDefinitionIndex@@YAHH@Z 10028d40 f   Hooks.obj
 0001:00027dd0       ?GloveChanger@@YAXXZ       10028dd0 f   Hooks.obj
 0001:00028560       ?Load@Document@valve_parser@@QAE_NPADW4ENCODING@2@@Z 10029560 f i Hooks.obj
 0001:00028a80       ?ParseSkins@@YAHXZ         10029a80 f   Hooks.obj
 0001:00029d90       ?RenderDefault@@YAXPAUIDirect3DDevice9@@@Z 1002ad90 f   Hooks.obj
 0001:0002a220       ?RenderInterface@@YAXXZ    1002b220 f   Hooks.obj
 0001:00031c90       ?Resolver3@@YAXXZ          10032c90 f   Hooks.obj
 0001:00032170       ?SkinChanger@@YAXXZ        10033170 f   Hooks.obj
 0001:00032340       ?StrEqu@Util@valve_parser@@SA_NVStr@2@PAD@Z 10033340 f i Hooks.obj
 0001:00032490       ?StrEquI@Util@valve_parser@@SA_NVStr@2@PAD@Z 10033490 f i Hooks.obj
 0001:00032530       ?ToLower@@YA?AV?$basic_string@DU?$char_traits@D@std@@V?$allocator@D@2@@std@@V12@@Z 10033530 f   Hooks.obj
 0001:00032600       ?_Buyheadnode@?$_Tree_comp_alloc@V?$_Tset_traits@V?$basic_string@DU?$char_traits@D@std@@V?$allocator@D@2@@std@@U?$less@V?$basic_string@DU?$char_traits@D@std@@V?$allocator@D@2@@std@@@2@V?$allocator@V?$basic_string@DU?$char_traits@D@std@@V?$allocator@D@2@@std@@@2@$0A@@std@@@std@@QAEPAU?$_Tree_node@V?$basic_string@DU?$char_traits@D@std@@V?$allocator@D@2@@std@@PAX@2@XZ 10033600 f i Hooks.obj
 0001:00032630       ?_Buynode0@?$_List_alloc@U?$_List_base_types@U?$pair@QADPAD@std@@V?$allocator@U?$pair@QADPAD@std@@@2@@std@@@std@@QAEPAU?$_List_node@U?$pair@QADPAD@std@@PAX@2@PAU32@0@Z 10033630 f i Hooks.obj
 0001:00032670       ?_Buynode0@?$_Tree_comp_alloc@V?$_Tset_traits@V?$basic_string@DU?$char_traits@D@std@@V?$allocator@D@2@@std@@U?$less@V?$basic_string@DU?$char_traits@D@std@@V?$allocator@D@2@@std@@@2@V?$allocator@V?$basic_string@DU?$char_traits@D@std@@V?$allocator@D@2@@std@@@2@$0A@@std@@@std@@QAEPAU?$_Tree_node@V?$basic_string@DU?$char_traits@D@std@@V?$allocator@D@2@@std@@PAX@2@XZ 10033670 f i Hooks.obj
 0001:000326a0       ?_Growmap@?$deque@V?$shared_ptr@VNode@valve_parser@@@std@@V?$allocator@V?$shared_ptr@VNode@valve_parser@@@std@@@2@@std@@IAEXI@Z 100336a0 f i Hooks.obj
 0001:00032840       ?_Lrotate@?$_Tree@V?$_Tset_traits@V?$basic_string@DU?$char_traits@D@std@@V?$allocator@D@2@@std@@U?$less@V?$basic_string@DU?$char_traits@D@std@@V?$allocator@D@2@@std@@@2@V?$allocator@V?$basic_string@DU?$char_traits@D@std@@V?$allocator@D@2@@std@@@2@$0A@@std@@@std@@IAEXPAU?$_Tree_node@V?$basic_string@DU?$char_traits@D@std@@V?$allocator@D@2@@std@@PAX@2@@Z 10033840 f i Hooks.obj
 0001:00032840       ?_Lrotate@?$_Tree@V?$_Tmap_traits@W4ItemDefinitionIndexx@@UDefItem_t@@U?$less@W4ItemDefinitionIndexx@@@std@@V?$allocator@U?$pair@$$CBW4ItemDefinitionIndexx@@UDefItem_t@@@std@@@4@$0A@@std@@@std@@IAEXPAU?$_Tree_node@U?$pair@$$CBW4ItemDefinitionIndexx@@UDefItem_t@@@std@@PAX@2@@Z 10033840 f i recvproxy.obj
 0001:000328a0       ?_Make_iter@?$_Hash@V?$_Umap_traits@V?$basic_string@DU?$char_traits@D@std@@V?$allocator@D@2@@std@@V12@V?$_Uhash_compare@V?$basic_string@DU?$char_traits@D@std@@V?$allocator@D@2@@std@@U?$hash@V?$basic_string@DU?$char_traits@D@std@@V?$allocator@D@2@@std@@@2@U?$equal_to@V?$basic_string@DU?$char_traits@D@std@@V?$allocator@D@2@@std@@@2@@2@V?$allocator@U?$pair@$$CBV?$basic_string@DU?$char_traits@D@std@@V?$allocator@D@2@@std@@V12@@std@@@2@$0A@@std@@@std@@QBE?AV?$_List_iterator@V?$_List_val@U?$_List_simple_types@U?$pair@$$CBV?$basic_string@DU?$char_traits@D@std@@V?$allocator@D@2@@std@@V12@@std@@@std@@@std@@@2@V?$_List_unchecked_const_iterator@V?$_List_val@U?$_List_simple_types@U?$pair@$$CBV?$basic_string@DU?$char_traits@D@std@@V?$allocator@D@2@@std@@V12@@std@@@std@@@std@@U_Iterator_base0@2@@2@@Z 100338a0 f i Hooks.obj
 0001:000328a0       ?_Make_iter@?$_Hash@V?$_Umap_traits@V?$basic_string@DU?$char_traits@D@std@@V?$allocator@D@2@@std@@V?$set@V?$basic_string@DU?$char_traits@D@std@@V?$allocator@D@2@@std@@U?$less@V?$basic_string@DU?$char_traits@D@std@@V?$allocator@D@2@@std@@@2@V?$allocator@V?$basic_string@DU?$char_traits@D@std@@V?$allocator@D@2@@std@@@2@@2@V?$_Uhash_compare@V?$basic_string@DU?$char_traits@D@std@@V?$allocator@D@2@@std@@U?$hash@V?$basic_string@DU?$char_traits@D@std@@V?$allocator@D@2@@std@@@2@U?$equal_to@V?$basic_string@DU?$char_traits@D@std@@V?$allocator@D@2@@std@@@2@@2@V?$allocator@U?$pair@$$CBV?$basic_string@DU?$char_traits@D@std@@V?$allocator@D@2@@std@@V?$set@V?$basic_string@DU?$char_traits@D@std@@V?$allocator@D@2@@std@@U?$less@V?$basic_string@DU?$char_traits@D@std@@V?$allocator@D@2@@std@@@2@V?$allocator@V?$basic_string@DU?$char_traits@D@std@@V?$allocator@D@2@@std@@@2@@2@@std@@@2@$0A@@std@@@std@@QBE?AV?$_List_iterator@V?$_List_val@U?$_List_simple_types@U?$pair@$$CBV?$basic_string@DU?$char_traits@D@std@@V?$allocator@D@2@@std@@V?$set@V?$basic_string@DU?$char_traits@D@std@@V?$allocator@D@2@@std@@U?$less@V?$basic_string@DU?$char_traits@D@std@@V?$allocator@D@2@@std@@@2@V?$allocator@V?$basic_string@DU?$char_traits@D@std@@V?$allocator@D@2@@std@@@2@@2@@std@@@std@@@std@@@2@V?$_List_unchecked_const_iterator@V?$_List_val@U?$_List_simple_types@U?$pair@$$CBV?$basic_string@DU?$char_traits@D@std@@V?$allocator@D@2@@std@@V?$set@V?$basic_string@DU?$char_traits@D@std@@V?$allocator@D@2@@std@@U?$less@V?$basic_string@DU?$char_traits@D@std@@V?$allocator@D@2@@std@@@2@V?$allocator@V?$basic_string@DU?$char_traits@D@std@@V?$allocator@D@2@@std@@@2@@2@@std@@@std@@@std@@U_Iterator_base0@2@@2@@Z 100338a0 f i Hooks.obj
 0001:000328a0       ?_Make_iter@?$_Hash@V?$_Umap_traits@V?$basic_string@DU?$char_traits@D@std@@V?$allocator@D@2@@std@@UskinInfo@@V?$_Uhash_compare@V?$basic_string@DU?$char_traits@D@std@@V?$allocator@D@2@@std@@U?$hash@V?$basic_string@DU?$char_traits@D@std@@V?$allocator@D@2@@std@@@2@U?$equal_to@V?$basic_string@DU?$char_traits@D@std@@V?$allocator@D@2@@std@@@2@@2@V?$allocator@U?$pair@$$CBV?$basic_string@DU?$char_traits@D@std@@V?$allocator@D@2@@std@@UskinInfo@@@std@@@2@$0A@@std@@@std@@QBE?AV?$_List_iterator@V?$_List_val@U?$_List_simple_types@U?$pair@$$CBV?$basic_string@DU?$char_traits@D@std@@V?$allocator@D@2@@std@@UskinInfo@@@std@@@std@@@std@@@2@V?$_List_unchecked_const_iterator@V?$_List_val@U?$_List_simple_types@U?$pair@$$CBV?$basic_string@DU?$char_traits@D@std@@V?$allocator@D@2@@std@@UskinInfo@@@std@@@std@@@std@@U_Iterator_base0@2@@2@@Z 100338a0 f i Hooks.obj
 0001:000328b0       ?_Reallocate_exactly@?$vector@V?$_List_unchecked_iterator@V?$_List_val@U?$_List_simple_types@U?$pair@QADPAD@std@@@std@@@std@@@std@@V?$allocator@V?$_List_unchecked_iterator@V?$_List_val@U?$_List_simple_types@U?$pair@QADPAD@std@@@std@@@std@@@std@@@2@@std@@AAEXI@Z 100338b0 f i Hooks.obj
 0001:000328b0       ?_Reallocate_exactly@?$vector@V?$_List_unchecked_iterator@V?$_List_val@U?$_List_simple_types@U?$pair@$$CBV?$basic_string@DU?$char_traits@D@std@@V?$allocator@D@2@@std@@UskinInfo@@@std@@@std@@@std@@@std@@V?$allocator@V?$_List_unchecked_iterator@V?$_List_val@U?$_List_simple_types@U?$pair@$$CBV?$basic_string@DU?$char_traits@D@std@@V?$allocator@D@2@@std@@UskinInfo@@@std@@@std@@@std@@@std@@@2@@std@@AAEXI@Z 100338b0 f i Configuration.obj
 0001:000328b0       ?_Reallocate_exactly@?$vector@V?$_List_unchecked_iterator@V?$_List_val@U?$_List_simple_types@U?$pair@$$CBV?$basic_string@DU?$char_traits@D@std@@V?$allocator@D@2@@std@@V12@@std@@@std@@@std@@@std@@V?$allocator@V?$_List_unchecked_iterator@V?$_List_val@U?$_List_simple_types@U?$pair@$$CBV?$basic_string@DU?$char_traits@D@std@@V?$allocator@D@2@@std@@V12@@std@@@std@@@std@@@std@@@2@@std@@AAEXI@Z 100338b0 f i Configuration.obj
 0001:000328b0       ?_Reallocate_exactly@?$vector@V?$_List_unchecked_iterator@V?$_List_val@U?$_List_simple_types@U?$pair@$$CBV?$basic_string@DU?$char_traits@D@std@@V?$allocator@D@2@@std@@V?$set@V?$basic_string@DU?$char_traits@D@std@@V?$allocator@D@2@@std@@U?$less@V?$basic_string@DU?$char_traits@D@std@@V?$allocator@D@2@@std@@@2@V?$allocator@V?$basic_string@DU?$char_traits@D@std@@V?$allocator@D@2@@std@@@2@@2@@std@@@std@@@std@@@std@@V?$allocator@V?$_List_unchecked_iterator@V?$_List_val@U?$_List_simple_types@U?$pair@$$CBV?$basic_string@DU?$char_traits@D@std@@V?$allocator@D@2@@std@@V?$set@V?$basic_string@DU?$char_traits@D@std@@V?$allocator@D@2@@std@@U?$less@V?$basic_string@DU?$char_traits@D@std@@V?$allocator@D@2@@std@@@2@V?$allocator@V?$basic_string@DU?$char_traits@D@std@@V?$allocator@D@2@@std@@@2@@2@@std@@@std@@@std@@@std@@@2@@std@@AAEXI@Z 100338b0 f i Configuration.obj
 0001:000329a0       ?_Tidy@?$vector@V?$basic_string@DU?$char_traits@D@std@@V?$allocator@D@2@@std@@V?$allocator@V?$basic_string@DU?$char_traits@D@std@@V?$allocator@D@2@@std@@@2@@std@@AAEXXZ 100339a0 f i Hooks.obj
 0001:00032a30       ?_Xlen@?$deque@V?$shared_ptr@VNode@valve_parser@@@std@@V?$allocator@V?$shared_ptr@VNode@valve_parser@@@std@@@2@@std@@IBEXXZ 10033a30 f i Hooks.obj
 0001:00032a40       ?allocate@?$allocator@V?$_List_unchecked_iterator@V?$_List_val@U?$_List_simple_types@U?$pair@$$CBV?$basic_string@DU?$char_traits@D@std@@V?$allocator@D@2@@std@@V?$set@V?$basic_string@DU?$char_traits@D@std@@V?$allocator@D@2@@std@@U?$less@V?$basic_string@DU?$char_traits@D@std@@V?$allocator@D@2@@std@@@2@V?$allocator@V?$basic_string@DU?$char_traits@D@std@@V?$allocator@D@2@@std@@@2@@2@@std@@@std@@@std@@@std@@@std@@QAEPAV?$_List_unchecked_iterator@V?$_List_val@U?$_List_simple_types@U?$pair@$$CBV?$basic_string@DU?$char_traits@D@std@@V?$allocator@D@2@@std@@V?$set@V?$basic_string@DU?$char_traits@D@std@@V?$allocator@D@2@@std@@U?$less@V?$basic_string@DU?$char_traits@D@std@@V?$allocator@D@2@@std@@@2@V?$allocator@V?$basic_string@DU?$char_traits@D@std@@V?$allocator@D@2@@std@@@2@@2@@std@@@std@@@std@@@2@I@Z 10033a40 f i Configuration.obj
 0001:00032a40       ?allocate@?$allocator@H@std@@QAEPAHI@Z 10033a40 f i RageBot.obj
 0001:00032a40       ?allocate@?$allocator@V?$_List_unchecked_iterator@V?$_List_val@U?$_List_simple_types@U?$pair@$$CBV?$basic_string@DU?$char_traits@D@std@@V?$allocator@D@2@@std@@V12@@std@@@std@@@std@@@std@@@std@@QAEPAV?$_List_unchecked_iterator@V?$_List_val@U?$_List_simple_types@U?$pair@$$CBV?$basic_string@DU?$char_traits@D@std@@V?$allocator@D@2@@std@@V12@@std@@@std@@@std@@@2@I@Z 10033a40 f i Configuration.obj
 0001:00032a40       ?allocate@?$allocator@V?$_List_unchecked_iterator@V?$_List_val@U?$_List_simple_types@U?$pair@QADPAD@std@@@std@@@std@@@std@@@std@@QAEPAV?$_List_unchecked_iterator@V?$_List_val@U?$_List_simple_types@U?$pair@QADPAD@std@@@std@@@std@@@2@I@Z 10033a40 f i Hooks.obj
 0001:00032a40       ?allocate@?$allocator@V?$_List_unchecked_iterator@V?$_List_val@U?$_List_simple_types@U?$pair@$$CBV?$basic_string@DU?$char_traits@D@std@@V?$allocator@D@2@@std@@UskinInfo@@@std@@@std@@@std@@@std@@@std@@QAEPAV?$_List_unchecked_iterator@V?$_List_val@U?$_List_simple_types@U?$pair@$$CBV?$basic_string@DU?$char_traits@D@std@@V?$allocator@D@2@@std@@UskinInfo@@@std@@@std@@@std@@@2@I@Z 10033a40 f i Configuration.obj
 0001:00032ab0       ?at@?$map@W4ItemDefinitionIndexx@@UDefItem_t@@U?$less@W4ItemDefinitionIndexx@@@std@@V?$allocator@U?$pair@$$CBW4ItemDefinitionIndexx@@UDefItem_t@@@std@@@4@@std@@QBEABUDefItem_t@@ABW4ItemDefinitionIndexx@@@Z 10033ab0 f i Hooks.obj
 0001:00032b00       ?c_str@?$basic_string@DU?$char_traits@D@std@@V?$allocator@D@2@@std@@QBEPBDXZ 10033b00 f i Hooks.obj
 0001:00032b10       ?cleanup@hooks@@YAXXZ      10033b10 f   Hooks.obj
 0001:00032bb0       ?cnv_to_utf32@Document@valve_parser@@AAEXPADW4ENCODING@2@@Z 10033bb0 f i Hooks.obj
 0001:00032ec0       ?cnv_utf8@Document@valve_parser@@AAEXPAD@Z 10033ec0 f i Hooks.obj
 0001:00033010       ?deallocate@?$allocator@V?$_List_unchecked_iterator@V?$_List_val@U?$_List_simple_types@U?$pair@$$CBV?$basic_string@DU?$char_traits@D@std@@V?$allocator@D@2@@std@@V?$set@V?$basic_string@DU?$char_traits@D@std@@V?$allocator@D@2@@std@@U?$less@V?$basic_string@DU?$char_traits@D@std@@V?$allocator@D@2@@std@@@2@V?$allocator@V?$basic_string@DU?$char_traits@D@std@@V?$allocator@D@2@@std@@@2@@2@@std@@@std@@@std@@@std@@@std@@QAEXQAV?$_List_unchecked_iterator@V?$_List_val@U?$_List_simple_types@U?$pair@$$CBV?$basic_string@DU?$char_traits@D@std@@V?$allocator@D@2@@std@@V?$set@V?$basic_string@DU?$char_traits@D@std@@V?$allocator@D@2@@std@@U?$less@V?$basic_string@DU?$char_traits@D@std@@V?$allocator@D@2@@std@@@2@V?$allocator@V?$basic_string@DU?$char_traits@D@std@@V?$allocator@D@2@@std@@@2@@2@@std@@@std@@@std@@@2@I@Z 10034010 f i Configuration.obj
 0001:00033010       ?deallocate@?$allocator@V?$_List_unchecked_iterator@V?$_List_val@U?$_List_simple_types@U?$pair@$$CBV?$basic_string@DU?$char_traits@D@std@@V?$allocator@D@2@@std@@UskinInfo@@@std@@@std@@@std@@@std@@@std@@QAEXQAV?$_List_unchecked_iterator@V?$_List_val@U?$_List_simple_types@U?$pair@$$CBV?$basic_string@DU?$char_traits@D@std@@V?$allocator@D@2@@std@@UskinInfo@@@std@@@std@@@std@@@2@I@Z 10034010 f i Configuration.obj
 0001:00033010       ?deallocate@?$allocator@V?$_List_unchecked_iterator@V?$_List_val@U?$_List_simple_types@U?$pair@QADPAD@std@@@std@@@std@@@std@@@std@@QAEXQAV?$_List_unchecked_iterator@V?$_List_val@U?$_List_simple_types@U?$pair@QADPAD@std@@@std@@@std@@@2@I@Z 10034010 f i Hooks.obj
 0001:00033010       ?deallocate@?$allocator@PAV?$shared_ptr@VNode@valve_parser@@@std@@@std@@QAEXQAPAV?$shared_ptr@VNode@valve_parser@@@2@I@Z 10034010 f i Hooks.obj
 0001:00033010       ?deallocate@?$allocator@V?$_List_unchecked_iterator@V?$_List_val@U?$_List_simple_types@U?$pair@$$CBV?$basic_string@DU?$char_traits@D@std@@V?$allocator@D@2@@std@@V12@@std@@@std@@@std@@@std@@@std@@QAEXQAV?$_List_unchecked_iterator@V?$_List_val@U?$_List_simple_types@U?$pair@$$CBV?$basic_string@DU?$char_traits@D@std@@V?$allocator@D@2@@std@@V12@@std@@@std@@@std@@@2@I@Z 10034010 f i Configuration.obj
 0001:00033060       ?deallocate@?$allocator@U?$_List_node@U?$pair@$$CBV?$basic_string@DU?$char_traits@D@std@@V?$allocator@D@2@@std@@UskinInfo@@@std@@PAX@std@@@std@@QAEXQAU?$_List_node@U?$pair@$$CBV?$basic_string@DU?$char_traits@D@std@@V?$allocator@D@2@@std@@UskinInfo@@@std@@PAX@2@I@Z 10034060 f i Hooks.obj
 0001:000330b0       ?deallocate@?$allocator@U?$_List_node@U?$pair@$$CBV?$basic_string@DU?$char_traits@D@std@@V?$allocator@D@2@@std@@V12@@std@@PAX@std@@@std@@QAEXQAU?$_List_node@U?$pair@$$CBV?$basic_string@DU?$char_traits@D@std@@V?$allocator@D@2@@std@@V12@@std@@PAX@2@I@Z 100340b0 f i Hooks.obj
 0001:00033110       ?deallocate@?$allocator@U?$_List_node@U?$pair@$$CBV?$basic_string@DU?$char_traits@D@std@@V?$allocator@D@2@@std@@V?$set@V?$basic_string@DU?$char_traits@D@std@@V?$allocator@D@2@@std@@U?$less@V?$basic_string@DU?$char_traits@D@std@@V?$allocator@D@2@@std@@@2@V?$allocator@V?$basic_string@DU?$char_traits@D@std@@V?$allocator@D@2@@std@@@2@@2@@std@@PAX@std@@@std@@QAEXQAU?$_List_node@U?$pair@$$CBV?$basic_string@DU?$char_traits@D@std@@V?$allocator@D@2@@std@@V?$set@V?$basic_string@DU?$char_traits@D@std@@V?$allocator@D@2@@std@@U?$less@V?$basic_string@DU?$char_traits@D@std@@V?$allocator@D@2@@std@@@2@V?$allocator@V?$basic_string@DU?$char_traits@D@std@@V?$allocator@D@2@@std@@@2@@2@@std@@PAX@2@I@Z 10034110 f i Hooks.obj
 0001:00033160       ?hkCreateMove@@YGXHM_N@Z   10034160 f   Hooks.obj
 0001:00033180       ?hkDoPostScreenSpaceEffects@@YI_NPAX0PAUCViewSetup@@@Z 10034180 f   Hooks.obj
 0001:000334b0       ?hkDrawModelExecute@@YIXPAXH00ABUModelRenderInfo_t@@PAY123M@Z 100344b0 f   Hooks.obj
 0001:00033e70       ?hkFrameStageNotify@@YGXW4ClientFrameStage_t@@@Z 10034e70 f   Hooks.obj
 0001:00033ff0       ?hkGetViewModelFOV@@YIMPAX0@Z 10034ff0 f   Hooks.obj
 0001:00034060       ?hkOverrideView@@YIXPAX0PAUCViewSetup@@@Z 10035060 f   Hooks.obj
 0001:00034260       ?hkPaintTraverse@@YIXPAXHI_N1@Z 10035260 f   Hooks.obj
 0001:00034920       ?hkPlaySound@@YGXPBD@Z     10035920 f   Hooks.obj
 0001:00034a40       ?hkPresent@@YGJPAUIDirect3DDevice9@@PAUtagRECT@@1PAUHWND__@@PAU_RGNDATA@@@Z 10035a40 f   Hooks.obj
 0001:00034b60       ?hkReset@@YGJPAUIDirect3DDevice9@@PAU_D3DPRESENT_PARAMETERS_@@@Z 10035b60 f   Hooks.obj
 0001:00034be0       ?hkSvCheatsGetBool@@YI_NPAX0@Z 10035be0 f   Hooks.obj
 0001:00034c60       ?initialize@hooks@@YAXXZ   10035c60 f   Hooks.obj
 0001:00034df0       ?instance@?$singleton@Vgrenade_prediction@@@@SAAAVgrenade_prediction@@XZ 10035df0 f i Hooks.obj
 0001:00034e70       ?on_fire_event@item_purchase@@QAEXPAVIGameEvent@@_N@Z 10035e70 f i Hooks.obj
 0001:00035580       ?push_back@?$ImVector@D@@QAEXABD@Z 10036580 f i Hooks.obj
 0001:00035600       ?push_back@?$deque@V?$shared_ptr@VNode@valve_parser@@@std@@V?$allocator@V?$shared_ptr@VNode@valve_parser@@@std@@@2@@std@@QAEXABV?$shared_ptr@VNode@valve_parser@@@2@@Z 10036600 f i Hooks.obj
 0001:00035690       ?singleton@item_purchase@@SAPAV1@XZ 10036690 f i Hooks.obj
 0001:00035730       ?skipBOM@Document@valve_parser@@AAEPADPADW4ENCODING@2@@Z 10036730 f i Hooks.obj
 0001:000357b0       ?substr@?$basic_string@DU?$char_traits@D@std@@V?$allocator@D@2@@std@@QBE?AV12@II@Z 100367b0 f i Hooks.obj
 0001:00035800       ?toInt@Str@valve_parser@@QAEHXZ 10036800 f i Hooks.obj
 0001:000358e0       ?unhook_all@vfunc_hook@@QAEXXZ 100368e0 f i Hooks.obj
 0001:000359a0       ?weaponnames@@YAPBDH@Z     100369a0 f   Hooks.obj
 0001:00035c10       ?what@exception@std@@UBEPBDXZ 10036c10 f i Hooks.obj
 0001:00035c20       ?ImGui_ImplDX9_CreateDeviceObjects@@YA_NXZ 10036c20 f   imgui_impl_dx9.obj
 0001:00035d00       ?ImGui_ImplDX9_Init@@YA_NPAXPAUIDirect3DDevice9@@@Z 10036d00 f   imgui_impl_dx9.obj
 0001:00035de0       ?ImGui_ImplDX9_InvalidateDeviceObjects@@YAXXZ 10036de0 f   imgui_impl_dx9.obj
 0001:00035e50       ?ImGui_ImplDX9_NewFrame@@YAXXZ 10036e50 f   imgui_impl_dx9.obj
 0001:00036030       ?ImGui_ImplDX9_RenderDrawLists@@YAXPAUImDrawData@@@Z 10037030 f   imgui_impl_dx9.obj
 0001:00036700       ?ImGui_ImplDX9_WndProcHandler@@YAJPAUHWND__@@IIJ@Z 10037700 f   imgui_impl_dx9.obj
 0001:000368e0       ??0?$ImVector@PAUImDrawList@@@@QAE@XZ 100378e0 f i imgui.obj
 0001:00036900       ??0ImDrawList@@QAE@XZ      10037900 f i imgui.obj
 0001:000369f0       ??0ImGuiContext@@QAE@XZ    100379f0 f i imgui.obj
 0001:000372c0       ??0ImGuiDrawContext@@QAE@XZ 100382c0 f i imgui.obj
 0001:00037510       ??0ImGuiStyle@@QAE@XZ      10038510 f   imgui.obj
 0001:000378f0       ??0ImGuiWindow@@QAE@PBD@Z  100388f0 f   imgui.obj
 0001:00037d60       ??1?$ImVector@G@@QAE@XZ    10038d60 f i imgui.obj
 0001:00037d60       ??1?$ImVector@PAX@@QAE@XZ  10038d60 f i imgui.obj
 0001:00037d60       ??1?$ImVector@UImGuiPopupRef@@@@QAE@XZ 10038d60 f i imgui.obj
 0001:00037d60       ??1?$ImVector@UImDrawVert@@@@QAE@XZ 10038d60 f i imgui.obj
 0001:00037d60       ??1?$ImVector@PAUImFont@@@@QAE@XZ 10038d60 f i imgui.obj
 0001:00037d60       ??1?$ImVector@UImGuiStyleMod@@@@QAE@XZ 10038d60 f i imgui.obj
 0001:00037d60       ??1?$ImVector@UImDrawCmd@@@@QAE@XZ 10038d60 f i imgui.obj
 0001:00037d60       ??1?$ImVector@I@@QAE@XZ    10038d60 f i imgui.obj
 0001:00037d60       ??1?$ImVector@PAUImDrawList@@@@QAE@XZ 10038d60 f i imgui.obj
 0001:00037d60       ??1?$ImVector@UImDrawChannel@@@@QAE@XZ 10038d60 f i imgui.obj
 0001:00037d60       ??1?$ImVector@PAUImGuiWindow@@@@QAE@XZ 10038d60 f i imgui.obj
 0001:00037d60       ??1?$ImVector@UImGuiColMod@@@@QAE@XZ 10038d60 f i imgui.obj
 0001:00037d60       ??1?$ImVector@UImVec2@@@@QAE@XZ 10038d60 f i imgui.obj
 0001:00037d60       ??1?$ImVector@UImVec4@@@@QAE@XZ 10038d60 f i imgui.obj
 0001:00037d60       ??1?$ImVector@UImGuiIniData@@@@QAE@XZ 10038d60 f i imgui.obj
 0001:00037dc0       ??1ImDrawList@@QAE@XZ      10038dc0 f i imgui.obj
 0001:00037f20       ??1ImGuiContext@@QAE@XZ    10038f20 f i imgui.obj
 0001:00038160       ??1ImGuiDrawContext@@QAE@XZ 10039160 f i imgui.obj
 0001:000382d0       ??1ImGuiStorage@@QAE@XZ    100392d0 f i imgui.obj
 0001:00038330       ??1ImGuiTextEditState@@QAE@XZ 10039330 f i imgui.obj
 0001:00038480       ?AddInputCharacter@ImGuiIO@@QAEXG@Z 10039480 f   imgui.obj
 0001:00038870       ?Begin@ImGui@@YA_NPBDPA_NABUImVec2@@MH@Z 10039870 f   imgui.obj
 0001:0003b6e0       ?BeginChild@ImGui@@YA_NPBDABUImVec2@@_NH@Z 1003c6e0 f   imgui.obj
 0001:0003b980       ?BeginChildFrame@ImGui@@YA_NIABUImVec2@@H@Z 1003c980 f   imgui.obj
 0001:0003ba70       ?BeginGroup@ImGui@@YAXXZ   1003ca70 f   imgui.obj
 0001:0003bb80       ?BeginPopup@ImGui@@YA_NPBD@Z 1003cb80 f   imgui.obj
 0001:0003bd90       ?Button@ImGui@@YA_NPBDABUImVec2@@@Z 1003cd90 f   imgui.obj
 0001:0003bdb0       ?ButtonBehavior@ImGui@@YA_NABUImRect@@IPA_N1H@Z 1003cdb0 f   imgui.obj
 0001:0003c050       ?ButtonEx@ImGui@@YA_NPBDABUImVec2@@H@Z 1003d050 f   imgui.obj
 0001:0003c2c0       ?CalcItemSize@ImGui@@YA?AUImVec2@@U2@MM@Z 1003d2c0 f   imgui.obj
 0001:0003c3d0       ?CalcItemWidth@ImGui@@YAMXZ 1003d3d0 f   imgui.obj
 0001:0003c470       ?CalcTextSize@ImGui@@YA?AUImVec2@@PBD0_NM@Z 1003d470 f   imgui.obj
 0001:0003c560       ?Checkbox@ImGui@@YA_NPBDPA_N@Z 1003d560 f   imgui.obj
 0001:0003d3f0       ?ClearActiveID@ImGui@@YAXXZ 1003e3f0 f   imgui.obj
 0001:0003d420       ?CloseButton@ImGui@@YA_NIABUImVec2@@M@Z 1003e420 f   imgui.obj
 0001:0003d630       ?CloseCurrentPopup@ImGui@@YAXXZ 1003e630 f   imgui.obj
 0001:0003d750       ?ColorButton@ImGui@@YA_NABUImVec4@@_N1@Z 1003e750 f   imgui.obj
 0001:0003d8e0       ?ColorConvertFloat4ToU32@ImGui@@YAIABUImVec4@@@Z 1003e8e0 f   imgui.obj
 0001:0003d9a0       ?ColorConvertHSVtoRGB@ImGui@@YAXMMMAAM00@Z 1003e9a0 f   imgui.obj
 0001:0003db10       ?ColorConvertRGBtoHSV@ImGui@@YAXMMMAAM00@Z 1003eb10 f   imgui.obj
 0001:0003dbc0       ?Columns@ImGui@@YAXHPBD_N@Z 1003ebc0 f   imgui.obj
 0001:0003e2f0       ?Combo@ImGui@@YA_NPBDPAH0H@Z 1003f2f0 f   imgui.obj
 0001:0003e340       ?Combo@ImGui@@YA_NPBDPAHP6A_NPAXHPAPBD@Z2HH@Z 1003f340 f   imgui.obj
 0001:0003eaa0       ?Combo@ImGui@@YA_NPBDPAHPBQBDHH@Z 1003faa0 f   imgui.obj
 0001:0003ed70       ?CursorClamp@ImGuiTextEditState@@QAEXXZ 1003fd70 f i imgui.obj
 0001:0003f000       ?DragBehavior@ImGui@@YA_NABUImRect@@IPAMMMMHM@Z 10040000 f   imgui.obj
 0001:0003f2f0       ?DragFloat@ImGui@@YA_NPBDPAMMMM0M@Z 100402f0 f   imgui.obj
 0001:0003f780       ?DragInt@ImGui@@YA_NPBDPAHMHH0@Z 10040780 f   imgui.obj
 0001:0003f7f0       ?End@ImGui@@YAXXZ          100407f0 f   imgui.obj
 0001:0003f9e0       ?EndChild@ImGui@@YAXXZ     100409e0 f   imgui.obj
 0001:0003faf0       ?EndChildFrame@ImGui@@YAXXZ 10040af0 f   imgui.obj
 0001:0003fc30       ?EndFrame@ImGui@@YAXXZ     10040c30 f   imgui.obj
 0001:0003fe60       ?EndGroup@ImGui@@YAXXZ     10040e60 f   imgui.obj
 0001:00040010       ?EndPopup@ImGui@@YAXXZ     10041010 f   imgui.obj
 0001:00040340       ?FindWindowByName@ImGui@@YAPAUImGuiWindow@@PBD@Z 10041340 f   imgui.obj
 0001:000403e0       ?FocusWindow@ImGui@@YAXPAUImGuiWindow@@@Z 100413e0 f   imgui.obj
 0001:000404e0       ?FocusableItemRegister@ImGui@@YA_NPAUImGuiWindow@@_N1@Z 100414e0 f   imgui.obj
 0001:000406b0       ?GetColorU32@ImGui@@YAIABUImVec4@@@Z 100416b0 f   imgui.obj
 0001:00040790       ?GetColorU32@ImGui@@YAIHM@Z 10041790 f   imgui.obj
 0001:00040870       ?GetColumnOffset@ImGui@@YAMH@Z 10041870 f   imgui.obj
 0001:000408f0       ?GetContentRegionMax@ImGui@@YA?AUImVec2@@XZ 100418f0 f   imgui.obj
 0001:00040940       ?GetCursorScreenPos@ImGui@@YA?AUImVec2@@XZ 10041940 f   imgui.obj
 0001:00040a00       ?GetFontSize@ImGui@@YAMXZ  10041a00 f   imgui.obj
 0001:00040a50       ?GetID@ImGuiWindow@@QAEIPBD0@Z 10041a50 f   imgui.obj
 0001:00040aa0       ?GetIO@ImGui@@YAAAUImGuiIO@@XZ 10041aa0 f   imgui.obj
 0001:00040ab0       ?GetInt@ImGuiStorage@@QBEHIH@Z 10041ab0 f   imgui.obj
 0001:00040af0       ?GetStyle@ImGui@@YAAAUImGuiStyle@@XZ 10041af0 f   imgui.obj
 0001:00040b90       ?GetWindowContentRegionWidth@ImGui@@YAMXZ 10041b90 f   imgui.obj
 0001:00040bb0       ?GetWindowDrawList@ImGui@@YAPAUImDrawList@@XZ 10041bb0 f   imgui.obj
 0001:00040bd0       ?Hotkey@ImGui@@YA_NPBDPAHABUImVec2@@@Z 10041bd0 f   imgui.obj
 0001:000412d0       ?ImFileLoadToMemory@@YAPAXPBD0PAHH@Z 100422d0 f   imgui.obj
 0001:000413d0       ?ImFileOpen@@YAPAU_iobuf@@PBD0@Z 100423d0 f   imgui.obj
 0001:000414b0       ?ImFormatString@@YAHPADHPBDZZ 100424b0 f   imgui.obj
 0001:00041500       ?ImHash@@YAIPBXHI@Z        10042500 f   imgui.obj
 0001:00041620       ?ImStrncpy@@YAXPADPBDH@Z   10042620 f   imgui.obj
 0001:00041650       ?ImTextCharFromUtf8@@YAHPAIPBD1@Z 10042650 f   imgui.obj
 0001:00041810       ?ImTextCountCharsFromUtf8@@YAHPBD0@Z 10042810 f   imgui.obj
 0001:00041a60       ?ImTextCountUtf8BytesFromStr@@YAHPBG0@Z 10042a60 f   imgui.obj
 0001:00041ae0       ?ImTextStrFromUtf8@@YAHPAGHPBD1PAPBD@Z 10042ae0 f   imgui.obj
 0001:00041d70       ?ImTextStrToUtf8@@YAHPADHPBG1@Z 10042d70 f   imgui.obj
 0001:00041f10       ?InputInt@ImGui@@YA_NPBDPAHHHH@Z 10042f10 f   imgui.obj
 0001:00041f70       ?InputScalarAsWidgetReplacement@ImGui@@YA_NABUImRect@@PBDW4ImGuiDataType@@PAXIH@Z 10042f70 f   imgui.obj
 0001:00042130       ?InputScalarEx@ImGui@@YA_NPBDW4ImGuiDataType@@PAX220H@Z 10043130 f   imgui.obj
 0001:00042470       ?InputText@ImGui@@YA_NPBDPADIHP6AHPAUImGuiTextEditCallbackData@@@ZPAX@Z 10043470 f   imgui.obj
 0001:000424b0       ?InputTextEx@ImGui@@YA_NPBDPADHABUImVec2@@HP6AHPAUImGuiTextEditCallbackData@@@ZPAX@Z 100434b0 f   imgui.obj
 0001:00044770       ?InvisibleButton@ImGui@@YA_NPBDABUImVec2@@@Z 10045770 f   imgui.obj
 0001:00044890       ?IsHovered@ImGui@@YA_NABUImRect@@I_N@Z 10045890 f   imgui.obj
 0001:00044920       ?IsItemActive@ImGui@@YA_NXZ 10045920 f   imgui.obj
 0001:00044950       ?IsItemHovered@ImGui@@YA_NXZ 10045950 f   imgui.obj
 0001:00044a50       ?IsMouseClicked@ImGui@@YA_NH_N@Z 10045a50 f   imgui.obj
 0001:00044b30       ?IsMouseHoveringRect@ImGui@@YA_NABUImVec2@@0_N@Z 10045b30 f   imgui.obj
 0001:00044ca0       ?ItemAdd@ImGui@@YA_NABUImRect@@PBI@Z 10045ca0 f   imgui.obj
 0001:00044db0       ?ItemSize@ImGui@@YAXABUImVec2@@M@Z 10045db0 f   imgui.obj
 0001:00044f40       ?ListBoxFooter@ImGui@@YAXXZ 10045f40 f   imgui.obj
 0001:00044ff0       ?ListBoxHeader@ImGui@@YA_NPBDABUImVec2@@@Z 10045ff0 f   imgui.obj
 0001:000455f0       ?LogText@ImGui@@YAXPBDZZ   100465f0 f   imgui.obj
 0001:00045680       ?MemAlloc@ImGui@@YAPAXI@Z  10046680 f   imgui.obj
 0001:000456a0       ?MemFree@ImGui@@YAXPAX@Z   100466a0 f   imgui.obj
 0001:000456d0       ?MenuItem@ImGui@@YA_NPBD0_N1@Z 100466d0 f   imgui.obj
 0001:000459d0       ?NewFrame@ImGui@@YAXXZ     100469d0 f   imgui.obj
 0001:00046660       ?OnKeyPressed@ImGuiTextEditState@@QAEXH@Z 10047660 f   imgui.obj
 0001:00046690       ?OpenPopup@ImGui@@YAXPBD@Z 10047690 f   imgui.obj
 0001:000466b0       ?OpenPopupEx@ImGui@@YAXPBD_N@Z 100476b0 f   imgui.obj
 0001:00046800       ?ParseFormatPrecision@ImGui@@YAHPBDH@Z 10047800 f   imgui.obj
 0001:00046870       ?PopClipRect@ImGui@@YAXXZ  10047870 f   imgui.obj
 0001:000468d0       ?PopFont@ImGui@@YAXXZ      100478d0 f   imgui.obj
 0001:00046990       ?PopID@ImGui@@YAXXZ        10047990 f   imgui.obj
 0001:000469b0       ?PopItemWidth@ImGui@@YAXXZ 100479b0 f   imgui.obj
 0001:00046a10       ?PopStyleColor@ImGui@@YAXH@Z 10047a10 f   imgui.obj
 0001:00046a60       ?PopStyleVar@ImGui@@YAXH@Z 10047a60 f   imgui.obj
 0001:00046c10       ?PushFont@ImGui@@YAXPAUImFont@@@Z 10047c10 f   imgui.obj
 0001:00046d80       ?PushID@ImGui@@YAXPBD@Z    10047d80 f   imgui.obj
 0001:00046e10       ?PushID@ImGui@@YAXPBX@Z    10047e10 f   imgui.obj
 0001:00046e10       ?PushID@ImGui@@YAXH@Z      10047e10 f   imgui.obj
 0001:00046eb0       ?PushItemWidth@ImGui@@YAXM@Z 10047eb0 f   imgui.obj
 0001:00046f40       ?PushStyleColor@ImGui@@YAXHABUImVec4@@@Z 10047f40 f   imgui.obj
 0001:00047050       ?PushStyleVar@ImGui@@YAXHABUImVec2@@@Z 10048050 f   imgui.obj
 0001:000470c0       ?RadioButton@ImGui@@YA_NPBDPAHH@Z 100480c0 f   imgui.obj
 0001:000470f0       ?RadioButton@ImGui@@YA_NPBD_N@Z 100480f0 f   imgui.obj
 0001:00047570       ?Render@ImGui@@YAXXZ       10048570 f   imgui.obj
 0001:00047960       ?RenderCheckMark@ImGui@@YAXUImVec2@@I@Z 10048960 f   imgui.obj
 0001:00047ba0       ?RenderCollapseTriangle@ImGui@@YAXUImVec2@@_NM@Z 10048ba0 f   imgui.obj
 0001:00047cf0       ?RenderFrame@ImGui@@YAXUImVec2@@0I_NM@Z 10048cf0 f   imgui.obj
 0001:00047e10       ?RenderText@ImGui@@YAXUImVec2@@PBD1_NI@Z 10048e10 f   imgui.obj
 0001:00047ee0       ?RenderTextClipped@ImGui@@YAXABUImVec2@@0PBD1PBU2@0PBUImRect@@@Z 10048ee0 f   imgui.obj
 0001:000480e0       ?RoundScalar@ImGui@@YAMMH@Z 100490e0 f   imgui.obj
 0001:00048580       ?SameLine@ImGui@@YAXMM@Z   10049580 f   imgui.obj
 0001:00048e00       ?Selectable@ImGui@@YA_NPBDPA_NHABUImVec2@@@Z 10049e00 f   imgui.obj
 0001:00048e40       ?Selectable@ImGui@@YA_NPBD_NHABUImVec2@@@Z 10049e40 f   imgui.obj
 0001:000492b0       ?Separator@ImGui@@YAXXZ    1004a2b0 f   imgui.obj
 0001:00049410       ?SetActiveID@ImGui@@YAXIPAUImGuiWindow@@@Z 1004a410 f   imgui.obj
 0001:00049450       ?SetClipboardText@ImGui@@YAXPBD@Z 1004a450 f   imgui.obj
 0001:000494f0       ?SetCursorScreenPos@ImGui@@YAXABUImVec2@@@Z 1004a4f0 f   imgui.obj
 0001:00049560       ?SetInt@ImGuiStorage@@QAEXIH@Z 1004a560 f   imgui.obj
 0001:000495c0       ?SetNextWindowPos@ImGui@@YAXABUImVec2@@H@Z 1004a5c0 f   imgui.obj
 0001:00049600       ?SetNextWindowPosCenter@ImGui@@YAXH@Z 1004a600 f   imgui.obj
 0001:00049640       ?SetNextWindowSize@ImGui@@YAXABUImVec2@@H@Z 1004a640 f   imgui.obj
 0001:000497d0       ?SliderBehavior@ImGui@@YA_NABUImRect@@IPAMMMMHHUImVec4@@@Z 1004a7d0 f   imgui.obj
 0001:00049db0       ?SliderFloat@ImGui@@YA_NPBDPAMMM0MUImVec2@@UImVec4@@@Z 1004adb0 f   imgui.obj
 0001:0004a270       ?SliderInt@ImGui@@YA_NPBDPAHHH0UImVec4@@@Z 1004b270 f   imgui.obj
 0001:0004a300       ?Text@ImGui@@YAXPBDZZ      1004b300 f   imgui.obj
 0001:0004a320       ?TextUnformatted@ImGui@@YAXPBD0@Z 1004b320 f   imgui.obj
 0001:0004a7c0       ?TextV@ImGui@@YAXPBDPAD@Z  1004b7c0 f   imgui.obj
 0001:0004a850       ?appendv@ImGuiTextBuffer@@QAEXPBDPAD@Z 1004b850 f   imgui.obj
 0001:0004a930       ?insert@?$ImVector@UPair@ImGuiStorage@@@@QAEPAUPair@ImGuiStorage@@PBU23@ABU23@@Z 1004b930 f i imgui.obj
 0001:0004aa10       ?push_back@?$ImVector@UImGuiPopupRef@@@@QAEXABUImGuiPopupRef@@@Z 1004ba10 f i imgui.obj
 0001:0004aa70       ?push_back@?$ImVector@UImGuiStyleMod@@@@QAEXABUImGuiStyleMod@@@Z 1004ba70 f i imgui.obj
 0001:0004ab30       ?reserve@?$ImVector@_N@@QAEXH@Z 1004bb30 f i imgui.obj
 0001:0004ab30       ?reserve@?$ImVector@D@@QAEXH@Z 1004bb30 f i imgui.obj
 0001:0004abb0       ?reserve@?$ImVector@M@@QAEXH@Z 1004bbb0 f i imgui.obj
 0001:0004abb0       ?reserve@?$ImVector@PAUImDrawList@@@@QAEXH@Z 1004bbb0 f i imgui.obj
 0001:0004abb0       ?reserve@?$ImVector@PAUImGuiWindow@@@@QAEXH@Z 1004bbb0 f i imgui.obj
 0001:0004abb0       ?reserve@?$ImVector@I@@QAEXH@Z 1004bbb0 f i imgui.obj
 0001:0004ac30       ?reserve@?$ImVector@UImGuiPopupRef@@@@QAEXH@Z 1004bc30 f i imgui.obj
 0001:0004acb0       ?reserve@?$ImVector@UImVec2@@@@QAEXH@Z 1004bcb0 f i imgui.obj
 0001:0004ad30       ?resize@?$ImVector@D@@QAEXH@Z 1004bd30 f i imgui.obj
 0001:0004ad70       ?resize@?$ImVector@G@@QAEXH@Z 1004bd70 f i imgui.obj
 0001:0004ae20       ?resize@?$ImVector@UImGuiColumnData@@@@QAEXH@Z 1004be20 f i imgui.obj
 0001:0004aed0       ?resize@?$ImVector@UImGuiGroupData@@@@QAEXH@Z 1004bed0 f i imgui.obj
 0001:0004c110       _fprintf                   1004d110 f i imgui.obj
 0001:0004c140       _sscanf                    1004d140 f i imgui.obj
 0001:0004c170       ??0ImFont@@QAE@XZ          1004d170 f   imgui_draw.obj
 0001:0004c220       ??0ImFontAtlas@@QAE@XZ     1004d220 f   imgui_draw.obj
 0001:0004c2a0       ??0ImFontConfig@@QAE@XZ    1004d2a0 f   imgui_draw.obj
 0001:0004c330       ??1?$ImVector@M@@QAE@XZ    1004d330 f i imgui_draw.obj
 0001:0004c330       ??1?$ImVector@D@@QAE@XZ    1004d330 f i Hooks.obj
 0001:0004c330       ??1?$ImVector@UGlyph@ImFont@@@@QAE@XZ 1004d330 f i imgui_draw.obj
 0001:0004c330       ??1?$ImVector@Ustbrp_rect@@@@QAE@XZ 1004d330 f i imgui_draw.obj
 0001:0004c380       ??1ImFont@@QAE@XZ          1004d380 f   imgui_draw.obj
 0001:0004c400       ??1ImFontAtlas@@QAE@XZ     1004d400 f   imgui_draw.obj
 0001:0004c470       ?AddCircle@ImDrawList@@QAEXABUImVec2@@MIHM@Z 1004d470 f   imgui_draw.obj
 0001:0004c500       ?AddCircleFilled@ImDrawList@@QAEXABUImVec2@@MIH@Z 1004d500 f   imgui_draw.obj
 0001:0004c580       ?AddConvexPolyFilled@ImDrawList@@QAEXPBUImVec2@@HI_N@Z 1004d580 f   imgui_draw.obj
 0001:0004c9d0       ?AddDrawCmd@ImDrawList@@QAEXXZ 1004d9d0 f   imgui_draw.obj
 0001:0004ca40       ?AddFont@ImFontAtlas@@QAEPAUImFont@@PBUImFontConfig@@@Z 1004da40 f   imgui_draw.obj
 0001:0004cc80       ?AddFontFromFileTTF@ImFontAtlas@@QAEPAUImFont@@PBDMPBUImFontConfig@@PBG@Z 1004dc80 f   imgui_draw.obj
 0001:0004cde0       ?AddFontFromMemoryCompressedBase85TTF@ImFontAtlas@@QAEPAUImFont@@PBDMPBUImFontConfig@@PBG@Z 1004dde0 f   imgui_draw.obj
 0001:0004d000       ?AddImage@ImDrawList@@QAEXPAXABUImVec2@@111I@Z 1004e000 f   imgui_draw.obj
 0001:0004d0b0       ?AddLine@ImDrawList@@QAEXABUImVec2@@0IM@Z 1004e0b0 f   imgui_draw.obj
 0001:0004d160       ?AddPolyline@ImDrawList@@QAEXPBUImVec2@@HI_NM1@Z 1004e160 f   imgui_draw.obj
 0001:0004dcb0       ?AddRect@ImDrawList@@QAEXABUImVec2@@0IMHM@Z 1004ecb0 f   imgui_draw.obj
 0001:0004dd60       ?AddRectFilled@ImDrawList@@QAEXABUImVec2@@0IMH@Z 1004ed60 f   imgui_draw.obj
 0001:0004dec0       ?AddRectFilledMultiColor@ImDrawList@@QAEXABUImVec2@@0IIII@Z 1004eec0 f   imgui_draw.obj
 0001:0004e080       ?AddText@ImDrawList@@QAEXPBUImFont@@MABUImVec2@@IPBD2MPBUImVec4@@@Z 1004f080 f   imgui_draw.obj
 0001:0004e190       ?AddTriangleFilled@ImDrawList@@QAEXABUImVec2@@00I@Z 1004f190 f   imgui_draw.obj
 0001:0004e1f0       ?Build@ImFontAtlas@@QAE_NXZ 1004f1f0 f   imgui_draw.obj
 0001:0004ed00       ?BuildLookupTable@ImFont@@QAEXXZ 1004fd00 f   imgui_draw.obj
 0001:0004ef50       ?CalcTextSizeA@ImFont@@QBE?AUImVec2@@MMMPBD0PAPBD@Z 1004ff50 f   imgui_draw.obj
 0001:0004f180       ?CalcWordWrapPositionA@ImFont@@QBEPBDMPBD0M@Z 10050180 f   imgui_draw.obj
 0001:0004f330       ?ChannelsMerge@ImDrawList@@QAEXXZ 10050330 f   imgui_draw.obj
 0001:0004f540       ?ChannelsSplit@ImDrawList@@QAEXH@Z 10050540 f   imgui_draw.obj
 0001:0004f810       ?Clear@ImDrawList@@QAEXXZ  10050810 f   imgui_draw.obj
 0001:0004f920       ?Clear@ImFont@@QAEXXZ      10050920 f   imgui_draw.obj
 0001:0004f9d0       ?Clear@ImFontAtlas@@QAEXXZ 100509d0 f   imgui_draw.obj
 0001:0004fb70       ?ClearFreeMemory@ImDrawList@@QAEXXZ 10050b70 f   imgui_draw.obj
 0001:0004fd30       ?FindGlyph@ImFont@@QBEPBUGlyph@1@G@Z 10050d30 f   imgui_draw.obj
 0001:0004fd70       ?GetTexDataAsRGBA32@ImFontAtlas@@QAEXPAPAEPAH11@Z 10050d70 f   imgui_draw.obj
 0001:0004fed0       ?GrowIndex@ImFont@@QAEXH@Z 10050ed0 f   imgui_draw.obj
 0001:00050000       ?PathArcTo@ImDrawList@@QAEXABUImVec2@@MMMH@Z 10051000 f   imgui_draw.obj
 0001:000501a0       ?PathArcToFast@ImDrawList@@QAEXABUImVec2@@MHH@Z 100511a0 f   imgui_draw.obj
 0001:00050480       ?PathRect@ImDrawList@@QAEXABUImVec2@@0MH@Z 10051480 f   imgui_draw.obj
 0001:000506d0       ?PopClipRect@ImDrawList@@QAEXXZ 100516d0 f   imgui_draw.obj
 0001:000506e0       ?PopTextureID@ImDrawList@@QAEXXZ 100516e0 f   imgui_draw.obj
 0001:000506f0       ?PrimRectUV@ImDrawList@@QAEXABUImVec2@@000I@Z 100516f0 f   imgui_draw.obj
 0001:00050810       ?PrimReserve@ImDrawList@@QAEXHH@Z 10051810 f   imgui_draw.obj
 0001:00050870       ?PushClipRect@ImDrawList@@QAEXUImVec2@@0_N@Z 10051870 f   imgui_draw.obj
 0001:000509a0       ?PushClipRectFullScreen@ImDrawList@@QAEXXZ 100519a0 f   imgui_draw.obj
 0001:00050a60       ?PushTextureID@ImDrawList@@QAEXABQAX@Z 10051a60 f   imgui_draw.obj
 0001:00050af0       ?RenderCustomTexData@ImFontAtlas@@QAEXHPAX@Z 10051af0 f   imgui_draw.obj
 0001:00051350       ?RenderText@ImFont@@QBEXPAUImDrawList@@MUImVec2@@IABUImVec4@@PBD3M_N@Z 10052350 f   imgui_draw.obj
 0001:000518b0       ?UpdateClipRect@ImDrawList@@QAEXXZ 100528b0 f   imgui_draw.obj
 0001:000519a0       ?UpdateTextureID@ImDrawList@@QAEXXZ 100529a0 f   imgui_draw.obj
 0001:00051a60       ?push_back@?$ImVector@UImDrawCmd@@@@QAEXABUImDrawCmd@@@Z 10052a60 f i imgui_draw.obj
 0001:00051af0       ?push_back@?$ImVector@UImVec2@@@@QAEXABUImVec2@@@Z 10052af0 f i imgui_draw.obj
 0001:00051bf0       ?resize@?$ImVector@UGlyph@ImFont@@@@QAEXH@Z 10052bf0 f i imgui_draw.obj
 0001:00051c80       ?resize@?$ImVector@UImDrawCmd@@@@QAEXH@Z 10052c80 f i imgui_draw.obj
 0001:00051d00       ?resize@?$ImVector@UImDrawVert@@@@QAEXH@Z 10052d00 f i imgui_draw.obj
 0001:00051d90       ?resize@?$ImVector@UImVec2@@@@QAEXH@Z 10052d90 f i imgui_draw.obj
 0001:00057a20       __snprintf                 10058a20 f i imgui_draw.obj
 0001:00058d80       ?InitialiseInterfaces@@YAXXZ 10059d80 f   Interfaces.obj
 0001:000591b0       ??0lbyRecords@@QAE@XZ      1005a1b0 f i LagComp.obj
 0001:000591b0       ?_Getal@?$_Vector_alloc@U?$_Vec_base_types@V?$_List_unchecked_iterator@V?$_List_val@U?$_List_simple_types@U?$pair@$$CBV?$basic_string@DU?$char_traits@D@std@@V?$allocator@D@2@@std@@V?$set@V?$basic_string@DU?$char_traits@D@std@@V?$allocator@D@2@@std@@U?$less@V?$basic_string@DU?$char_traits@D@std@@V?$allocator@D@2@@std@@@2@V?$allocator@V?$basic_string@DU?$char_traits@D@std@@V?$allocator@D@2@@std@@@2@@2@@std@@@std@@@std@@@std@@V?$allocator@V?$_List_unchecked_iterator@V?$_List_val@U?$_List_simple_types@U?$pair@$$CBV?$basic_string@DU?$char_traits@D@std@@V?$allocator@D@2@@std@@V?$set@V?$basic_string@DU?$char_traits@D@std@@V?$allocator@D@2@@std@@U?$less@V?$basic_string@DU?$char_traits@D@std@@V?$allocator@D@2@@std@@@2@V?$allocator@V?$basic_string@DU?$char_traits@D@std@@V?$allocator@D@2@@std@@@2@@2@@std@@@std@@@std@@@std@@@2@@std@@@std@@QAEAAV?$allocator@V?$_List_unchecked_iterator@V?$_List_val@U?$_List_simple_types@U?$pair@$$CBV?$basic_string@DU?$char_traits@D@std@@V?$allocator@D@2@@std@@V?$set@V?$basic_string@DU?$char_traits@D@std@@V?$allocator@D@2@@std@@U?$less@V?$basic_string@DU?$char_traits@D@std@@V?$allocator@D@2@@std@@@2@V?$allocator@V?$basic_string@DU?$char_traits@D@std@@V?$allocator@D@2@@std@@@2@@2@@std@@@std@@@std@@@std@@@2@XZ 1005a1b0 f i Configuration.obj
 0001:000591b0       ?_Getal@?$_Vector_alloc@U?$_Vec_base_types@V?$_List_unchecked_iterator@V?$_List_val@U?$_List_simple_types@U?$pair@$$CBV?$basic_string@DU?$char_traits@D@std@@V?$allocator@D@2@@std@@UskinInfo@@@std@@@std@@@std@@@std@@V?$allocator@V?$_List_unchecked_iterator@V?$_List_val@U?$_List_simple_types@U?$pair@$$CBV?$basic_string@DU?$char_traits@D@std@@V?$allocator@D@2@@std@@UskinInfo@@@std@@@std@@@std@@@std@@@2@@std@@@std@@QAEAAV?$allocator@V?$_List_unchecked_iterator@V?$_List_val@U?$_List_simple_types@U?$pair@$$CBV?$basic_string@DU?$char_traits@D@std@@V?$allocator@D@2@@std@@UskinInfo@@@std@@@std@@@std@@@std@@@2@XZ 1005a1b0 f i Configuration.obj
 0001:000591b0       ??0CMoveData@@QAE@XZ       1005a1b0 f i EnginePrediction.obj
 0001:000591b0       ?ToKeyValue@KeyValue@valve_parser@@UAEPAV12@XZ 1005a1b0 f i Parser.obj
 0001:000591b0       ?_Getal@?$_Vector_alloc@U?$_Vec_base_types@V?$_List_unchecked_iterator@V?$_List_val@U?$_List_simple_types@U?$pair@$$CBV?$basic_string@DU?$char_traits@D@std@@V?$allocator@D@2@@std@@V12@@std@@@std@@@std@@@std@@V?$allocator@V?$_List_unchecked_iterator@V?$_List_val@U?$_List_simple_types@U?$pair@$$CBV?$basic_string@DU?$char_traits@D@std@@V?$allocator@D@2@@std@@V12@@std@@@std@@@std@@@std@@@2@@std@@@std@@QAEAAV?$allocator@V?$_List_unchecked_iterator@V?$_List_val@U?$_List_simple_types@U?$pair@$$CBV?$basic_string@DU?$char_traits@D@std@@V?$allocator@D@2@@std@@V12@@std@@@std@@@std@@@std@@@2@XZ 1005a1b0 f i Configuration.obj
 0001:000591b0       ?_Getal@?$_Vector_alloc@U?$_Vec_base_types@V?$_List_unchecked_iterator@V?$_List_val@U?$_List_simple_types@U?$pair@QADPAD@std@@@std@@@std@@@std@@V?$allocator@V?$_List_unchecked_iterator@V?$_List_val@U?$_List_simple_types@U?$pair@QADPAD@std@@@std@@@std@@@std@@@2@@std@@@std@@QAEAAV?$allocator@V?$_List_unchecked_iterator@V?$_List_val@U?$_List_simple_types@U?$pair@QADPAD@std@@@std@@@std@@@std@@@2@XZ 1005a1b0 f i Hooks.obj
 0001:000591b0       ??0CGameTrace@@QAE@XZ      1005a1b0 f i MiscFunctions.obj
 0001:000591b0       ?ToObject@Object@valve_parser@@UAEPAV12@XZ 1005a1b0 f i Parser.obj
 0001:000591b0       ??0backtrackData@@QAE@XZ   1005a1b0 f i LagComp.obj
 0001:000591c0       ?RageBackTrack@BackTrack@@QAEXPAVCUserCmd@CInput@@PAVC_BaseEntity@@@Z 1005a1c0 f   LagComp.obj
 0001:000597e0       ?Update@BackTrack@@QAEXH@Z 1005a7e0 f   LagComp.obj
 0001:000598a0       ?distance_point_to_line@@YAMVVector@@00@Z 1005a8a0 f i LagComp.obj
 0001:00059990       ?legitBackTrack@BackTrack@@QAEXPAVCUserCmd@CInput@@PAVC_BaseEntity@@@Z 1005a990 f   LagComp.obj
 0001:00059fe0       ??$_Range_construct_or_tidy@PBH@?$vector@HV?$allocator@H@std@@@std@@AAEXPBH0Uforward_iterator_tag@1@@Z 1005afe0 f i LegitBot.obj
 0001:0005a090       ??$generate_canonical@N$0PPPPPPPP@V?$mersenne_twister_engine@I$0CA@$0CHA@$0BIN@$0BP@$0JJAILANP@$0L@$0PPPPPPPP@$06$0JNCMFGIA@$0P@$0OPMGAAAA@$0BC@$0GMAHIJGF@@std@@@std@@YANAAV?$mersenne_twister_engine@I$0CA@$0CHA@$0BIN@$0BP@$0JJAILANP@$0L@$0PPPPPPPP@$06$0JNCMFGIA@$0P@$0OPMGAAAA@$0BC@$0GMAHIJGF@@0@@Z 1005b090 f i LegitBot.obj
 0001:0005a290       ??0Ray_t@@QAE@XZ           1005b290 f i LegitBot.obj
 0001:0005a2f0       ??0legitbot@@QAE@XZ        1005b2f0 f   LegitBot.obj
 0001:0005a3a0       ?OnCreateMove@legitbot@@QAEXPAVCUserCmd@CInput@@PAVC_BaseEntity@@@Z 1005b3a0 f   LegitBot.obj
 0001:0005a440       ?RandomFloat@@YAMMM@Z      1005b440 f i LegitBot.obj
 0001:0005a4d0       ??1?$vector@PAV?$ConfigValue@M@@V?$allocator@PAV?$ConfigValue@M@@@std@@@std@@QAE@XZ 1005b4d0 f i Configuration.obj
 0001:0005a4d0       ??1?$vector@V?$_List_unchecked_iterator@V?$_List_val@U?$_List_simple_types@U?$pair@$$CBV?$basic_string@DU?$char_traits@D@std@@V?$allocator@D@2@@std@@UskinInfo@@@std@@@std@@@std@@@std@@V?$allocator@V?$_List_unchecked_iterator@V?$_List_val@U?$_List_simple_types@U?$pair@$$CBV?$basic_string@DU?$char_traits@D@std@@V?$allocator@D@2@@std@@UskinInfo@@@std@@@std@@@std@@@std@@@2@@std@@QAE@XZ 1005b4d0 f i Configuration.obj
 0001:0005a4d0       ??1?$vector@V?$_List_unchecked_iterator@V?$_List_val@U?$_List_simple_types@U?$pair@$$CBV?$basic_string@DU?$char_traits@D@std@@V?$allocator@D@2@@std@@V12@@std@@@std@@@std@@@std@@V?$allocator@V?$_List_unchecked_iterator@V?$_List_val@U?$_List_simple_types@U?$pair@$$CBV?$basic_string@DU?$char_traits@D@std@@V?$allocator@D@2@@std@@V12@@std@@@std@@@std@@@std@@@2@@std@@QAE@XZ 1005b4d0 f i Configuration.obj
 0001:0005a4d0       ?_Tidy@?$vector@HV?$allocator@H@std@@@std@@AAEXXZ 1005b4d0 f i LegitBot.obj
 0001:0005a4d0       ??1?$vector@V?$_List_unchecked_iterator@V?$_List_val@U?$_List_simple_types@U?$pair@QADPAD@std@@@std@@@std@@@std@@V?$allocator@V?$_List_unchecked_iterator@V?$_List_val@U?$_List_simple_types@U?$pair@QADPAD@std@@@std@@@std@@@std@@@2@@std@@QAE@XZ 1005b4d0 f i Hooks.obj
 0001:0005a4d0       ??1?$vector@V?$_List_unchecked_iterator@V?$_List_val@U?$_List_simple_types@U?$pair@$$CBV?$basic_string@DU?$char_traits@D@std@@V?$allocator@D@2@@std@@V?$set@V?$basic_string@DU?$char_traits@D@std@@V?$allocator@D@2@@std@@U?$less@V?$basic_string@DU?$char_traits@D@std@@V?$allocator@D@2@@std@@@2@V?$allocator@V?$basic_string@DU?$char_traits@D@std@@V?$allocator@D@2@@std@@@2@@2@@std@@@std@@@std@@@std@@V?$allocator@V?$_List_unchecked_iterator@V?$_List_val@U?$_List_simple_types@U?$pair@$$CBV?$basic_string@DU?$char_traits@D@std@@V?$allocator@D@2@@std@@V?$set@V?$basic_string@DU?$char_traits@D@std@@V?$allocator@D@2@@std@@U?$less@V?$basic_string@DU?$char_traits@D@std@@V?$allocator@D@2@@std@@@2@V?$allocator@V?$basic_string@DU?$char_traits@D@std@@V?$allocator@D@2@@std@@@2@@2@@std@@@std@@@std@@@std@@@2@@std@@QAE@XZ 1005b4d0 f i Configuration.obj
 0001:0005a4d0       ??1?$vector@PAV?$ConfigValue@_N@@V?$allocator@PAV?$ConfigValue@_N@@@std@@@std@@QAE@XZ 1005b4d0 f i Configuration.obj
 0001:0005a4d0       ??1?$vector@PAV?$ConfigValue@H@@V?$allocator@PAV?$ConfigValue@H@@@std@@@std@@QAE@XZ 1005b4d0 f i Configuration.obj
 0001:0005a540       ?compute_angle@@YA?AVVector@@ABV1@0@Z 1005b540 f i LegitBot.obj
 0001:0005a620       ?do_aimbot@legitbot@@AAEXPAVC_BaseEntity@@PAVCBaseCombatWeapon@@PAVCUserCmd@CInput@@@Z 1005b620 f   LegitBot.obj
 0001:0005aee0       ?get_fov@@YAMABVVector@@0@Z 1005bee0 f   LegitBot.obj
 0001:0005af70       ?get_hitbox@legitbot@@AAE_NPAVC_BaseEntity@@0AAVVector@@@Z 1005bf70 f   LegitBot.obj
 0001:0005b260       ?get_hitbox_pos@@YA_NPAVC_BaseEntity@@HAAVVector@@@Z 1005c260 f   LegitBot.obj
 0001:0005b3f0       ?hit_chance@legitbot@@AAE_NPAVC_BaseEntity@@PAVCUserCmd@CInput@@PAVCBaseCombatWeapon@@0@Z 1005c3f0 f   LegitBot.obj
 0001:0005bd00       ?m_iShotsFired@C_BaseEntity@@QAEHXZ 1005cd00 f i LegitBot.obj
 0001:0005bda0       ?random_number_range@@YAMMM@Z 1005cda0 f   LegitBot.obj
 0001:0005bf10       ?sanitize_angles@@YA_NAAVVector@@@Z 1005cf10 f i LegitBot.obj
 0001:0005c060       ?triggerbot@legitbot@@AAEXPAVCUserCmd@CInput@@PAVC_BaseEntity@@PAVCBaseCombatWeapon@@@Z 1005d060 f   LegitBot.obj
 0001:0005c4a0       ?AngleVectors2@@YAXABVVector@@AAV1@@Z 1005d4a0 f   MathFunctions.obj
 0001:0005c550       ?AngleVectors@@YAXABVVector@@PAV1@11@Z 1005d550 f   MathFunctions.obj
 0001:0005c6e0       ?AngleVectors@@YAXABVVector@@PAV1@@Z 1005d6e0 f   MathFunctions.obj
 0001:0005c780       ?AverageDifference@@YAXABVVector@@0AAM@Z 1005d780 f   MathFunctions.obj
 0001:0005c7d0       ?CalcAngle@@YA?AVVector@@AAV1@0@Z 1005d7d0 f   MathFunctions.obj
 0001:0005c8b0       ?CalcAngle@@YAXVVector@@0AAV1@@Z 1005d8b0 f   MathFunctions.obj
 0001:0005c990       ?Normalize@@YAXAAVVector@@0@Z 1005d990 f   MathFunctions.obj
 0001:0005ca50       ?VectorAngles@@YAXVVector@@AAV1@@Z 1005da50 f   MathFunctions.obj
 0001:0005cbb0       ?VectorTransform@@YAXVVector@@QAY03MAAV1@@Z 1005dbb0 f   MathFunctions.obj
 0001:0005cc60       ?GetNetvars@Offsetz@@QAEXXZ 1005dc60 f   memesets.obj
 0001:0005e420       ?AutoStrafe@misc@@SAXPAVCUserCmd@CInput@@PAVC_BaseEntity@@VVector@@@Z 1005f420 f   Misc.obj
 0001:0005e960       ?OnCreateMove@misc@@QAEXPAVCUserCmd@CInput@@PAVC_BaseEntity@@@Z 1005f960 f   Misc.obj
 0001:0005f370       ?find@?$basic_string@DU?$char_traits@D@std@@V?$allocator@D@2@@std@@QBEIQBDI@Z 10060370 f i Misc.obj
 0001:0005f480       ?replace@?$basic_string@DU?$char_traits@D@std@@V?$allocator@D@2@@std@@QAEAAV12@IIQBDI@Z 10060480 f i Misc.obj
 0001:0005f5f0       ?setclantag@@YAXPBD@Z      100605f0 f i Misc.obj
 0001:0005f7c0       ?strafe_line_opt@AutoStrafer@@QAEXAANAAH1QAN2NNN22@Z 100607c0 f i Misc.obj
 0001:0005fa20       ?strafe_side@AutoStrafer@@AAEXAANAAH1QANNNNH@Z 10060a20 f i Misc.obj
 0001:0005fd30       ?GetOffset@CNetVarManager@@QAEHPBD0@Z 10060d30 f   NetVarManager.obj
 0001:0005fd90       ?Get_Prop@CNetVarManager@@AAEHPAURecvTable@@PBDPAPAURecvProp@@@Z 10060d90 f   NetVarManager.obj
 0001:0005fe30       ?Initialize@CNetVarManager@@QAEXXZ 10060e30 f   NetVarManager.obj
 0001:0005fe70       ??$emplace_back@H@?$vector@HV?$allocator@H@std@@@std@@QAEX$$QAH@Z 10060e70 f i RageBot.obj
 0001:0005ff60       ??0ragebot@@QAE@XZ         10060f60 f   RageBot.obj
 0001:0005ff80       ??1?$vector@HV?$allocator@H@std@@@std@@QAE@XZ 10060f80 f i RageBot.obj
 0001:0005ff90       ?CanAttack@@YA_NXZ         10060f90 f i RageBot.obj
 0001:00060070       ?DoAimbot@ragebot@@AAEXPAVCUserCmd@CInput@@AA_N@Z 10061070 f   RageBot.obj
 0001:000607c0       ?DoAntiAim@ragebot@@AAEXPAVCUserCmd@CInput@@AA_N@Z 100617c0 f   RageBot.obj
 0001:00061800       ?EdgeAntiAim@@YA_NPAVC_BaseEntity@@PAVCUserCmd@CInput@@MM@Z 10062800 f   RageBot.obj
 0001:000620e0       ?FovToPlayer@ragebot@@AAEMVVector@@0PAVC_BaseEntity@@H@Z 100630e0 f   RageBot.obj
 0001:000621d0       ?HitScan@ragebot@@AAEHPAVC_BaseEntity@@@Z 100631d0 f   RageBot.obj
 0001:00062860       ?OnCreateMove@ragebot@@QAEXPAVCUserCmd@CInput@@AA_N@Z 10063860 f   RageBot.obj
 0001:00062aa0       ?TargetMeetsRequirements@ragebot@@AAE_NPAVC_BaseEntity@@@Z 10063aa0 f   RageBot.obj
 0001:00062bb0       ?hit_chance@ragebot@@QAE_NPAVC_BaseEntity@@PAVCUserCmd@CInput@@PAVCBaseCombatWeapon@@0@Z 10063bb0 f   RageBot.obj
 0001:00063490       ??1Renderer@@QAE@XZ        10064490 f   Renderer.obj
 0001:000634b0       ?Initialize@Renderer@@QAE_NPAUHWND__@@PAUIDirect3DDevice9@@@Z 100644b0 f   Renderer.obj
 0001:000634f0       ?IsActive@Renderer@@QBE_NXZ 100644f0 f   Renderer.obj
 0001:00063510       ?IsReady@Renderer@@QBE_NXZ 10064510 f   Renderer.obj
 0001:00063520       ?hkWndProc@@YGJPAUHWND__@@IIJ@Z 10064520 f   Renderer.obj
 0001:000636b0       ?Clear@Render@@QAEXHHHHVColor@@@Z 100646b0 f   Render.obj
 0001:000636f0       ?DrawOutlinedRect@Render@@QAEXHHHHVColor@@@Z 100646f0 f   Render.obj
 0001:00063730       ?DrawString2@Render@@QAAXKHHVColor@@KPBDZZ 10064730 f   Render.obj
 0001:000638a0       ?GetTextSize@Render@@QAE?AUtagRECT@@KPBD@Z 100648a0 f   Render.obj
 0001:000639a0       ?GradientH@Render@@QAEXHHHHVColor@@0@Z 100649a0 f   Render.obj
 0001:00063a60       ?Line@Render@@QAEXHHHHVColor@@@Z 10064a60 f   Render.obj
 0001:00063a90       ?OutlineCircle@Render@@QAEXHHHHVColor@@@Z 10064a90 f   Render.obj
 0001:00063b20       ?SetupFonts@Render@@QAEXXZ 10064b20 f   Render.obj
 0001:00063c70       ?Text@Render@@QAAXHHVColor@@KPBDZZ 10064c70 f   Render.obj
 0001:00063d40       ?Textf@Render@@QAAXHHVColor@@KPBDZZ 10064d40 f   Render.obj
 0001:00063df0       ?WorldToScreen@Render@@QAE_NAAVVector@@0@Z 10064df0 f   Render.obj
 0001:00063f50       ?GetHitboxPosition@@YA?AVVector@@PAVC_BaseEntity@@H@Z 10064f50 f   MiscFunctions.obj
 0001:000640e0       ?IsGrenade@MiscFunctions@@YA_NPAX@Z 100650e0 f   MiscFunctions.obj
 0001:00064130       ?IsHeavy@MiscFunctions@@YA_NPAX@Z 10065130 f   MiscFunctions.obj
 0001:00064180       ?IsKnife@MiscFunctions@@YA_NPAX@Z 10065180 f   MiscFunctions.obj
 0001:000641b0       ?IsPistol@MiscFunctions@@YA_NPAX@Z 100651b0 f   MiscFunctions.obj
 0001:00064210       ?IsRevolver@MiscFunctions@@YA_NPAX@Z 10065210 f   MiscFunctions.obj
 0001:00064230       ?IsRifle@MiscFunctions@@YA_NPAX@Z 10065230 f   MiscFunctions.obj
 0001:00064280       ?IsSmg@MiscFunctions@@YA_NPAX@Z 10065280 f   MiscFunctions.obj
 0001:000642d0       ?IsSniper@MiscFunctions@@YA_NPAX@Z 100652d0 f   MiscFunctions.obj
 0001:00064310       ?IsVisible@MiscFunctions@@YA_NPAVC_BaseEntity@@0H@Z 10065310 f   MiscFunctions.obj
 0001:00064660       ?NormaliseViewAngle@MiscFunctions@@YAXAAVVector@@@Z 10065660 f   MiscFunctions.obj
 0001:00064770       ?TraceToExit@@YA_NAAVVector@@AAVCGameTrace@@V1@2PAV2@@Z 10065770 f   MiscFunctions.obj
 0001:000648b0       ?UTIL_ClipTraceToPlayers@@YAXPAVC_BaseEntity@@VVector@@1IPAVITraceFilter@@PAVCGameTrace@@@Z 100658b0 f   MiscFunctions.obj
 0001:00064b10       ?UTIL_TraceLine@@YAXABVVector@@0IPAVC_BaseEntity@@HPAVCGameTrace@@@Z 10065b10 f   MiscFunctions.obj
 0001:00064c00       ??_Eios_base@std@@UAEPAXI@Z 10065c00 f i Utilities.obj
 0001:00064c00       ??_Gios_base@std@@UAEPAXI@Z 10065c00 f i Utilities.obj
 0001:00064c60       ??_E?$basic_ios@DU?$char_traits@D@std@@@std@@UAEPAXI@Z 10065c60 f i Utilities.obj
 0001:00064c60       ??_G?$basic_ios@DU?$char_traits@D@std@@@std@@UAEPAXI@Z 10065c60 f i Utilities.obj
 0001:00064cc0       ??_E?$basic_ostream@DU?$char_traits@D@std@@@std@@$4PPPPPPPM@A@AEPAXI@Z 10065cc0 f i Utilities.obj
 0001:00064cc8       ??_E?$basic_ofstream@DU?$char_traits@D@std@@@std@@$4PPPPPPPM@A@AEPAXI@Z 10065cc8 f i Utilities.obj
 0001:00064cd0       ?overflow@?$basic_streambuf@DU?$char_traits@D@std@@@std@@MAEHH@Z 10065cd0 f i Utilities.obj
 0001:00064cd0       ?pbackfail@?$basic_streambuf@DU?$char_traits@D@std@@@std@@MAEHH@Z 10065cd0 f i Utilities.obj
 0001:00064ce0       ?showmanyc@?$basic_streambuf@DU?$char_traits@D@std@@@std@@MAE_JXZ 10065ce0 f i Utilities.obj
 0001:00064cf0       ?underflow@?$basic_streambuf@DU?$char_traits@D@std@@@std@@MAEHXZ 10065cf0 f i Utilities.obj
 0001:00064d00       ?uflow@?$basic_streambuf@DU?$char_traits@D@std@@@std@@MAEHXZ 10065d00 f i Utilities.obj
 0001:00064d30       ?xsgetn@?$basic_streambuf@DU?$char_traits@D@std@@@std@@MAE_JPAD_J@Z 10065d30 f i Utilities.obj
 0001:00064e20       ?xsputn@?$basic_streambuf@DU?$char_traits@D@std@@@std@@MAE_JPBD_J@Z 10065e20 f i Utilities.obj
 0001:00064f10       ?seekoff@?$basic_streambuf@DU?$char_traits@D@std@@@std@@MAE?AV?$fpos@U_Mbstatet@@@2@_JHH@Z 10065f10 f i Utilities.obj
 0001:00064f50       ?seekpos@?$basic_streambuf@DU?$char_traits@D@std@@@std@@MAE?AV?$fpos@U_Mbstatet@@@2@V32@H@Z 10065f50 f i Utilities.obj
 0001:00064f90       ?setbuf@?$basic_streambuf@DU?$char_traits@D@std@@@std@@MAEPAV12@PAD_J@Z 10065f90 f i Utilities.obj
 0001:00064fa0       ?imbue@?$basic_streambuf@DU?$char_traits@D@std@@@std@@MAEXABVlocale@2@@Z 10065fa0 f i Utilities.obj
 0001:00064fb0       ??_G?$basic_streambuf@DU?$char_traits@D@std@@@std@@UAEPAXI@Z 10065fb0 f i Utilities.obj
 0001:00064fb0       ??_E?$basic_streambuf@DU?$char_traits@D@std@@@std@@UAEPAXI@Z 10065fb0 f i Utilities.obj
 0001:00065040       ?_Lock@?$basic_filebuf@DU?$char_traits@D@std@@@std@@UAEXXZ 10066040 f i Utilities.obj
 0001:00065050       ?_Unlock@?$basic_filebuf@DU?$char_traits@D@std@@@std@@UAEXXZ 10066050 f i Utilities.obj
 0001:00065060       ?overflow@?$basic_filebuf@DU?$char_traits@D@std@@@std@@MAEHH@Z 10066060 f i Utilities.obj
 0001:00065280       ?pbackfail@?$basic_filebuf@DU?$char_traits@D@std@@@std@@MAEHH@Z 10066280 f i Utilities.obj
 0001:00065330       ?underflow@?$basic_filebuf@DU?$char_traits@D@std@@@std@@MAEHXZ 10066330 f i Utilities.obj
 0001:00065370       ?uflow@?$basic_filebuf@DU?$char_traits@D@std@@@std@@MAEHXZ 10066370 f i Utilities.obj
 0001:000655e0       ?seekoff@?$basic_filebuf@DU?$char_traits@D@std@@@std@@MAE?AV?$fpos@U_Mbstatet@@@2@_JHH@Z 100665e0 f i Utilities.obj
 0001:000656c0       ?seekpos@?$basic_filebuf@DU?$char_traits@D@std@@@std@@MAE?AV?$fpos@U_Mbstatet@@@2@V32@H@Z 100666c0 f i Utilities.obj
 0001:000657a0       ?setbuf@?$basic_filebuf@DU?$char_traits@D@std@@@std@@MAEPAV?$basic_streambuf@DU?$char_traits@D@std@@@2@PAD_J@Z 100667a0 f i Utilities.obj
 0001:000657f0       ?sync@?$basic_filebuf@DU?$char_traits@D@std@@@std@@MAEHXZ 100667f0 f i Utilities.obj
 0001:00065820       ?imbue@?$basic_filebuf@DU?$char_traits@D@std@@@std@@MAEXABVlocale@2@@Z 10066820 f i Utilities.obj
 0001:00065860       ??_E?$basic_filebuf@DU?$char_traits@D@std@@@std@@UAEPAXI@Z 10066860 f i Utilities.obj
 0001:00065860       ??_G?$basic_filebuf@DU?$char_traits@D@std@@@std@@UAEPAXI@Z 10066860 f i Utilities.obj
 0001:00065890       ??$_Immortalize_impl@V_Iostream_error_category@std@@@std@@YGHPAX0PAPAX@Z 10066890 f i Utilities.obj
 0001:000658b0       ??$use_facet@V?$codecvt@DDU_Mbstatet@@@std@@@std@@YAABV?$codecvt@DDU_Mbstatet@@@0@ABVlocale@0@@Z 100668b0 f i Utilities.obj
 0001:00065a10       ??$use_facet@V?$ctype@D@std@@@std@@YAABV?$ctype@D@0@ABVlocale@0@@Z 10066a10 f i Utilities.obj
 0001:00065b90       ??0?$basic_ostream@DU?$char_traits@D@std@@@std@@QAE@PAV?$basic_streambuf@DU?$char_traits@D@std@@@1@_N@Z 10066b90 f i Utilities.obj
 0001:00065d30       ??0?$fpos@U_Mbstatet@@@std@@QAE@U_Mbstatet@@_J@Z 10066d30 f i Utilities.obj
 0001:00065d60       ??0_Locinfo@std@@QAE@PBD@Z 10066d60 f i Utilities.obj
 0001:00065e20       ??0_System_error@std@@IAE@Verror_code@1@ABV?$basic_string@DU?$char_traits@D@std@@V?$allocator@D@2@@1@@Z 10066e20 f i Utilities.obj
 0001:00066020       ??0_System_error@std@@QAE@ABV01@@Z 10067020 f i Utilities.obj
 0001:00066070       ??0failure@ios_base@std@@QAE@ABV012@@Z 10067070 f i Utilities.obj
 0001:000660c0       ??0failure@ios_base@std@@QAE@PBDABVerror_code@2@@Z 100670c0 f i Utilities.obj
 0001:000661a0       ??0system_error@std@@QAE@ABV01@@Z 100671a0 f i Utilities.obj
 0001:000661f0       ??0vfunc_hook@@QAE@XZ      100671f0 f   Utilities.obj
 0001:00066210       ??1?$_Yarn@D@std@@QAE@XZ   10067210 f i Utilities.obj
 0001:00066210       ??1?$_Yarn@_W@std@@QAE@XZ  10067210 f i Utilities.obj
 0001:00066230       ??1?$basic_filebuf@DU?$char_traits@D@std@@@std@@UAE@XZ 10067230 f i Utilities.obj
 0001:00066370       ??1?$basic_ios@DU?$char_traits@D@std@@@std@@UAE@XZ 10067370 f i Utilities.obj
 0001:000663c0       ??1?$basic_ostream@DU?$char_traits@D@std@@@std@@UAE@XZ 100673c0 f i Utilities.obj
 0001:000663e0       ??1_Locinfo@std@@QAE@XZ    100673e0 f i Utilities.obj
 0001:000664b0       ??1locale@std@@QAE@XZ      100674b0 f i Utilities.obj
 0001:00066500       ??1vfunc_hook@@QAE@XZ      10067500 f   Utilities.obj
 0001:00066620       ??_D?$basic_ofstream@DU?$char_traits@D@std@@@std@@QAEXXZ 10067620 f i Utilities.obj
 0001:000666b0       ??_G?$basic_ofstream@DU?$char_traits@D@std@@@std@@UAEPAXI@Z 100676b0 f i Utilities.obj
 0001:000666b0       ??_E?$basic_ofstream@DU?$char_traits@D@std@@@std@@UAEPAXI@Z 100676b0 f i Utilities.obj
 0001:000666e0       ??_E?$basic_ostream@DU?$char_traits@D@std@@@std@@UAEPAXI@Z 100676e0 f i Utilities.obj
 0001:000666e0       ??_G?$basic_ostream@DU?$char_traits@D@std@@@std@@UAEPAXI@Z 100676e0 f i Utilities.obj
 0001:00066760       ??_E?$codecvt@DDU_Mbstatet@@@std@@MAEPAXI@Z 10067760 f i Utilities.obj
 0001:00066760       ??_G?$codecvt@DDU_Mbstatet@@@std@@MAEPAXI@Z 10067760 f i Utilities.obj
 0001:00066790       ??_G?$ctype@D@std@@MAEPAXI@Z 10067790 f i Utilities.obj
 0001:00066790       ??_E?$ctype@D@std@@MAEPAXI@Z 10067790 f i Utilities.obj
 0001:000667f0       ??_G_Facet_base@std@@UAEPAXI@Z 100677f0 f i Utilities.obj
 0001:000667f0       ??_E_Facet_base@std@@UAEPAXI@Z 100677f0 f i Utilities.obj
 0001:00066820       ??_E_Iostream_error_category@std@@UAEPAXI@Z 10067820 f i Utilities.obj
 0001:00066820       ??_G_Iostream_error_category@std@@UAEPAXI@Z 10067820 f i Utilities.obj
 0001:00066840       ??_Gsystem_error@std@@UAEPAXI@Z 10067840 f i Utilities.obj
 0001:00066840       ??_G_System_error@std@@UAEPAXI@Z 10067840 f i Utilities.obj
 0001:00066840       ??_Gfailure@ios_base@std@@UAEPAXI@Z 10067840 f i Utilities.obj
 0001:00066840       ??_E_System_error@std@@UAEPAXI@Z 10067840 f i Utilities.obj
 0001:00066840       ??_Esystem_error@std@@UAEPAXI@Z 10067840 f i Utilities.obj
 0001:00066840       ??_Efailure@ios_base@std@@UAEPAXI@Z 10067840 f i Utilities.obj
 0001:00066870       ?CloseConsole@U@@YAXXZ     10067870 f   Utilities.obj
 0001:00066880       ?FindPattern@U@@YAKV?$basic_string@DU?$char_traits@D@std@@V?$allocator@D@2@@std@@PAEPAD@Z 10067880 f   Utilities.obj
 0001:000669a0       ?WaitOnModuleHandle@U@@YAKV?$basic_string@DU?$char_traits@D@std@@V?$allocator@D@2@@std@@@Z 100679a0 f   Utilities.obj
 0001:00066a10       ?_Decref@facet@locale@std@@UAEPAV_Facet_base@3@XZ 10067a10 f i Utilities.obj
 0001:00066a30       ?_Endwrite@?$basic_filebuf@DU?$char_traits@D@std@@@std@@IAE_NXZ 10067a30 f i Utilities.obj
 0001:00066ba0       ?_Gnavail@?$basic_streambuf@DU?$char_traits@D@std@@@std@@IBE_JXZ 10067ba0 f i Utilities.obj
 0001:00066bc0       ?_Incref@facet@locale@std@@UAEXXZ 10067bc0 f i Utilities.obj
 0001:00066bd0       ?_Init@?$basic_filebuf@DU?$char_traits@D@std@@@std@@IAEXPAU_iobuf@@W4_Initfl@12@@Z 10067bd0 f i Utilities.obj
 0001:00066cb0       ?_Init@?$basic_streambuf@DU?$char_traits@D@std@@@std@@IAEXXZ 10067cb0 f i Utilities.obj
 0001:00066d10       ?_Pnavail@?$basic_streambuf@DU?$char_traits@D@std@@@std@@IBE_JXZ 10067d10 f i Utilities.obj
 0001:00066d30       ?_Reset_back@?$basic_filebuf@DU?$char_traits@D@std@@@std@@AAEXXZ 10067d30 f i Utilities.obj
 0001:00066d60       ?clear@ios_base@std@@QAEXH@Z 10067d60 f i Utilities.obj
 0001:00066de0       ?default_error_condition@error_category@std@@UBE?AVerror_condition@2@H@Z 10067de0 f i Utilities.obj
 0001:00066e00       ?do_length@?$codecvt@DDU_Mbstatet@@@std@@MBEHAAU_Mbstatet@@PBD1I@Z 10067e00 f i Utilities.obj
 0001:00066e20       ?do_max_length@codecvt_base@std@@MBEHXZ 10067e20 f i Utilities.obj
 0001:00066e20       ?do_encoding@codecvt_base@std@@MBEHXZ 10067e20 f i Utilities.obj
 0001:00066e30       ?do_narrow@?$ctype@D@std@@MBEDDD@Z 10067e30 f i Utilities.obj
 0001:00066e40       ?do_narrow@?$ctype@D@std@@MBEPBDPBD0DPAD@Z 10067e40 f i Utilities.obj
 0001:00066e60       ?do_in@?$codecvt@DDU_Mbstatet@@@std@@MBEHAAU_Mbstatet@@PBD1AAPBDPAD3AAPAD@Z 10067e60 f i Utilities.obj
 0001:00066e60       ?do_out@?$codecvt@DDU_Mbstatet@@@std@@MBEHAAU_Mbstatet@@PBD1AAPBDPAD3AAPAD@Z 10067e60 f i Utilities.obj
 0001:00066e80       ?do_tolower@?$ctype@D@std@@MBEDD@Z 10067e80 f i Utilities.obj
 0001:00066ea0       ?do_tolower@?$ctype@D@std@@MBEPBDPADPBD@Z 10067ea0 f i Utilities.obj
 0001:00066ef0       ?do_toupper@?$ctype@D@std@@MBEDD@Z 10067ef0 f i Utilities.obj
 0001:00066f10       ?do_toupper@?$ctype@D@std@@MBEPBDPADPBD@Z 10067f10 f i Utilities.obj
 0001:00066f60       ?do_unshift@?$codecvt@DDU_Mbstatet@@@std@@MBEHAAU_Mbstatet@@PAD1AAPAD@Z 10067f60 f i Utilities.obj
 0001:00066f80       ?do_widen@?$ctype@D@std@@MBEDD@Z 10067f80 f i Utilities.obj
 0001:00066f90       ?do_widen@?$ctype@D@std@@MBEPBDPBD0PAD@Z 10067f90 f i Utilities.obj
 0001:00066fb0       ?equivalent@error_category@std@@UBE_NABVerror_code@2@H@Z 10067fb0 f i Utilities.obj
 0001:00066fe0       ?equivalent@error_category@std@@UBE_NHABVerror_condition@2@@Z 10067fe0 f i Utilities.obj
 0001:00067020       ?make_error_code@std@@YA?AVerror_code@1@W4io_errc@1@@Z 10068020 f i Utilities.obj
 0001:000670a0       ?message@_Iostream_error_category@std@@UBE?AV?$basic_string@DU?$char_traits@D@std@@V?$allocator@D@2@@2@H@Z 100680a0 f i Utilities.obj
 0001:00067120       ?name@_Iostream_error_category@std@@UBEPBDXZ 10068120 f i Utilities.obj
 0001:00067130       ?pattern_scan@U@@YAPAEPAXPBD@Z 10068130 f   Utilities.obj
 0001:000671d0       ?setup@vfunc_hook@@QAE_NPAX@Z 100681d0 f   Utilities.obj
 0001:00067340       ?widen@?$basic_ios@DU?$char_traits@D@std@@@std@@QBEDD@Z 10068340 f i Utilities.obj
 0001:000673d3       _K32GetModuleInformation@16 100683d3 f   kernel32:KERNEL32.dll
 0001:000673d9       @__security_check_cookie@4 100683d9 f   LIBCMT:_secchk_.obj
 0001:000673ea       ??2@YAPAXI@Z               100683ea f   LIBCMT:new_scalar.obj
 0001:0006741a       ??3@YAXPAX@Z               1006841a f   LIBCMT:delete_scalar.obj
 0001:0006741f       ??3@YAXPAXI@Z              1006841f f   LIBCMT:delete_scalar_size.obj
 0001:0006742d       ??_Etype_info@@UAEPAXI@Z   1006842d f i LIBCMT:std_type_info_static.obj
 0001:0006742d       ??_Gtype_info@@UAEPAXI@Z   1006842d f i LIBCMT:std_type_info_static.obj
 0001:00067450       ??$__crt_fast_encode_pointer@P6GXPAU_RTL_CONDITION_VARIABLE@@@Z@@YAP6GXPAU_RTL_CONDITION_VARIABLE@@@ZQ6GX0@Z@Z 10068450 f i LIBCMT:thread_safe_statics.obj
 0001:00067450       ??$__crt_fast_encode_pointer@PAP6AXXZ@@YAPAP6AXXZQAP6AXXZ@Z 10068450 f i LIBCMT:utility.obj
 0001:00067450       ??$__crt_fast_encode_pointer@PAX@@YAPAXQAX@Z 10068450 f i libvcruntime:winapi_downlevel.obj
 0001:00067450       ??$__crt_fast_encode_pointer@P6GHPAU_RTL_CONDITION_VARIABLE@@PAU_RTL_CRITICAL_SECTION@@K@Z@@YAP6GHPAU_RTL_CONDITION_VARIABLE@@PAU_RTL_CRITICAL_SECTION@@K@ZQ6GH01K@Z@Z 10068450 f i LIBCMT:thread_safe_statics.obj
 0001:000674b1       ___scrt_acquire_startup_lock 100684b1 f   LIBCMT:utility.obj
 0001:000674e6       ___scrt_dllmain_after_initialize_c 100684e6 f   LIBCMT:utility.obj
 0001:00067511       ___scrt_dllmain_before_initialize_c 10068511 f   LIBCMT:utility.obj
 0001:0006751f       ___scrt_dllmain_crt_thread_attach 1006851f f   LIBCMT:utility.obj
 0001:0006753e       ___scrt_dllmain_crt_thread_detach 1006853e f   LIBCMT:utility.obj
 0001:0006754b       ___scrt_dllmain_exception_filter 1006854b f   LIBCMT:utility.obj
 0001:0006757e       ___scrt_dllmain_uninitialize_c 1006857e f   LIBCMT:utility.obj
 0001:000675a1       ___scrt_dllmain_uninitialize_critical 100685a1 f   LIBCMT:utility.obj
 0001:000675ae       ___scrt_initialize_crt     100685ae f   LIBCMT:utility.obj
 0001:000675e7       ___scrt_initialize_onexit_tables 100685e7 f   LIBCMT:utility.obj
 0001:00067691       ___scrt_is_nonwritable_in_current_image 10068691 f   LIBCMT:utility.obj
 0001:0006771b       ___scrt_release_startup_lock 1006871b f   LIBCMT:utility.obj
 0001:00067738       ___scrt_uninitialize_crt   10068738 f   LIBCMT:utility.obj
 0001:00067760       __onexit                   10068760 f   LIBCMT:utility.obj
 0001:0006779b       _atexit                    1006879b f   LIBCMT:utility.obj
 0001:000678b3       __Init_thread_abort        100688b3 f   LIBCMT:thread_safe_statics.obj
 0001:000678cc       __Init_thread_footer       100688cc f   LIBCMT:thread_safe_statics.obj
 0001:0006790b       __Init_thread_header       1006890b f   LIBCMT:thread_safe_statics.obj
 0001:00067951       __Init_thread_lock         10068951 f   LIBCMT:thread_safe_statics.obj
 0001:0006795d       __Init_thread_notify       1006895d f   LIBCMT:thread_safe_statics.obj
 0001:0006799e       __Init_thread_unlock       1006899e f   LIBCMT:thread_safe_statics.obj
 0001:000679aa       __Init_thread_wait         100689aa f   LIBCMT:thread_safe_statics.obj
 0001:00067a0c       ??_U@YAPAXI@Z              10068a0c f   LIBCMT:new_array.obj
 0001:00067a20       __alloca_probe             10068a20 f   LIBCMT:chkstk.obj
 0001:00067a20       __chkstk                   10068a20 f   LIBCMT:chkstk.obj
 0001:00067a50       __ftoui3                   10068a50 f   LIBCMT:_ftol3_.obj
 0001:00067a5f       __ftoul3                   10068a5f f   LIBCMT:_ftol3_.obj
 0001:00067a6e       __ftol3                    10068a6e f   LIBCMT:_ftol3_.obj
 0001:00067a7b       __ftol3_NaN                10068a7b f   LIBCMT:_ftol3_.obj
 0001:00067a93       __ftol3_work               10068a93 f   LIBCMT:_ftol3_.obj
 0001:00067b19       __ftol3_common             10068b19 f   LIBCMT:_ftol3_.obj
 0001:00067bdb       __ftol3_arg_error          10068bdb f   LIBCMT:_ftol3_.obj
 0001:00067bed       __ftol3_except             10068bed f   LIBCMT:_ftol3_.obj
 0001:00067c31       __dtoui3                   10068c31 f   LIBCMT:_ftol3_.obj
 0001:00067c40       __dtoul3                   10068c40 f   LIBCMT:_ftol3_.obj
 0001:00067c4f       __dtol3                    10068c4f f   LIBCMT:_ftol3_.obj
 0001:00067c5c       __dtol3_NaN                10068c5c f   LIBCMT:_ftol3_.obj
 0001:00067c79       __dtol3_work               10068c79 f   LIBCMT:_ftol3_.obj
 0001:00067d60       __ultod3                   10068d60 f   LIBCMT:_ftol3_.obj
 0001:00067da0       __ltod3                    10068da0 f   LIBCMT:_ftol3_.obj
 0001:00067dc7       ??_M@YGXPAXIIP6EX0@Z@Z     10068dc7 f   LIBCMT:ehvecdtr.obj
 0001:00067e41       ?__ArrayUnwind@@YGXPAXIIP6EX0@Z@Z 10068e41 f   LIBCMT:ehvecdtr.obj
 0001:00067eae       ??_V@YAXPAX@Z              10068eae f   LIBCMT:delete_array.obj
 0001:00067eb3       ??_L@YGXPAXIIP6EX0@Z1@Z    10068eb3 f   LIBCMT:ehvecctr.obj
 0001:00067f20       ___vdecl_cos2              10068f20 f   LIBCMT:_svml_dcos2_dispatch_.obj
 0001:00067f30       ___vdecl_sin2              10068f30 f   LIBCMT:_svml_dsin2_dispatch_.obj
 0001:00067f40       __alloca_probe_16          10068f40 f   LIBCMT:alloca16.obj
 0001:00067f56       __alloca_probe_8           10068f56     LIBCMT:alloca16.obj
 0001:00067f70       __ftol2_sse                10068f70 f   LIBCMT:_ftol2_.obj
 0001:00067f79       __ftol2_pentium4           10068f79 f   LIBCMT:_ftol2_.obj
 0001:00067f8c       __ftol2_sse_excpt          10068f8c f   LIBCMT:_ftol2_.obj
 0001:00067fb0       __ftol2                    10068fb0 f   LIBCMT:_ftol2_.obj
 0001:00068025       ___raise_securityfailure   10069025 f   LIBCMT:gs_report.obj
 0001:0006804d       ___report_gsfailure        1006904d f   LIBCMT:gs_report.obj
 0001:00068148       ___report_rangecheckfailure 10069148 f   LIBCMT:gs_report.obj
 0001:00068154       ___report_securityfailure  10069154 f   LIBCMT:gs_report.obj
 0001:0006851e       __DllMainCRTStartup@12     1006951e f   LIBCMT:dll_dllmain.obj
 0001:00068541       ??0bad_alloc@std@@QAE@ABV01@@Z 10069541 f i LIBCMT:throw_bad_alloc.obj
 0001:0006855c       ??0bad_alloc@std@@QAE@XZ   1006955c f i LIBCMT:throw_bad_alloc.obj
 0001:00068574       ??0bad_array_new_length@std@@QAE@ABV01@@Z 10069574 f i LIBCMT:throw_bad_alloc.obj
 0001:0006858f       ??0bad_array_new_length@std@@QAE@XZ 1006958f f i LIBCMT:throw_bad_alloc.obj
 0001:000685a7       ?_Xbad_alloc@std@@YAXXZ    100695a7 f   libcpmt:xthrow.obj
 0001:000685a7       ?__scrt_throw_std_bad_alloc@@YAXXZ 100695a7 f   LIBCMT:throw_bad_alloc.obj
 0001:000685c4       ?__scrt_throw_std_bad_array_new_length@@YAXXZ 100695c4 f   LIBCMT:throw_bad_alloc.obj
 0001:000685e1       ___isa_available_init      100695e1 f   LIBCMT:_cpu_disp_.obj
 0001:00068780       __get_startup_argv_mode    10069780 f   LIBCMT:argv_mode.obj
 0001:00068784       ___scrt_is_ucrt_dll_in_use 10069784 f   LIBCMT:ucrt_detection.obj
 0001:00068790       ___scrt_fastfail           10069790 f   LIBCMT:utility_desktop.obj
 0001:000688ac       __crt_debugger_hook        100698ac f   LIBCMT:utility_desktop.obj
 0001:000688b4       @_guard_check_icall@4      100698b4 f i LIBCMT:checkcfg.obj
 0001:000688c0       __SEH_prolog4              100698c0 f   LIBCMT:_sehprolg4_.obj
 0001:00068906       __SEH_epilog4              10069906 f   LIBCMT:_sehprolg4_.obj
 0001:00068920       ___sse2_cos2               10069920 f   LIBCMT:_svml_dcos2_sse2_.obj
 0001:00068ac0       ___sse2_sin2               10069ac0 f   LIBCMT:_svml_dsin2_sse2_.obj
 0001:00068ccf       ___security_init_cookie    10069ccf f   LIBCMT:gs_support.obj
 0001:00068d22       ?__scrt_initialize_type_info@@YAXXZ 10069d22 f   LIBCMT:tncleanup.obj
 0001:00068d2e       ?__scrt_uninitialize_type_info@@YAXXZ 10069d2e f   LIBCMT:tncleanup.obj
 0001:00068d3a       ___scrt_initialize_default_local_stdio_options 10069d3a f   LIBCMT:default_local_stdio_options.obj
 0001:00068d57       ___scrt_get_dyn_tls_init_callback 10069d57 f   LIBCMT:dyn_tls_init.obj
 0001:00068d5d       __RTC_Initialize           10069d5d f   LIBCMT:_initsect_.obj
 0001:00068d88       __RTC_Terminate            10069d88 f   LIBCMT:_initsect_.obj
 0001:00068dd0       ___common_sin_reduction_LA 10069dd0 f   LIBCMT:_svml_dtrig_.obj
 0001:00069120       ___common_cos_reduction_LA 1006a120 f   LIBCMT:_svml_dtrig_.obj
 0001:00069410       ___common_pi04_reduction_LA 1006a410 f   LIBCMT:_svml_dtrig_.obj
 0001:00069720       ??0exception@std@@QAE@QBD@Z 1006a720 f i libcpmt:xthrow.obj
 0001:00069757       ??0invalid_argument@std@@QAE@ABV01@@Z 1006a757 f i libcpmt:xthrow.obj
 0001:00069772       ??0invalid_argument@std@@QAE@PBD@Z 1006a772 f i libcpmt:xthrow.obj
 0001:00069793       ??0length_error@std@@QAE@ABV01@@Z 1006a793 f i libcpmt:xthrow.obj
 0001:000697ae       ??0length_error@std@@QAE@PBD@Z 1006a7ae f i libcpmt:xthrow.obj
 0001:000697cf       ??0logic_error@std@@QAE@ABV01@@Z 1006a7cf f i libcpmt:xthrow.obj
 0001:000697ea       ??0out_of_range@std@@QAE@ABV01@@Z 1006a7ea f i libcpmt:xthrow.obj
 0001:00069805       ??0out_of_range@std@@QAE@PBD@Z 1006a805 f i libcpmt:xthrow.obj
 0001:00069830       ??1length_error@std@@UAE@XZ 1006a830 f i libcpmt:xthrow.obj
 0001:00069830       ??1bad_exception@std@@UAE@XZ 1006a830 f i libvcruntime:frame.obj
 0001:00069830       ??1invalid_argument@std@@UAE@XZ 1006a830 f i libcpmt:xthrow.obj
 0001:00069830       ??1failure@ios_base@std@@UAE@XZ 1006a830 f i Utilities.obj
 0001:00069830       ??1bad_array_new_length@std@@UAE@XZ 1006a830 f i LIBCMT:throw_bad_alloc.obj
 0001:00069830       ??1out_of_range@std@@UAE@XZ 1006a830 f i libcpmt:xthrow.obj
 0001:00069830       ??1bad_alloc@std@@UAE@XZ   1006a830 f i LIBCMT:throw_bad_alloc.obj
 0001:00069830       ??1runtime_error@std@@UAE@XZ 1006a830 f i Hooks.obj
 0001:00069841       ??_Ebad_exception@std@@UAEPAXI@Z 1006a841 f i libvcruntime:frame.obj
 0001:00069841       ??_Glogic_error@std@@UAEPAXI@Z 1006a841 f i libcpmt:xthrow.obj
 0001:00069841       ??_Elength_error@std@@UAEPAXI@Z 1006a841 f i libcpmt:xthrow.obj
 0001:00069841       ??_Gbad_array_new_length@std@@UAEPAXI@Z 1006a841 f i LIBCMT:throw_bad_alloc.obj
 0001:00069841       ??_Elogic_error@std@@UAEPAXI@Z 1006a841 f i libcpmt:xthrow.obj
 0001:00069841       ??_Gbad_exception@std@@UAEPAXI@Z 1006a841 f i libvcruntime:frame.obj
 0001:00069841       ??_Eout_of_range@std@@UAEPAXI@Z 1006a841 f i libcpmt:xthrow.obj
 0001:00069841       ??_Ginvalid_argument@std@@UAEPAXI@Z 1006a841 f i libcpmt:xthrow.obj
 0001:00069841       ??_Einvalid_argument@std@@UAEPAXI@Z 1006a841 f i libcpmt:xthrow.obj
 0001:00069841       ??_Gout_of_range@std@@UAEPAXI@Z 1006a841 f i libcpmt:xthrow.obj
 0001:00069841       ??_Ebad_array_new_length@std@@UAEPAXI@Z 1006a841 f i LIBCMT:throw_bad_alloc.obj
 0001:00069841       ??_Glength_error@std@@UAEPAXI@Z 1006a841 f i libcpmt:xthrow.obj
 0001:00069841       ??_Gbad_alloc@std@@UAEPAXI@Z 1006a841 f i LIBCMT:throw_bad_alloc.obj
 0001:00069841       ??_Ebad_alloc@std@@UAEPAXI@Z 1006a841 f i LIBCMT:throw_bad_alloc.obj
 0001:0006986e       ?_Xinvalid_argument@std@@YAXPBD@Z 1006a86e f   libcpmt:xthrow.obj
 0001:0006988e       ?_Xlength_error@std@@YAXPBD@Z 1006a88e f   libcpmt:xthrow.obj
 0001:000698ae       ?_Xout_of_range@std@@YAXPBD@Z 1006a8ae f   libcpmt:xthrow.obj
 0001:000698ce       ?_Random_device@std@@YAIXZ 1006a8ce f   libcpmt:xrngdev.obj
 0001:000698f2       ?_Addstd@ios_base@std@@SAXPAV12@@Z 1006a8f2 f   libcpmt:ios.obj
 0001:00069943       ?_Callfns@ios_base@std@@AAEXW4event@12@@Z 1006a943 f i libcpmt:ios.obj
 0001:00069975       ?_Ios_base_dtor@ios_base@std@@CAXPAV12@@Z 1006a975 f   libcpmt:ios.obj
 0001:000699b5       ?_Tidy@ios_base@std@@AAEXXZ 1006a9b5 f i libcpmt:ios.obj
 0001:000699fd       ??0_Init_locks@std@@QAE@XZ 1006a9fd f   libcpmt:xlock.obj
 0001:00069a2a       ??0_Lockit@std@@QAE@H@Z    1006aa2a f   libcpmt:xlock.obj
 0001:00069a5b       ??1_Init_locks@std@@QAE@XZ 1006aa5b f   libcpmt:xlock.obj
 0001:00069a82       ??1_Lockit@std@@QAE@XZ     1006aa82 f   libcpmt:xlock.obj
 0001:00069aa1       __Getctype                 1006aaa1 f   libcpmt:_tolower.obj
 0001:00069b0c       __Tolower                  1006ab0c f   libcpmt:_tolower.obj
 0001:00069c0c       __Toupper                  1006ac0c f   libcpmt:_toupper.obj
 0001:00069d0c       ??0_Locimp@locale@std@@AAE@_N@Z 1006ad0c f i libcpmt:locale0.obj
 0001:00069d4f       ??1_Fac_node@std@@QAE@XZ   1006ad4f f i libcpmt:locale0.obj
 0001:00069dae       ??1_Fac_tidy_reg_t@std@@QAE@XZ 1006adae f i libcpmt:locale0.obj
 0001:00069dd5       ??1_Locimp@locale@std@@MAE@XZ 1006add5 f i libcpmt:locale0.obj
 0001:00069e30       ??4?$_Yarn@D@std@@QAEAAV01@PBD@Z 1006ae30 f i libcpmt:locale0.obj
 0001:00069e84       ??_G_Locimp@locale@std@@MAEPAXI@Z 1006ae84 f i libcpmt:locale0.obj
 0001:00069e84       ??_E_Locimp@locale@std@@MAEPAXI@Z 1006ae84 f i libcpmt:locale0.obj
 0001:00069ea6       ?_Facet_Register@std@@YAXPAV_Facet_base@1@@Z 1006aea6 f   libcpmt:locale0.obj
 0001:00069ed4       ?_Getgloballocale@locale@std@@CAPAV_Locimp@12@XZ 1006aed4 f   libcpmt:locale0.obj
 0001:00069eda       ?_Init@locale@std@@CAPAV_Locimp@12@_N@Z 1006aeda f   libcpmt:locale0.obj
 0001:00069f68       ?_Locimp_dtor@_Locimp@locale@std@@CAXPAV123@@Z 1006af68 f   libcpmt:locale0.obj
 0001:00069fdd       ?_Locinfo_ctor@_Locinfo@std@@SAXPAV12@PBD@Z 1006afdd f   libcpmt:locale0.obj
 0001:0006a028       ?_Locinfo_dtor@_Locinfo@std@@SAXPAV12@@Z 1006b028 f   libcpmt:locale0.obj
 0001:0006a04a       ?_New_Locimp@_Locimp@locale@std@@CAPAV123@_N@Z 1006b04a f   libcpmt:locale0.obj
 0001:0006a06f       ?_Setgloballocale@locale@std@@CAXPAX@Z 1006b06f f   libcpmt:locale0.obj
 0001:0006a097       __Deletegloballocale       1006b097 f   libcpmt:locale0.obj
 0001:0006a0fc       ?_Execute_once@std@@YAHAAUonce_flag@1@P6GHPAX1PAPAX@Z1@Z 1006b0fc f   libcpmt:xonce.obj
 0001:0006a114       ?_Syserror_map@std@@YAPBDH@Z 1006b114 f   libcpmt:syserror.obj
 0001:0006a139       __Mtxdst                   1006b139 f   libcpmt:xmtx.obj
 0001:0006a147       __Mtxinit                  1006b147 f   libcpmt:xmtx.obj
 0001:0006a15e       __Mtxlock                  1006b15e f   libcpmt:xmtx.obj
 0001:0006a16c       __Mtxunlock                1006b16c f   libcpmt:xmtx.obj
 0001:0006a17a       ___crtLCMapStringA         1006b17a f   libcpmt:StlLCMapStringA.obj
 0001:0006a351       __freea_crt                1006b351 f i libcpmt:StlLCMapStringA.obj
 0001:0006a36f       ??1_Init_atexit@@QAE@XZ    1006b36f f i libcpmt:iosptrs.obj
 0001:0006a3d3       ?_Atexit@@YAXP6AXXZ@Z      1006b3d3 f   libcpmt:iosptrs.obj
 0001:0006a7ab       ___crtInitOnceExecuteOnce  1006b7ab f   libcpmt:winapisupp.obj
 0001:0006a839       ___crtInitializeCriticalSectionEx 1006b839 f   libcpmt:winapisupp.obj
 0001:0006a871       _GetTableIndexFromLocaleName 1006b871 f   libcpmt:winapinls.obj
 0001:0006a8bf       ___crtDownlevelLocaleNameToLCID 1006b8bf f   libcpmt:winapinls.obj
 0001:0006a8e9       ___crtLCMapStringEx        1006b8e9 f   libcpmt:winapinls.obj
 0001:0006a93f       ___wcsnicmp_ascii          1006b93f f   libcpmt:winapinls.obj
 0001:0006a9a9       _ImmGetContext@4           1006b9a9 f   imm32:IMM32.dll
 0001:0006a9af       _ImmSetCompositionWindow@8 1006b9af f   imm32:IMM32.dll
 0001:0006a9b5       __get_purecall_handler     1006b9b5 f   libvcruntime:purevirt.obj
 0001:0006a9ca       __purecall                 1006b9ca f   libvcruntime:purevirt.obj
 0001:0006a9f0       _memmove                   1006b9f0 f   libvcruntime:memmove.obj
 0001:0006af64       __CxxThrowException@8      1006bf64 f   libvcruntime:throw.obj
 0001:0006afd2       ?_CallCatchBlock2@@YAPAXPAUEHRegistrationNode@@PBU_s_FuncInfo@@PAXHK@Z 1006bfd2 f   libvcruntime:trnsctrl.obj
 0001:0006b032       ?_CallSETranslator@@YAHPAUEHExceptionRecord@@PAUEHRegistrationNode@@PAX2PBU_s_FuncInfo@@H1@Z 1006c032 f   libvcruntime:trnsctrl.obj
 0001:0006b10f       ?_GetRangeOfTrysToCheck@@YAPBU_s_TryBlockMapEntry@@PBU_s_FuncInfo@@HHPAI1@Z 1006c10f f   libvcruntime:trnsctrl.obj
 0001:0006b187       ?_JumpToContinuation@@YGXPAXPAUEHRegistrationNode@@@Z 1006c187 f   libvcruntime:trnsctrl.obj
 0001:0006b1b9       ?_UnwindNestedFrames@@YGXPAUEHRegistrationNode@@PAUEHExceptionRecord@@@Z 1006c1b9 f   libvcruntime:trnsctrl.obj
 0001:0006b20e       __CatchGuardHandler        1006c20e f   libvcruntime:trnsctrl.obj
 0001:0006b23f       __CreateFrameInfo          1006c23f f   libvcruntime:trnsctrl.obj
 0001:0006b263       __FindAndUnlinkFrame       1006c263 f   libvcruntime:trnsctrl.obj
 0001:0006b2ad       __TranslatorGuardHandler   1006c2ad f   libvcruntime:trnsctrl.obj
 0001:0006b34c       ___CxxFrameHandler3        1006c34c f   libvcruntime:trnsctrl.obj
 0001:0006b390       _memcpy                    1006c390 f   libvcruntime:memcpy.obj
 0001:0006b904       ___DestructExceptionObject 1006c904 f   libvcruntime:ehhelpers.obj
 0001:0006b998       ?_CallMemberFunction0@@YGXQAX0@Z 1006c998 f i libvcruntime:ehhelpers.obj
 0001:0006b9a5       __IsExceptionObjectToBeDestroyed 1006c9a5 f   libvcruntime:ehhelpers.obj
 0001:0006b9cb       ___AdjustPointer           1006c9cb f   libvcruntime:ehhelpers.obj
 0001:0006b9f0       ___FrameUnwindFilter       1006c9f0 f   libvcruntime:ehhelpers.obj
 0001:0006ba35       ___std_terminate           1006ca35 f   libvcruntime:ehhelpers.obj
 0001:0006ba40       _memset                    1006ca40 f   libvcruntime:memset.obj
 0001:0006bba0       _strstr                    1006cba0 f   libvcruntime:strstr.obj
 0001:0006be10       _memchr                    1006ce10 f   libvcruntime:memchr.obj
 0001:0006bebd       ___std_exception_copy      1006cebd f   libvcruntime:std_exception.obj
 0001:0006bf20       ___std_exception_destroy   1006cf20 f   libvcruntime:std_exception.obj
 0001:0006bf40       _strchr                    1006cf40 f   libvcruntime:strchr.obj
 0001:0006bfae       ___from_strstr_to_strchr   1006cfae     libvcruntime:strchr.obj
 0001:0006c06b       ___vcrt_initialize         1006d06b f   libvcruntime:initialization.obj
 0001:0006c094       ___vcrt_thread_attach      1006d094 f   libvcruntime:initialization.obj
 0001:0006c09f       ___vcrt_thread_detach      1006d09f f   libvcruntime:initialization.obj
 0001:0006c0aa       ___vcrt_uninitialize       1006d0aa f   libvcruntime:initialization.obj
 0001:0006c0c9       ___vcrt_uninitialize_critical 1006d0c9 f   libvcruntime:initialization.obj
 0001:0006c120       __except_handler4          1006d120 f   libvcruntime:_chandler4_.obj
 0001:0006c3cc       ___vcrt_FlsAlloc           1006d3cc f   libvcruntime:winapi_downlevel.obj
 0001:0006c406       ___vcrt_FlsFree            1006d406 f   libvcruntime:winapi_downlevel.obj
 0001:0006c440       ___vcrt_FlsGetValue        1006d440 f   libvcruntime:winapi_downlevel.obj
 0001:0006c47a       ___vcrt_FlsSetValue        1006d47a f   libvcruntime:winapi_downlevel.obj
 0001:0006c4b7       ___vcrt_InitializeCriticalSectionEx 1006d4b7 f   libvcruntime:winapi_downlevel.obj
 0001:0006c4fd       ___vcrt_initialize_winapi_thunks 1006d4fd f   libvcruntime:winapi_downlevel.obj
 0001:0006c537       ___vcrt_uninitialize_winapi_thunks 1006d537 f   libvcruntime:winapi_downlevel.obj
 0001:0006c569       ___std_type_info_compare   1006d569 f   libvcruntime:std_type_info.obj
 0001:0006c5a5       ___std_type_info_destroy_list 1006d5a5 f   libvcruntime:std_type_info.obj
 0001:0006c5c8       _memcmp                    1006d5c8 f   libvcruntime:_memcmp_.obj
 0001:0006db48       ___vcrt_initialize_pure_virtual_call_handler 1006eb48 f   libvcruntime:purevirt_data.obj
 0001:0006db65       ___vcrt_freefls@4          1006eb65 f   libvcruntime:per_thread_data.obj
 0001:0006db81       ___vcrt_freeptd            1006eb81 f   libvcruntime:per_thread_data.obj
 0001:0006dbb7       ___vcrt_getptd             1006ebb7 f   libvcruntime:per_thread_data.obj
 0001:0006dbc5       ___vcrt_getptd_noexit      1006ebc5 f   libvcruntime:per_thread_data.obj
 0001:0006dc57       ___vcrt_initialize_ptd     1006ec57 f   libvcruntime:per_thread_data.obj
 0001:0006dc8a       ___vcrt_uninitialize_ptd   1006ec8a f   libvcruntime:per_thread_data.obj
 0001:0006dcb0       __CallSettingFrame@12      1006ecb0 f   libvcruntime:lowhelpr.obj
 0001:0006dcd7       __NLG_Return               1006ecd7     libvcruntime:lowhelpr.obj
 0001:0006dcfc       ??0bad_exception@std@@QAE@ABV01@@Z 1006ecfc f i libvcruntime:frame.obj
 0001:0006dd17       ??0bad_exception@std@@QAE@XZ 1006ed17 f i libvcruntime:frame.obj
 0001:0006dd2f       ??8type_info@@QBE_NABV0@@Z 1006ed2f f i libvcruntime:frame.obj
 0001:0006e546       ?_CallMemberFunction1@@YGXQAX00@Z 1006f546 f i libvcruntime:frame.obj
 0001:0006e556       ?_CallMemberFunction2@@YGXQAX00H@Z 1006f556 f i libvcruntime:frame.obj
 0001:0006e569       ___BuildCatchObject        1006f569 f   libvcruntime:frame.obj
 0001:0006e5f8       ___BuildCatchObjectHelper  1006f5f8 f   libvcruntime:frame.obj
 0001:0006e726       ___FrameUnwindToState      1006f726 f   libvcruntime:frame.obj
 0001:0006e7ee       ___InternalCxxFrameHandler 1006f7ee f   libvcruntime:frame.obj
 0001:0006e8ea       ___TypeMatch               1006f8ea f   libvcruntime:frame.obj
 0001:0006e978       ___except_validate_context_record 1006f978 f   libvcruntime:jbcxrval.obj
 0001:0006e9a8       ___except_validate_jump_buffer 1006f9a8 f   libvcruntime:jbcxrval.obj
 0001:0006e9d5       ___vcrt_initialize_locks   1006f9d5 f   libvcruntime:locks.obj
 0001:0006ea11       ___vcrt_uninitialize_locks 1006fa11 f   libvcruntime:locks.obj
 0001:0006ea40       __local_unwind4            1006fa40 f   libvcruntime:_exsup4_.obj
 0001:0006eb18       __seh_longjmp_unwind4@4    1006fb18 f   libvcruntime:_exsup4_.obj
 0001:0006eb40       @_EH4_CallFilterFunc@8     1006fb40 f   libvcruntime:_exsup4_.obj
 0001:0006eb58       @_EH4_TransferToHandler@8  1006fb58 f   libvcruntime:_exsup4_.obj
 0001:0006eb74       @_EH4_GlobalUnwind2@8      1006fb74 f   libvcruntime:_exsup4_.obj
 0001:0006eb90       @_EH4_LocalUnwind@16       1006fb90 f   libvcruntime:_exsup4_.obj
 0001:0006ebb0       __global_unwind2           1006fbb0 f   libvcruntime:_exsup_.obj
 0001:0006ec16       __local_unwind2            1006fc16 f   libvcruntime:_exsup_.obj
 0001:0006ec9a       __abnormal_termination     1006fc9a f   libvcruntime:_exsup_.obj
 0001:0006ecc0       __NLG_Notify1              1006fcc0 f   libvcruntime:_exsup_.obj
 0001:0006eccc       __NLG_Notify               1006fccc f   libvcruntime:_exsup_.obj
 0001:0006ece3       __NLG_Dispatch2            1006fce3     libvcruntime:_exsup_.obj
 0001:0006ece3       __NLG_Dispatch             1006fce3     libvcruntime:_exsup_.obj
 0001:0006eceb       __NLG_Call                 1006fceb f   libvcruntime:_exsup_.obj
 0001:0006eced       __NLG_Return2              1006fced     libvcruntime:_exsup_.obj
 0001:0006ecee       _unexpected                1006fcee f   libvcruntime:unexpected.obj
 0001:0006ed0a       ??$assemble_floating_point_ind@N@__crt_strtox@@YAXAAN@Z 1006fd0a f i libucrt:input.obj
 0001:0006ed39       ??$assemble_floating_point_infinity@N@__crt_strtox@@YAX_NAAN@Z 1006fd39 f i libucrt:input.obj
 0001:0006ed74       ??$assemble_floating_point_qnan@N@__crt_strtox@@YAX_NAAN@Z 1006fd74 f i libucrt:input.obj
 0001:0006edaf       ??$assemble_floating_point_snan@N@__crt_strtox@@YAX_NAAN@Z 1006fdaf f i libucrt:input.obj
 0001:0006edef       ??$assemble_floating_point_value_t@M@__crt_strtox@@YA?AW4SLD_STATUS@@_NH_KAAM@Z 1006fdef f i libucrt:input.obj
 0001:0006ee1f       ??$assemble_floating_point_value_t@N@__crt_strtox@@YA?AW4SLD_STATUS@@_NH_KAAN@Z 1006fe1f f i libucrt:input.obj
 0001:0006ee78       ??$assemble_floating_point_zero@N@__crt_strtox@@YAX_NAAN@Z 1006fe78 f i libucrt:input.obj
 0001:0006ef69       ??$convert_decimal_string_to_floating_type@M@__crt_strtox@@YA?AW4SLD_STATUS@@ABUfloating_point_string@0@AAM@Z 1006ff69 f i libucrt:input.obj
 0001:0006ef8c       ??$convert_decimal_string_to_floating_type@N@__crt_strtox@@YA?AW4SLD_STATUS@@ABUfloating_point_string@0@AAN@Z 1006ff8c f i libucrt:input.obj
 0001:0006efaf       ??$convert_hexadecimal_string_to_floating_type@M@__crt_strtox@@YA?AW4SLD_STATUS@@ABUfloating_point_string@0@AAM@Z 1006ffaf f i libucrt:input.obj
 0001:0006efd2       ??$convert_hexadecimal_string_to_floating_type@N@__crt_strtox@@YA?AW4SLD_STATUS@@ABUfloating_point_string@0@AAN@Z 1006ffd2 f i libucrt:input.obj
 0001:0006eff5       ??$is_overflow_condition@_K@__crt_strtox@@YA_NI_K@Z 1006fff5 f i libucrt:input.obj
 0001:0006f036       ??$make_input_adapter_character_source@V?$string_input_adapter@D@__crt_stdio_input@@@__crt_strtox@@YA?AV?$input_adapter_character_source@V?$string_input_adapter@D@__crt_stdio_input@@@0@QAV?$string_input_adapter@D@__crt_stdio_input@@_KQA_N@Z 10070036 f i libucrt:input.obj
 0001:0006f054       ??$parse_floating_point@V?$input_adapter_character_source@V?$string_input_adapter@D@__crt_stdio_input@@@__crt_strtox@@M@__crt_strtox@@YA?AW4SLD_STATUS@@QAU__crt_locale_pointers@@V?$input_adapter_character_source@V?$string_input_adapter@D@__crt_stdio_input@@@0@QAM@Z 10070054 f i libucrt:input.obj
 0001:0006f0cf       ??$parse_floating_point@V?$input_adapter_character_source@V?$string_input_adapter@D@__crt_stdio_input@@@__crt_strtox@@N@__crt_strtox@@YA?AW4SLD_STATUS@@QAU__crt_locale_pointers@@V?$input_adapter_character_source@V?$string_input_adapter@D@__crt_stdio_input@@@0@QAN@Z 100700cf f i libucrt:input.obj
 0001:0006f14a       ??$parse_floating_point_from_source@V?$input_adapter_character_source@V?$string_input_adapter@D@__crt_stdio_input@@@__crt_strtox@@@__crt_strtox@@YA?AW4floating_point_parse_result@0@QAU__crt_locale_pointers@@AAV?$input_adapter_character_source@V?$string_input_adapter@D@__crt_stdio_input@@@0@AAUfloating_point_string@0@@Z 1007014a f i libucrt:input.obj
 0001:0006f5ac       ??$parse_floating_point_possible_infinity@DV?$input_adapter_character_source@V?$string_input_adapter@D@__crt_stdio_input@@@__crt_strtox@@_K@__crt_strtox@@YA?AW4floating_point_parse_result@0@AADAAV?$input_adapter_character_source@V?$string_input_adapter@D@__crt_stdio_input@@@0@_K@Z 100705ac f i libucrt:input.obj
 0001:0006f66d       ??$parse_floating_point_possible_nan@DV?$input_adapter_character_source@V?$string_input_adapter@D@__crt_stdio_input@@@__crt_strtox@@_K@__crt_strtox@@YA?AW4floating_point_parse_result@0@AADAAV?$input_adapter_character_source@V?$string_input_adapter@D@__crt_stdio_input@@@0@_K@Z 1007066d f i libucrt:input.obj
 0001:0006f77f       ??$parse_floating_point_possible_nan_is_ind@DV?$input_adapter_character_source@V?$string_input_adapter@D@__crt_stdio_input@@@__crt_strtox@@@__crt_strtox@@YA_NAADAAV?$input_adapter_character_source@V?$string_input_adapter@D@__crt_stdio_input@@@0@@Z 1007077f f i libucrt:input.obj
 0001:0006f7b9       ??$parse_floating_point_possible_nan_is_snan@DV?$input_adapter_character_source@V?$string_input_adapter@D@__crt_stdio_input@@@__crt_strtox@@@__crt_strtox@@YA_NAADAAV?$input_adapter_character_source@V?$string_input_adapter@D@__crt_stdio_input@@@0@@Z 100707b9 f i libucrt:input.obj
 0001:0006f7f3       ??$parse_floating_point_write_result@M@__crt_strtox@@YA?AW4SLD_STATUS@@W4floating_point_parse_result@0@ABUfloating_point_string@0@QAM@Z 100707f3 f i libucrt:input.obj
 0001:0006f903       ??$parse_floating_point_write_result@N@__crt_strtox@@YA?AW4SLD_STATUS@@W4floating_point_parse_result@0@ABUfloating_point_string@0@QAN@Z 10070903 f i libucrt:input.obj
 0001:0006fa07       ??$parse_integer@_KV?$input_adapter_character_source@V?$string_input_adapter@D@__crt_stdio_input@@@__crt_strtox@@@__crt_strtox@@YA_KQAU__crt_locale_pointers@@V?$input_adapter_character_source@V?$string_input_adapter@D@__crt_stdio_input@@@0@H_N@Z 10070a07 f i libucrt:input.obj
 0001:0006fcbe       ??$process_floating_point_specifier_t@M@?$input_processor@DV?$string_input_adapter@D@__crt_stdio_input@@@__crt_stdio_input@@AAE_NXZ 10070cbe f i libucrt:input.obj
 0001:0006fd26       ??$process_floating_point_specifier_t@N@?$input_processor@DV?$string_input_adapter@D@__crt_stdio_input@@@__crt_stdio_input@@AAE_NXZ 10070d26 f i libucrt:input.obj
 0001:0006fd8e       ??$process_string_specifier_tchar@D@?$input_processor@DV?$string_input_adapter@D@__crt_stdio_input@@@__crt_stdio_input@@AAE_NW4conversion_mode@1@D@Z 10070d8e f i libucrt:input.obj
 0001:0006feed       ??$process_string_specifier_tchar@_W@?$input_processor@DV?$string_input_adapter@D@__crt_stdio_input@@@__crt_stdio_input@@AAE_NW4conversion_mode@1@_W@Z 10070eed f i libucrt:input.obj
 0001:00070056       ??$skip_whitespace@Vstring_input_adapter@__crt_stdio_input@@D@__crt_stdio_input@@YAHAAV?$string_input_adapter@D@0@QAU__crt_locale_pointers@@@Z 10071056 f i libucrt:input.obj
 0001:00070085       ??$write_floating_point@M@?$input_processor@DV?$string_input_adapter@D@__crt_stdio_input@@@__crt_stdio_input@@AAE_NABM@Z 10071085 f i libucrt:input.obj
 0001:000700b9       ??$write_floating_point@N@?$input_processor@DV?$string_input_adapter@D@__crt_stdio_input@@@__crt_stdio_input@@AAE_NABN@Z 100710b9 f i libucrt:input.obj
 0001:000700f3       ??0?$format_string_parser@D@__crt_stdio_input@@QAE@_KQBE@Z 100710f3 f i libucrt:input.obj
 0001:0007013d       ??0?$input_adapter_character_source@V?$string_input_adapter@D@__crt_stdio_input@@@__crt_strtox@@QAE@QAV?$string_input_adapter@D@__crt_stdio_input@@_KQA_N@Z 1007113d f i libucrt:input.obj
 0001:0007016e       ??0?$input_processor@DV?$string_input_adapter@D@__crt_stdio_input@@@__crt_stdio_input@@QAE@ABV?$string_input_adapter@D@1@_KQBDQAU__crt_locale_pointers@@QAD@Z 1007116e f i libucrt:input.obj
 0001:000701b2       ??0_LocaleUpdate@@QAE@QAU__crt_locale_pointers@@@Z 100711b2 f i libucrt:input.obj
 0001:0007025f       ?advance@?$format_string_parser@D@__crt_stdio_input@@QAE_NXZ 1007125f f i libucrt:input.obj
 0001:0007037f       ?as_double@floating_point_value@__crt_strtox@@QBEAANXZ 1007137f f i libucrt:input.obj
 0001:000703a4       ?as_float@floating_point_value@__crt_strtox@@QBEAAMXZ 100713a4 f i libucrt:input.obj
 0001:000703c9       ?assemble_floating_point_infinity@__crt_strtox@@YAX_NABVfloating_point_value@1@@Z 100713c9 f i libucrt:input.obj
 0001:000703ff       ?assemble_floating_point_value@__crt_strtox@@YA?AW4SLD_STATUS@@_KH_N1ABVfloating_point_value@1@@Z 100713ff f i libucrt:input.obj
 0001:00070756       ?assemble_floating_point_value_from_big_integer@__crt_strtox@@YA?AW4SLD_STATUS@@ABUbig_integer@1@I_N1ABVfloating_point_value@1@@Z 10071756 f i libucrt:input.obj
 0001:000708e6       ?assemble_floating_point_zero@__crt_strtox@@YAX_NABVfloating_point_value@1@@Z 100718e6 f i libucrt:input.obj
 0001:00070916       ?convert_decimal_string_to_floating_type_common@__crt_strtox@@YA?AW4SLD_STATUS@@ABUfloating_point_string@1@ABVfloating_point_value@1@@Z 10071916 f i libucrt:input.obj
 0001:0007267e       ?convert_hexadecimal_string_to_floating_type_common@__crt_strtox@@YA?AW4SLD_STATUS@@ABUfloating_point_string@1@ABVfloating_point_value@1@@Z 1007367e f i libucrt:input.obj
 0001:0007272a       ?denormal_mantissa_mask@floating_point_value@__crt_strtox@@QBE_KXZ 1007372a f i libucrt:input.obj
 0001:00072750       ?divide@__crt_strtox@@YA_KAAUbig_integer@1@ABU21@@Z 10073750 f i libucrt:input.obj
 0001:00072bfe       ?get@?$input_adapter_character_source@V?$string_input_adapter@D@__crt_stdio_input@@@__crt_strtox@@QAEDXZ 10073bfe f i libucrt:input.obj
 0001:00072c38       ?get@?$string_input_adapter@D@__crt_stdio_input@@QAEHXZ 10073c38 f i libucrt:input.obj
 0001:00072c4e       ?invert@?$scanset_buffer@E@__crt_stdio_input@@QAEXXZ 10073c4e f i libucrt:input.obj
 0001:00072c6c       ?is_character_allowed_in_string@?$input_processor@DV?$string_input_adapter@D@__crt_stdio_input@@@__crt_stdio_input@@ABE_NW4conversion_mode@2@H@Z 10073c6c f i libucrt:input.obj
 0001:00072cbe       ?length@?$format_string_parser@D@__crt_stdio_input@@QBEIXZ 10073cbe f i libucrt:input.obj
 0001:00072cff       ?normal_mantissa_mask@floating_point_value@__crt_strtox@@QBE_KXZ 10073cff f i libucrt:input.obj
 0001:00072d16       ?process@?$input_processor@DV?$string_input_adapter@D@__crt_stdio_input@@@__crt_stdio_input@@QAEHXZ 10073d16 f i libucrt:input.obj
 0001:00072d9f       ?process_character_count_specifier@?$input_processor@DV?$string_input_adapter@D@__crt_stdio_input@@@__crt_stdio_input@@AAE_NXZ 10073d9f f i libucrt:input.obj
 0001:00072db7       ?process_conversion_specifier@?$input_processor@DV?$string_input_adapter@D@__crt_stdio_input@@@__crt_stdio_input@@AAE_NXZ 10073db7 f i libucrt:input.obj
 0001:00072e2b       ?process_floating_point_specifier@?$input_processor@DV?$string_input_adapter@D@__crt_stdio_input@@@__crt_stdio_input@@AAE_NXZ 10073e2b f i libucrt:input.obj
 0001:00072e5b       ?process_integer_specifier@?$input_processor@DV?$string_input_adapter@D@__crt_stdio_input@@@__crt_stdio_input@@AAE_NI_N@Z 10073e5b f i libucrt:input.obj
 0001:00072ebf       ?process_literal_character@?$input_processor@DV?$string_input_adapter@D@__crt_stdio_input@@@__crt_stdio_input@@AAE_NXZ 10073ebf f i libucrt:input.obj
 0001:00072ef5       ?process_literal_character_tchar@?$input_processor@DV?$string_input_adapter@D@__crt_stdio_input@@@__crt_stdio_input@@AAE_ND@Z 10073ef5 f i libucrt:input.obj
 0001:00072f47       ?process_state@?$input_processor@DV?$string_input_adapter@D@__crt_stdio_input@@@__crt_stdio_input@@AAE_NXZ 10073f47 f i libucrt:input.obj
 0001:00072f89       ?process_string_specifier@?$input_processor@DV?$string_input_adapter@D@__crt_stdio_input@@@__crt_stdio_input@@AAE_NW4conversion_mode@2@@Z 10073f89 f i libucrt:input.obj
 0001:00072fd1       ?process_whitespace@?$input_processor@DV?$string_input_adapter@D@__crt_stdio_input@@@__crt_stdio_input@@AAE_NXZ 10073fd1 f i libucrt:input.obj
 0001:00072fee       ?restore_state@?$input_adapter_character_source@V?$string_input_adapter@D@__crt_stdio_input@@@__crt_strtox@@QAE_N_K@Z 10073fee f i libucrt:input.obj
 0001:00073013       ?scan_conversion_specifier@?$format_string_parser@D@__crt_stdio_input@@AAE_NXZ 10074013 f i libucrt:input.obj
 0001:00073183       ?scan_optional_field_width@?$format_string_parser@D@__crt_stdio_input@@AAE_NXZ 10074183 f i libucrt:input.obj
 0001:00073222       ?scan_optional_length_modifier@?$format_string_parser@D@__crt_stdio_input@@AAEXXZ 10074222 f i libucrt:input.obj
 0001:00073342       ?scan_optional_literal_character_trail_bytes_tchar@?$format_string_parser@D@__crt_stdio_input@@AAE_ND@Z 10074342 f i libucrt:input.obj
 0001:00073394       ?scan_optional_wide_modifier@?$format_string_parser@D@__crt_stdio_input@@AAEXXZ 10074394 f i libucrt:input.obj
 0001:000733b2       ?scan_scanset_range@?$format_string_parser@D@__crt_stdio_input@@AAE_NXZ 100743b2 f i libucrt:input.obj
 0001:000734c0       ?set_wide_for_c_s_or_scanset@?$format_string_parser@D@__crt_stdio_input@@AAEXXZ 100744c0 f i libucrt:input.obj
 0001:000734e0       ?to_floating_point_length@__crt_stdio_input@@YAIW4length_modifier@1@@Z 100744e0 f i libucrt:input.obj
 0001:00073503       ?to_integer_length@__crt_stdio_input@@YAIW4length_modifier@1@@Z 10074503 f i libucrt:input.obj
 0001:0007355b       ?unget@?$input_adapter_character_source@V?$string_input_adapter@D@__crt_stdio_input@@@__crt_strtox@@QAEXD@Z 1007455b f i libucrt:input.obj
 0001:0007359c       ?unget@?$string_input_adapter@D@__crt_stdio_input@@QAEXH@Z 1007459c f i libucrt:input.obj
 0001:000735bb       ?validate@?$format_string_parser@D@__crt_stdio_input@@QBE_NXZ 100745bb f i libucrt:input.obj
 0001:000735d7       ?validate@?$input_adapter_character_source@V?$string_input_adapter@D@__crt_stdio_input@@@__crt_strtox@@QBE_NXZ 100745d7 f i libucrt:input.obj
 0001:000735f8       ?validate@?$string_input_adapter@D@__crt_stdio_input@@QAE_NXZ 100745f8 f i libucrt:input.obj
 0001:0007361a       ?validate_stream_is_ansi_if_required@?$__acrt_stdio_char_traits@D@@SA_NQAU_iobuf@@@Z 1007461a f i libucrt:input.obj
 0001:0007369c       ?write_character@?$input_processor@DV?$string_input_adapter@D@__crt_stdio_input@@@__crt_stdio_input@@AAE_NQA_WIAAPA_WAAID@Z 1007469c f i libucrt:input.obj
 0001:0007370b       ?write_integer@?$input_processor@DV?$string_input_adapter@D@__crt_stdio_input@@@__crt_stdio_input@@AAE_N_K@Z 1007470b f i libucrt:input.obj
 0001:00073779       ___stdio_common_vsscanf    10074779 f   libucrt:input.obj
 0001:0007379d       __chvalidchk_l             1007479d f i libucrt:input.obj
 0001:000737c7       __ischartype_l             100747c7 f i libucrt:input.obj
 0001:0007387b       ___acrt_call_reportfault   1007487b f   libucrt:invalid_parameter.obj
 0001:000739b6       ___acrt_initialize_invalid_parameter_handler 100749b6 f   libucrt:invalid_parameter.obj
 0001:000739c5       __invalid_parameter        100749c5 f   libucrt:invalid_parameter.obj
 0001:00073a40       __invalid_parameter_noinfo 10074a40 f   libucrt:invalid_parameter.obj
 0001:00073a50       __invalid_parameter_noinfo_noreturn 10074a50 f   libucrt:invalid_parameter.obj
 0001:00073a6d       __invoke_watson            10074a6d f   libucrt:invalid_parameter.obj
 0001:00073aa1       _rand                      10074aa1 f   libucrt:rand.obj
 0001:00073ac2       _fmaxf                     10074ac2 f   libucrt:fmaxf.obj
 0001:00073b20       __libm_sse2_pow_precise    10074b20 f   libucrt:pow_sse2_precise.obj
 0001:00074670       __libm_sse2_sqrt_precise   10075670 f   libucrt:sqrt_sse2_precise.obj
 0001:00074770       _malloc                    10075770 f   libucrt:malloc.obj
 0001:00074c48       ??$count@D@formatting_buffer@__crt_stdio_output@@QBEIXZ 10075c48 f i libucrt:output.obj
 0001:00074c60       ??$ensure_buffer_is_big_enough@D@formatting_buffer@__crt_stdio_output@@QAE_NI@Z 10075c60 f i libucrt:output.obj
 0001:00074ce6       ??$is_wide_character_specifier@D@__crt_stdio_output@@YA_N_KDW4length_modifier@0@@Z 10075ce6 f i libucrt:output.obj
 0001:00074d20       ??$scratch_data@D@formatting_buffer@__crt_stdio_output@@QAEPADXZ 10075d20 f i libucrt:output.obj
 0001:00074d3e       ??$type_case_integer_parse_into_buffer@I@?$output_processor@DV?$string_output_adapter@D@__crt_stdio_output@@V?$standard_base@DV?$string_output_adapter@D@__crt_stdio_output@@@2@@__crt_stdio_output@@AAEXII_N@Z 10075d3e f i libucrt:output.obj
 0001:00074d3e       ??$type_case_integer_parse_into_buffer@I@?$output_processor@DV?$string_output_adapter@D@__crt_stdio_output@@V?$format_validation_base@DV?$string_output_adapter@D@__crt_stdio_output@@@2@@__crt_stdio_output@@AAEXII_N@Z 10075d3e f i libucrt:output.obj
 0001:00074d3e       ??$type_case_integer_parse_into_buffer@I@?$output_processor@DV?$stream_output_adapter@D@__crt_stdio_output@@V?$standard_base@DV?$stream_output_adapter@D@__crt_stdio_output@@@2@@__crt_stdio_output@@AAEXII_N@Z 10075d3e f i libucrt:output.obj
 0001:00074db0       ??$type_case_integer_parse_into_buffer@_K@?$output_processor@DV?$string_output_adapter@D@__crt_stdio_output@@V?$standard_base@DV?$string_output_adapter@D@__crt_stdio_output@@@2@@__crt_stdio_output@@AAEX_KI_N@Z 10075db0 f i libucrt:output.obj
 0001:00074db0       ??$type_case_integer_parse_into_buffer@_K@?$output_processor@DV?$string_output_adapter@D@__crt_stdio_output@@V?$format_validation_base@DV?$string_output_adapter@D@__crt_stdio_output@@@2@@__crt_stdio_output@@AAEX_KI_N@Z 10075db0 f i libucrt:output.obj
 0001:00074db0       ??$type_case_integer_parse_into_buffer@_K@?$output_processor@DV?$stream_output_adapter@D@__crt_stdio_output@@V?$standard_base@DV?$stream_output_adapter@D@__crt_stdio_output@@@2@@__crt_stdio_output@@AAEX_KI_N@Z 10075db0 f i libucrt:output.obj
 0001:00074e37       ??$write_multiple_characters@V?$stream_output_adapter@D@__crt_stdio_output@@D@__crt_stdio_output@@YAXABV?$stream_output_adapter@D@0@DHQAH@Z 10075e37 f i libucrt:output.obj
 0001:00074e6d       ??$write_multiple_characters@V?$string_output_adapter@D@__crt_stdio_output@@D@__crt_stdio_output@@YAXABV?$string_output_adapter@D@0@DHQAH@Z 10075e6d f i libucrt:output.obj
 0001:00074e99       ??0?$common_data@D@__crt_stdio_output@@IAE@XZ 10075e99 f i libucrt:output.obj
 0001:00074ee0       ??0?$output_adapter_data@DV?$stream_output_adapter@D@__crt_stdio_output@@@__crt_stdio_output@@IAE@ABV?$stream_output_adapter@D@1@_KQBDQAU__crt_locale_pointers@@QAD@Z 10075ee0 f i libucrt:output.obj
 0001:00074ee0       ??0?$output_adapter_data@DV?$string_output_adapter@D@__crt_stdio_output@@@__crt_stdio_output@@IAE@ABV?$string_output_adapter@D@1@_KQBDQAU__crt_locale_pointers@@QAD@Z 10075ee0 f i libucrt:output.obj
 0001:00074f1c       ??1formatting_buffer@__crt_stdio_output@@QAE@XZ 10075f1c f i libucrt:output.obj
 0001:00074f36       ??4?$__crt_unique_heap_ptr@DU__crt_internal_free_policy@@@@QAEAAV0@$$QAV0@@Z 10075f36 f i libucrt:output.obj
 0001:0007501b       ?crop_zeroes@__crt_stdio_output@@YAXPADQAU__crt_locale_pointers@@@Z 1007601b f i libucrt:output.obj
 0001:00075072       ?find_next_state@?$output_processor@DV?$stream_output_adapter@D@__crt_stdio_output@@V?$standard_base@DV?$stream_output_adapter@D@__crt_stdio_output@@@2@@__crt_stdio_output@@ABE?AW4state@2@DW432@@Z 10076072 f i libucrt:output.obj
 0001:00075072       ?find_next_state@?$output_processor@DV?$string_output_adapter@D@__crt_stdio_output@@V?$standard_base@DV?$string_output_adapter@D@__crt_stdio_output@@@2@@__crt_stdio_output@@ABE?AW4state@2@DW432@@Z 10076072 f i libucrt:output.obj
 0001:000750a4       ?find_next_state@?$output_processor@DV?$string_output_adapter@D@__crt_stdio_output@@V?$format_validation_base@DV?$string_output_adapter@D@__crt_stdio_output@@@2@@__crt_stdio_output@@ABE?AW4state@2@DW432@@Z 100760a4 f i libucrt:output.obj
 0001:000750d9       ?force_decimal_point@__crt_stdio_output@@YAXPADQAU__crt_locale_pointers@@@Z 100760d9 f i libucrt:output.obj
 0001:00075135       ?parse_int_from_format_string@?$output_processor@DV?$string_output_adapter@D@__crt_stdio_output@@V?$format_validation_base@DV?$string_output_adapter@D@__crt_stdio_output@@@2@@__crt_stdio_output@@AAE_NQAH@Z 10076135 f i libucrt:output.obj
 0001:00075135       ?parse_int_from_format_string@?$output_processor@DV?$string_output_adapter@D@__crt_stdio_output@@V?$standard_base@DV?$string_output_adapter@D@__crt_stdio_output@@@2@@__crt_stdio_output@@AAE_NQAH@Z 10076135 f i libucrt:output.obj
 0001:00075135       ?parse_int_from_format_string@?$output_processor@DV?$stream_output_adapter@D@__crt_stdio_output@@V?$standard_base@DV?$stream_output_adapter@D@__crt_stdio_output@@@2@@__crt_stdio_output@@AAE_NQAH@Z 10076135 f i libucrt:output.obj
 0001:000751ad       ?process@?$output_processor@DV?$stream_output_adapter@D@__crt_stdio_output@@V?$standard_base@DV?$stream_output_adapter@D@__crt_stdio_output@@@2@@__crt_stdio_output@@QAEHXZ 100761ad f i libucrt:output.obj
 0001:000752c9       ?process@?$output_processor@DV?$string_output_adapter@D@__crt_stdio_output@@V?$format_validation_base@DV?$string_output_adapter@D@__crt_stdio_output@@@2@@__crt_stdio_output@@QAEHXZ 100762c9 f i libucrt:output.obj
 0001:000753f1       ?process@?$output_processor@DV?$string_output_adapter@D@__crt_stdio_output@@V?$standard_base@DV?$string_output_adapter@D@__crt_stdio_output@@@2@@__crt_stdio_output@@QAEHXZ 100763f1 f i libucrt:output.obj
 0001:0007550d       ?state_case_flag@?$output_processor@DV?$stream_output_adapter@D@__crt_stdio_output@@V?$standard_base@DV?$stream_output_adapter@D@__crt_stdio_output@@@2@@__crt_stdio_output@@AAE_NXZ 1007650d f i libucrt:output.obj
 0001:0007550d       ?state_case_flag@?$output_processor@DV?$string_output_adapter@D@__crt_stdio_output@@V?$format_validation_base@DV?$string_output_adapter@D@__crt_stdio_output@@@2@@__crt_stdio_output@@AAE_NXZ 1007650d f i libucrt:output.obj
 0001:0007550d       ?state_case_flag@?$output_processor@DV?$string_output_adapter@D@__crt_stdio_output@@V?$standard_base@DV?$string_output_adapter@D@__crt_stdio_output@@@2@@__crt_stdio_output@@AAE_NXZ 1007650d f i libucrt:output.obj
 0001:0007554a       ?state_case_normal@?$output_processor@DV?$stream_output_adapter@D@__crt_stdio_output@@V?$standard_base@DV?$stream_output_adapter@D@__crt_stdio_output@@@2@@__crt_stdio_output@@AAE_NXZ 1007654a f i libucrt:output.obj
 0001:00075569       ?state_case_normal@?$output_processor@DV?$string_output_adapter@D@__crt_stdio_output@@V?$format_validation_base@DV?$string_output_adapter@D@__crt_stdio_output@@@2@@__crt_stdio_output@@AAE_NXZ 10076569 f i libucrt:output.obj
 0001:00075569       ?state_case_normal@?$output_processor@DV?$string_output_adapter@D@__crt_stdio_output@@V?$standard_base@DV?$string_output_adapter@D@__crt_stdio_output@@@2@@__crt_stdio_output@@AAE_NXZ 10076569 f i libucrt:output.obj
 0001:00075588       ?state_case_normal_common@?$output_processor@DV?$stream_output_adapter@D@__crt_stdio_output@@V?$standard_base@DV?$stream_output_adapter@D@__crt_stdio_output@@@2@@__crt_stdio_output@@AAE_NXZ 10076588 f i libucrt:output.obj
 0001:000755c4       ?state_case_normal_common@?$output_processor@DV?$string_output_adapter@D@__crt_stdio_output@@V?$standard_base@DV?$string_output_adapter@D@__crt_stdio_output@@@2@@__crt_stdio_output@@AAE_NXZ 100765c4 f i libucrt:output.obj
 0001:000755c4       ?state_case_normal_common@?$output_processor@DV?$string_output_adapter@D@__crt_stdio_output@@V?$format_validation_base@DV?$string_output_adapter@D@__crt_stdio_output@@@2@@__crt_stdio_output@@AAE_NXZ 100765c4 f i libucrt:output.obj
 0001:000755ee       ?state_case_normal_tchar@?$output_processor@DV?$stream_output_adapter@D@__crt_stdio_output@@V?$standard_base@DV?$stream_output_adapter@D@__crt_stdio_output@@@2@@__crt_stdio_output@@AAE_ND@Z 100765ee f i libucrt:output.obj
 0001:0007565f       ?state_case_normal_tchar@?$output_processor@DV?$string_output_adapter@D@__crt_stdio_output@@V?$standard_base@DV?$string_output_adapter@D@__crt_stdio_output@@@2@@__crt_stdio_output@@AAE_ND@Z 1007665f f i libucrt:output.obj
 0001:0007565f       ?state_case_normal_tchar@?$output_processor@DV?$string_output_adapter@D@__crt_stdio_output@@V?$format_validation_base@DV?$string_output_adapter@D@__crt_stdio_output@@@2@@__crt_stdio_output@@AAE_ND@Z 1007665f f i libucrt:output.obj
 0001:000756bb       ?state_case_precision@?$output_processor@DV?$string_output_adapter@D@__crt_stdio_output@@V?$format_validation_base@DV?$string_output_adapter@D@__crt_stdio_output@@@2@@__crt_stdio_output@@AAE_NXZ 100766bb f i libucrt:output.obj
 0001:000756bb       ?state_case_precision@?$output_processor@DV?$string_output_adapter@D@__crt_stdio_output@@V?$standard_base@DV?$string_output_adapter@D@__crt_stdio_output@@@2@@__crt_stdio_output@@AAE_NXZ 100766bb f i libucrt:output.obj
 0001:000756bb       ?state_case_precision@?$output_processor@DV?$stream_output_adapter@D@__crt_stdio_output@@V?$standard_base@DV?$stream_output_adapter@D@__crt_stdio_output@@@2@@__crt_stdio_output@@AAE_NXZ 100766bb f i libucrt:output.obj
 0001:000756e3       ?state_case_size@?$output_processor@DV?$stream_output_adapter@D@__crt_stdio_output@@V?$standard_base@DV?$stream_output_adapter@D@__crt_stdio_output@@@2@@__crt_stdio_output@@AAE_NXZ 100766e3 f i libucrt:output.obj
 0001:0007584c       ?state_case_size@?$output_processor@DV?$string_output_adapter@D@__crt_stdio_output@@V?$standard_base@DV?$string_output_adapter@D@__crt_stdio_output@@@2@@__crt_stdio_output@@AAE_NXZ 1007684c f i libucrt:output.obj
 0001:0007584c       ?state_case_size@?$output_processor@DV?$string_output_adapter@D@__crt_stdio_output@@V?$format_validation_base@DV?$string_output_adapter@D@__crt_stdio_output@@@2@@__crt_stdio_output@@AAE_NXZ 1007684c f i libucrt:output.obj
 0001:000759b5       ?state_case_type@?$output_processor@DV?$stream_output_adapter@D@__crt_stdio_output@@V?$standard_base@DV?$stream_output_adapter@D@__crt_stdio_output@@@2@@__crt_stdio_output@@AAE_NXZ 100769b5 f i libucrt:output.obj
 0001:00075be5       ?state_case_type@?$output_processor@DV?$string_output_adapter@D@__crt_stdio_output@@V?$format_validation_base@DV?$string_output_adapter@D@__crt_stdio_output@@@2@@__crt_stdio_output@@AAE_NXZ 10076be5 f i libucrt:output.obj
 0001:00075be5       ?state_case_type@?$output_processor@DV?$string_output_adapter@D@__crt_stdio_output@@V?$standard_base@DV?$string_output_adapter@D@__crt_stdio_output@@@2@@__crt_stdio_output@@AAE_NXZ 10076be5 f i libucrt:output.obj
 0001:00075e15       ?state_case_width@?$output_processor@DV?$string_output_adapter@D@__crt_stdio_output@@V?$standard_base@DV?$string_output_adapter@D@__crt_stdio_output@@@2@@__crt_stdio_output@@AAE_NXZ 10076e15 f i libucrt:output.obj
 0001:00075e15       ?state_case_width@?$output_processor@DV?$stream_output_adapter@D@__crt_stdio_output@@V?$standard_base@DV?$stream_output_adapter@D@__crt_stdio_output@@@2@@__crt_stdio_output@@AAE_NXZ 10076e15 f i libucrt:output.obj
 0001:00075e15       ?state_case_width@?$output_processor@DV?$string_output_adapter@D@__crt_stdio_output@@V?$format_validation_base@DV?$string_output_adapter@D@__crt_stdio_output@@@2@@__crt_stdio_output@@AAE_NXZ 10076e15 f i libucrt:output.obj
 0001:00075e40       ?to_integer_size@__crt_stdio_output@@YAIW4length_modifier@1@@Z 10076e40 f i libucrt:output.obj
 0001:00075e9c       ?type_case_Z@?$output_processor@DV?$string_output_adapter@D@__crt_stdio_output@@V?$standard_base@DV?$string_output_adapter@D@__crt_stdio_output@@@2@@__crt_stdio_output@@AAE_NXZ 10076e9c f i libucrt:output.obj
 0001:00075e9c       ?type_case_Z@?$output_processor@DV?$stream_output_adapter@D@__crt_stdio_output@@V?$standard_base@DV?$stream_output_adapter@D@__crt_stdio_output@@@2@@__crt_stdio_output@@AAE_NXZ 10076e9c f i libucrt:output.obj
 0001:00075e9c       ?type_case_Z@?$output_processor@DV?$string_output_adapter@D@__crt_stdio_output@@V?$format_validation_base@DV?$string_output_adapter@D@__crt_stdio_output@@@2@@__crt_stdio_output@@AAE_NXZ 10076e9c f i libucrt:output.obj
 0001:00075eff       ?type_case_a@?$output_processor@DV?$stream_output_adapter@D@__crt_stdio_output@@V?$standard_base@DV?$stream_output_adapter@D@__crt_stdio_output@@@2@@__crt_stdio_output@@AAE_NXZ 10076eff f i libucrt:output.obj
 0001:00075eff       ?type_case_a@?$output_processor@DV?$string_output_adapter@D@__crt_stdio_output@@V?$standard_base@DV?$string_output_adapter@D@__crt_stdio_output@@@2@@__crt_stdio_output@@AAE_NXZ 10076eff f i libucrt:output.obj
 0001:00075eff       ?type_case_a@?$output_processor@DV?$string_output_adapter@D@__crt_stdio_output@@V?$format_validation_base@DV?$string_output_adapter@D@__crt_stdio_output@@@2@@__crt_stdio_output@@AAE_NXZ 10076eff f i libucrt:output.obj
 0001:0007605d       ?type_case_c_tchar@?$output_processor@DV?$string_output_adapter@D@__crt_stdio_output@@V?$format_validation_base@DV?$string_output_adapter@D@__crt_stdio_output@@@2@@__crt_stdio_output@@AAE_ND@Z 1007705d f i libucrt:output.obj
 0001:0007605d       ?type_case_c_tchar@?$output_processor@DV?$string_output_adapter@D@__crt_stdio_output@@V?$standard_base@DV?$string_output_adapter@D@__crt_stdio_output@@@2@@__crt_stdio_output@@AAE_ND@Z 1007705d f i libucrt:output.obj
 0001:0007605d       ?type_case_c_tchar@?$output_processor@DV?$stream_output_adapter@D@__crt_stdio_output@@V?$standard_base@DV?$stream_output_adapter@D@__crt_stdio_output@@@2@@__crt_stdio_output@@AAE_ND@Z 1007705d f i libucrt:output.obj
 0001:000760ed       ?type_case_integer@?$output_processor@DV?$string_output_adapter@D@__crt_stdio_output@@V?$standard_base@DV?$string_output_adapter@D@__crt_stdio_output@@@2@@__crt_stdio_output@@AAE_NI_N@Z 100770ed f i libucrt:output.obj
 0001:000760ed       ?type_case_integer@?$output_processor@DV?$string_output_adapter@D@__crt_stdio_output@@V?$format_validation_base@DV?$string_output_adapter@D@__crt_stdio_output@@@2@@__crt_stdio_output@@AAE_NI_N@Z 100770ed f i libucrt:output.obj
 0001:000760ed       ?type_case_integer@?$output_processor@DV?$stream_output_adapter@D@__crt_stdio_output@@V?$standard_base@DV?$stream_output_adapter@D@__crt_stdio_output@@@2@@__crt_stdio_output@@AAE_NI_N@Z 100770ed f i libucrt:output.obj
 0001:0007623b       ?type_case_n@?$output_processor@DV?$stream_output_adapter@D@__crt_stdio_output@@V?$standard_base@DV?$stream_output_adapter@D@__crt_stdio_output@@@2@@__crt_stdio_output@@AAE_NXZ 1007723b f i libucrt:output.obj
 0001:0007623b       ?type_case_n@?$output_processor@DV?$string_output_adapter@D@__crt_stdio_output@@V?$format_validation_base@DV?$string_output_adapter@D@__crt_stdio_output@@@2@@__crt_stdio_output@@AAE_NXZ 1007723b f i libucrt:output.obj
 0001:0007623b       ?type_case_n@?$output_processor@DV?$string_output_adapter@D@__crt_stdio_output@@V?$standard_base@DV?$string_output_adapter@D@__crt_stdio_output@@@2@@__crt_stdio_output@@AAE_NXZ 1007723b f i libucrt:output.obj
 0001:000762af       ?type_case_o@?$output_processor@DV?$stream_output_adapter@D@__crt_stdio_output@@V?$standard_base@DV?$stream_output_adapter@D@__crt_stdio_output@@@2@@__crt_stdio_output@@AAE_NXZ 100772af f i libucrt:output.obj
 0001:000762af       ?type_case_o@?$output_processor@DV?$string_output_adapter@D@__crt_stdio_output@@V?$standard_base@DV?$string_output_adapter@D@__crt_stdio_output@@@2@@__crt_stdio_output@@AAE_NXZ 100772af f i libucrt:output.obj
 0001:000762af       ?type_case_o@?$output_processor@DV?$string_output_adapter@D@__crt_stdio_output@@V?$format_validation_base@DV?$string_output_adapter@D@__crt_stdio_output@@@2@@__crt_stdio_output@@AAE_NXZ 100772af f i libucrt:output.obj
 0001:000762ce       ?type_case_p@?$output_processor@DV?$stream_output_adapter@D@__crt_stdio_output@@V?$standard_base@DV?$stream_output_adapter@D@__crt_stdio_output@@@2@@__crt_stdio_output@@AAE_NXZ 100772ce f i libucrt:output.obj
 0001:000762ce       ?type_case_p@?$output_processor@DV?$string_output_adapter@D@__crt_stdio_output@@V?$format_validation_base@DV?$string_output_adapter@D@__crt_stdio_output@@@2@@__crt_stdio_output@@AAE_NXZ 100772ce f i libucrt:output.obj
 0001:000762ce       ?type_case_p@?$output_processor@DV?$string_output_adapter@D@__crt_stdio_output@@V?$standard_base@DV?$string_output_adapter@D@__crt_stdio_output@@@2@@__crt_stdio_output@@AAE_NXZ 100772ce f i libucrt:output.obj
 0001:000762e6       ?type_case_s@?$output_processor@DV?$string_output_adapter@D@__crt_stdio_output@@V?$format_validation_base@DV?$string_output_adapter@D@__crt_stdio_output@@@2@@__crt_stdio_output@@AAE_NXZ 100772e6 f i libucrt:output.obj
 0001:000762e6       ?type_case_s@?$output_processor@DV?$string_output_adapter@D@__crt_stdio_output@@V?$standard_base@DV?$string_output_adapter@D@__crt_stdio_output@@@2@@__crt_stdio_output@@AAE_NXZ 100772e6 f i libucrt:output.obj
 0001:000762e6       ?type_case_s@?$output_processor@DV?$stream_output_adapter@D@__crt_stdio_output@@V?$standard_base@DV?$stream_output_adapter@D@__crt_stdio_output@@@2@@__crt_stdio_output@@AAE_NXZ 100772e6 f i libucrt:output.obj
 0001:00076359       ?validate@?$stream_output_adapter@D@__crt_stdio_output@@QBE_NXZ 10077359 f i libucrt:output.obj
 0001:0007637a       ?validate_and_update_state_at_end_of_format_string@?$format_validation_base@DV?$string_output_adapter@D@__crt_stdio_output@@@__crt_stdio_output@@IBE_NXZ 1007737a f i libucrt:output.obj
 0001:0007639c       ?write_character@?$string_output_adapter@D@__crt_stdio_output@@QBE_NDQAH@Z 1007739c f i libucrt:output.obj
 0001:000763de       ?write_character_without_count_update@?$stream_output_adapter@D@__crt_stdio_output@@QBE_ND@Z 100773de f i libucrt:output.obj
 0001:00076415       ?write_stored_string_tchar@?$output_processor@DV?$stream_output_adapter@D@__crt_stdio_output@@V?$standard_base@DV?$stream_output_adapter@D@__crt_stdio_output@@@2@@__crt_stdio_output@@AAE_ND@Z 10077415 f i libucrt:output.obj
 0001:000764be       ?write_stored_string_tchar@?$output_processor@DV?$string_output_adapter@D@__crt_stdio_output@@V?$format_validation_base@DV?$string_output_adapter@D@__crt_stdio_output@@@2@@__crt_stdio_output@@AAE_ND@Z 100774be f i libucrt:output.obj
 0001:000764be       ?write_stored_string_tchar@?$output_processor@DV?$string_output_adapter@D@__crt_stdio_output@@V?$standard_base@DV?$string_output_adapter@D@__crt_stdio_output@@@2@@__crt_stdio_output@@AAE_ND@Z 100774be f i libucrt:output.obj
 0001:00076567       ?write_string@?$stream_output_adapter@D@__crt_stdio_output@@QBEXQBDHQAHAAV__crt_deferred_errno_cache@@@Z 10077567 f i libucrt:output.obj
 0001:00076592       ?write_string@?$string_output_adapter@D@__crt_stdio_output@@QBEXQBDHQAHAAV__crt_deferred_errno_cache@@@Z 10077592 f i libucrt:output.obj
 0001:000765f9       ?write_string_impl@?$output_adapter_common@DV?$stream_output_adapter@D@__crt_stdio_output@@@__crt_stdio_output@@IBEXQBDHQAHAAV__crt_deferred_errno_cache@@@Z 100775f9 f i libucrt:output.obj
 0001:0007668d       ___stdio_common_vfprintf   1007768d f   libucrt:output.obj
 0001:00076712       ___stdio_common_vsnprintf_s 10077712 f   libucrt:output.obj
 0001:00076739       ___stdio_common_vsprintf   10077739 f   libucrt:output.obj
 0001:0007675d       ___stdio_common_vsprintf_s 1007775d f   libucrt:output.obj
 0001:000767ec       ??$make_c_string_character_source@D$$T@__crt_strtox@@YA?AV?$c_string_character_source@D@0@QBD$$T@Z 100777ec f i libucrt:atof.obj
 0001:000767ec       ??$make_c_string_character_source@DPAPAD@__crt_strtox@@YA?AV?$c_string_character_source@D@0@QBDQAPAD@Z 100777ec f i libucrt:strtox.obj
 0001:000767ec       ??$make_c_string_character_source@_W$$T@__crt_strtox@@YA?AV?$c_string_character_source@_W@0@QB_W$$T@Z 100777ec f i libucrt:atof.obj
 0001:00076807       ??$parse_floating_point@V?$c_string_character_source@D@__crt_strtox@@N@__crt_strtox@@YA?AW4SLD_STATUS@@QAU__crt_locale_pointers@@V?$c_string_character_source@D@0@QAN@Z 10077807 f i libucrt:atof.obj
 0001:0007687d       ??$parse_floating_point_from_source@V?$c_string_character_source@D@__crt_strtox@@@__crt_strtox@@YA?AW4floating_point_parse_result@0@QAU__crt_locale_pointers@@AAV?$c_string_character_source@D@0@AAUfloating_point_string@0@@Z 1007787d f i libucrt:atof.obj
 0001:00076c55       ??$parse_floating_point_possible_infinity@DV?$c_string_character_source@D@__crt_strtox@@PBD@__crt_strtox@@YA?AW4floating_point_parse_result@0@AADAAV?$c_string_character_source@D@0@PBD@Z 10077c55 f i libucrt:atof.obj
 0001:00076cef       ??$parse_floating_point_possible_nan@DV?$c_string_character_source@D@__crt_strtox@@PBD@__crt_strtox@@YA?AW4floating_point_parse_result@0@AADAAV?$c_string_character_source@D@0@PBD@Z 10077cef f i libucrt:atof.obj
 0001:00076e0a       ??$parse_floating_point_possible_nan_is_ind@DV?$c_string_character_source@D@__crt_strtox@@@__crt_strtox@@YA_NAADAAV?$c_string_character_source@D@0@@Z 10077e0a f i libucrt:atof.obj
 0001:00076e46       ??$parse_floating_point_possible_nan_is_snan@DV?$c_string_character_source@D@__crt_strtox@@@__crt_strtox@@YA_NAADAAV?$c_string_character_source@D@0@@Z 10077e46 f i libucrt:atof.obj
 0001:00076ea8       ?unget@?$c_string_character_source@D@__crt_strtox@@QAEXD@Z 10077ea8 f i libucrt:atof.obj
 0001:00076ed0       ?unget@?$c_string_character_source@_W@__crt_strtox@@QAEX_W@Z 10077ed0 f i libucrt:atof.obj
 0001:00076efc       ?validate@?$string_output_adapter@D@__crt_stdio_output@@QBE_NXZ 10077efc f i libucrt:output.obj
 0001:00076efc       ?validate@?$c_string_character_source@_W@__crt_strtox@@QBE_NXZ 10077efc f i libucrt:atof.obj
 0001:00076efc       ?validate@?$c_string_character_source@D@__crt_strtox@@QBE_NXZ 10077efc f i libucrt:atof.obj
 0001:00076f17       _atof                      10077f17 f   libucrt:atof.obj
 0001:00076f2a       ??$is_overflow_condition@K@__crt_strtox@@YA_NIK@Z 10077f2a f i libucrt:atox.obj
 0001:00076f5b       ??$parse_integer@KV?$c_string_character_source@D@__crt_strtox@@@__crt_strtox@@YAKQAU__crt_locale_pointers@@V?$c_string_character_source@D@0@H_N@Z 10077f5b f i libucrt:atox.obj
 0001:00077184       ??$parse_integer@KV?$c_string_character_source@_W@__crt_strtox@@@__crt_strtox@@YAKQAU__crt_locale_pointers@@V?$c_string_character_source@_W@0@H_N@Z 10078184 f i libucrt:atox.obj
 0001:00077865       ??$parse_integer@_KV?$c_string_character_source@D@__crt_strtox@@@__crt_strtox@@YA_KQAU__crt_locale_pointers@@V?$c_string_character_source@D@0@H_N@Z 10078865 f i libucrt:atox.obj
 0001:00077b0b       __wtol                     10078b0b f   libucrt:atox.obj
 0001:00077b35       _atoi                      10078b35 f   libucrt:atox.obj
 0001:00077b60       __libm_sse2_exp_precise    10078b60 f   libucrt:exp_sse2_precise.obj
 0001:00077e40       _ceil                      10078e40 f   libucrt:ceil_pentium4.obj
 0001:00077e80       __ceil_pentium4            10078e80 f   libucrt:ceil_pentium4.obj
 0001:00077f60       _floor                     10078f60 f   libucrt:floor_pentium4.obj
 0001:00077fa0       __floor_pentium4           10078fa0 f   libucrt:floor_pentium4.obj
 0001:00078060       __libm_sse2_cos_precise    10079060 f   libucrt:cos_sse2_precise.obj
 0001:00078220       __libm_sse2_sin_precise    10079220 f   libucrt:sin_sse2_precise.obj
 0001:000783e8       __towlower_l               100793e8 f   libucrt:towlower.obj
 0001:000784b1       _towlower                  100794b1 f   libucrt:towlower.obj
 0001:0007862b       __tolower_l                1007962b f   libucrt:tolower_toupper.obj
 0001:00078645       _tolower                   10079645 f   libucrt:tolower_toupper.obj
 0001:00078675       ___acrt_errno_from_os_error 10079675 f   libucrt:errno.obj
 0001:000786b8       ___acrt_errno_map_os_error 100796b8 f   libucrt:errno.obj
 0001:000786db       ___doserrno                100796db f   libucrt:errno.obj
 0001:000786ee       __errno                    100796ee f   libucrt:errno.obj
 0001:00078701       _strtol                    10079701 f   libucrt:strtox.obj
 0001:0007872d       _strtoul                   1007972d f   libucrt:strtox.obj
 0001:00078759       _strtoull                  10079759 f   libucrt:strtox.obj
 0001:000787fd       __fdtest                   100797fd f   libucrt:_test.obj
 0001:0007884b       __fperrraise               1007984b f   libucrt:_test.obj
 0001:0007886e       __fclose_nolock            1007986e f   libucrt:fclose.obj
 0001:000788e4       _fclose                    100798e4 f   libucrt:fclose.obj
 0001:00078ab6       __wfopen                   10079ab6 f   libucrt:fopen.obj
 0001:00078acd       _fopen                     10079acd f   libucrt:fopen.obj
 0001:00078ae4       __fread_nolock_s           10079ae4 f   libucrt:fread.obj
 0001:00078cbd       _fread                     10079cbd f   libucrt:fread.obj
 0001:00078cda       _fread_s                   10079cda f   libucrt:fread.obj
 0001:00078d6d       ?LongLongSub@@YAJ_J0PA_J@Z 10079d6d f i libucrt:fseek.obj
 0001:00079021       __fseeki64                 1007a021 f   libucrt:fseek.obj
 0001:0007903c       _fseek                     1007a03c f   libucrt:fseek.obj
 0001:00079691       __ftelli64                 1007a691 f   libucrt:ftell.obj
 0001:0007969c       __ftelli64_nolock          1007a69c f   libucrt:ftell.obj
 0001:000796a7       _ftell                     1007a6a7 f   libucrt:ftell.obj
 0001:00079736       __time64                   1007a736 f   libucrt:time.obj
 0001:00079780       _atan2                     1007a780 f   libucrt:87ctriga.obj
 0001:0007978c       __CIatan2                  1007a78c f   libucrt:87ctriga.obj
 0001:000797a0       _strncpy                   1007a7a0 f   libucrt:strncpy.obj
 0001:000798c4       ___acrt_initialize_stdio   1007a8c4 f   libucrt:_file.obj
 0001:0007998c       ___acrt_iob_func           1007a98c f   libucrt:_file.obj
 0001:0007999c       ___acrt_uninitialize_stdio 1007a99c f   libucrt:_file.obj
 0001:000799e8       __get_stream_buffer_pointers 1007a9e8 f   libucrt:_file.obj
 0001:00079a2e       __lock_file                1007aa2e f   libucrt:_file.obj
 0001:00079a42       __unlock_file              1007aa42 f   libucrt:_file.obj
 0001:00079ca2       ___acrt_stdio_flush_nolock 1007aca2 f   libucrt:fflush.obj
 0001:00079d05       __fflush_nolock            1007ad05 f   libucrt:fflush.obj
 0001:00079d4c       __flushall                 1007ad4c f   libucrt:fflush.obj
 0001:00079d55       _fflush                    1007ad55 f   libucrt:fflush.obj
 0001:00079da9       __isdigit_l                1007ada9 f i libucrt:_ctype.obj
 0001:00079de1       __islower_l                1007ade1 f i libucrt:_ctype.obj
 0001:00079e19       __isprint_l                1007ae19 f i libucrt:_ctype.obj
 0001:00079e54       __isspace_l                1007ae54 f i libucrt:_ctype.obj
 0001:00079e8c       __isupper_l                1007ae8c f i libucrt:_ctype.obj
 0001:00079ec4       _isdigit                   1007aec4 f i libucrt:_ctype.obj
 0001:00079ef1       _islower                   1007aef1 f i libucrt:_ctype.obj
 0001:00079f1e       _isprint                   1007af1e f i libucrt:_ctype.obj
 0001:00079f4d       _isspace                   1007af4d f i libucrt:_ctype.obj
 0001:00079f7a       _isupper                   1007af7a f i libucrt:_ctype.obj
 0001:00079fa7       _free                      1007afa7 f   libucrt:free.obj
 0001:0007a0b0       _qsort                     1007b0b0 f   libucrt:qsort.obj
 0001:0007a450       _fmod                      1007b450 f   libucrt:87fmod.obj
 0001:0007a45c       __CIfmod                   1007b45c f   libucrt:87fmod.obj
 0001:0007a474       __dlog                     1007b474 f   libucrt:log2d.obj
 0001:0007a5bc       _log2                      1007b5bc f   libucrt:log2d.obj
 0001:0007a5e0       __libm_sse2_acos_precise   1007b5e0 f   libucrt:acos_sse2_precise.obj
 0001:0007ab00       __libm_sse2_asin_precise   1007bb00 f   libucrt:asin_sse2_precise.obj
 0001:0007b050       __libm_sse2_atan_precise   1007c050 f   libucrt:atan_sse2_precise.obj
 0001:0007b33c       _copysign                  1007c33c f   libucrt:copysign.obj
 0001:0007b5e2       _hypot                     1007c5e2 f   libucrt:hypot.obj
 0001:0007b603       ___ascii_stricmp           1007c603 f   libucrt:stricmp.obj
 0001:0007b63e       __stricmp                  1007c63e f   libucrt:stricmp.obj
 0001:0007b687       __stricmp_l                1007c687 f   libucrt:stricmp.obj
 0001:0007b89a       __mbstowcs_s_l             1007c89a f   libucrt:mbstowcs.obj
 0001:0007b97c       _mbstowcs_s                1007c97c f   libucrt:mbstowcs.obj
 0001:0007b99c       __fgetc_nolock             1007c99c f   libucrt:fgetc.obj
 0001:0007b9d8       _fgetc                     1007c9d8 f   libucrt:fgetc.obj
 0001:0007bad3       _fgetpos                   1007cad3 f   libucrt:fgetpos.obj
 0001:0007bb2e       __fputc_nolock             1007cb2e f   libucrt:fputc.obj
 0001:0007bb57       _fputc                     1007cb57 f   libucrt:fputc.obj
 0001:0007bc54       _fsetpos                   1007cc54 f   libucrt:fsetpos.obj
 0001:0007bd26       __fwrite_nolock            1007cd26 f   libucrt:fwrite.obj
 0001:0007bea1       _fwrite                    1007cea1 f   libucrt:fwrite.obj
 0001:0007c024       _setvbuf                   1007d024 f   libucrt:setvbuf.obj
 0001:0007c0a8       __ungetc_nolock            1007d0a8 f   libucrt:ungetc.obj
 0001:0007c197       _ungetc                    1007d197 f   libucrt:ungetc.obj
 0001:0007c200       _terminate                 1007d200 f   libucrt:terminate.obj
 0001:0007c23c       ___acrt_initialize_new_handler 1007d23c f   libucrt:new_handler.obj
 0001:0007c250       __callnewh                 1007d250 f   libucrt:new_handler.obj
 0001:0007c294       __query_new_handler        1007d294 f   libucrt:new_handler.obj
 0001:0007c2e6       __seh_filter_dll           1007d2e6 f   libucrt:exception_filter.obj
 0001:0007c306       __seh_filter_exe           1007d306 f   libucrt:exception_filter.obj
 0001:0007c701       ___acrt_initialize_thread_local_exit_callback 1007d701 f   libucrt:exit.obj
 0001:0007c710       __cexit                    1007d710 f   libucrt:exit.obj
 0001:0007c71f       __exit                     1007d71f f   libucrt:exit.obj
 0001:0007c735       __is_c_termination_complete 1007d735 f   libucrt:exit.obj
 0001:0007c9e6       ___acrt_allocate_buffer_for_argv 1007d9e6 f   libucrt:argv_parsing.obj
 0001:0007ca35       __configure_narrow_argv    1007da35 f   libucrt:argv_parsing.obj
 0001:0007cb99       ??$uninitialize@A6AXAAPAPA_W@Z@?$dual_state_global@PAPA_W@__crt_state_management@@QAEXA6AXAAPAPA_W@Z@Z 1007db99 f i libucrt:environment_initialization.obj
 0001:0007cb99       ??$uninitialize@A6AXAAPAPAD@Z@?$dual_state_global@PAPAD@__crt_state_management@@QAEXA6AXAAPAPAD@Z@Z 1007db99 f i libucrt:environment_initialization.obj
 0001:0007cc0f       ___dcrt_uninitialize_environments_nolock 1007dc0f f   libucrt:environment_initialization.obj
 0001:0007cc46       __initialize_narrow_environment 1007dc46 f   libucrt:environment_initialization.obj
 0001:0007cced       ??$__crt_fast_encode_pointer@P6GHPA_WKJ@Z@@YAP6GHPA_WKJ@ZQ6GH0KJ@Z@Z 1007dced f i libucrt:winapi_thunks.obj
 0001:0007cced       ??$__crt_fast_encode_pointer@P6AHXZ@@YAP6AHXZQ6AHXZ@Z 1007dced f i libucrt:onexit.obj
 0001:0007cf6b       __crt_atexit               1007df6b f   libucrt:onexit.obj
 0001:0007cf81       __execute_onexit_table     1007df81 f   libucrt:onexit.obj
 0001:0007cfb0       __initialize_onexit_table  1007dfb0 f   libucrt:onexit.obj
 0001:0007cfed       __register_onexit_function 1007dfed f   libucrt:onexit.obj
 0001:0007d050       ___acrt_uninitialize_command_line 1007e050 f   libucrt:argv_data.obj
 0001:0007d050       ?do_always_noconv@?$codecvt@DDU_Mbstatet@@@std@@MBE_NXZ 1007e050 f   Utilities.obj
 0001:0007d133       ___acrt_initialize         1007e133 f   libucrt:initialization.obj
 0001:0007d145       ___acrt_thread_attach      1007e145 f   libucrt:initialization.obj
 0001:0007d150       ___acrt_thread_detach      1007e150 f   libucrt:initialization.obj
 0001:0007d158       ___acrt_uninitialize       1007e158 f   libucrt:initialization.obj
 0001:0007d16a       ___acrt_uninitialize_critical 1007e16a f   libucrt:initialization.obj
 0001:0007d17c       __errcode                  1007e17c f   libucrt:fpexcept.obj
 0001:0007d1b0       __except1                  1007e1b0 f   libucrt:fpexcept.obj
 0001:0007d27e       __except2                  1007e27e f   libucrt:fpexcept.obj
 0001:0007d360       __handle_exc               1007e360 f   libucrt:fpexcept.obj
 0001:0007d54d       __handle_qnan2             1007e54d f   libucrt:fpexcept.obj
 0001:0007d55a       __raise_exc                1007e55a f   libucrt:fpexcept.obj
 0001:0007d57d       __raise_exc_ex             1007e57d f   libucrt:fpexcept.obj
 0001:0007d86e       __set_errno_from_matherr   1007e86e f   libucrt:fpexcept.obj
 0001:0007d89d       __umatherr                 1007e89d f   libucrt:fpexcept.obj
 0001:0007d93f       __initterm                 1007e93f f   libucrt:initterm.obj
 0001:0007d99b       __initterm_e               1007e99b f   libucrt:initterm.obj
 0001:0007d9e0       _rand_s                    1007e9e0 f   libucrt:rand_s.obj
 0001:0007da28       ___acrt_initialize_locks   1007ea28 f   libucrt:locks.obj
 0001:0007da69       ___acrt_lock               1007ea69 f   libucrt:locks.obj
 0001:0007da80       ___acrt_uninitialize_locks 1007ea80 f   libucrt:locks.obj
 0001:0007dab1       ___acrt_unlock             1007eab1 f   libucrt:locks.obj
 0001:0007dac8       __lock_locales             1007eac8 f   libucrt:locks.obj
 0001:0007dad6       __unlock_locales           1007ead6 f   libucrt:locks.obj
 0001:0007dadf       __calloc_base              1007eadf f   libucrt:calloc_base.obj
 0001:0007db3c       ___pctype_func             1007eb3c f   libucrt:ctype.obj
 0001:0007db62       __wcsdup                   1007eb62 f   libucrt:wcsdup.obj
 0001:0007dbc3       ____lc_codepage_func       1007ebc3 f   libucrt:initctype.obj
 0001:0007dbea       ____lc_locale_name_func    1007ebea f   libucrt:initctype.obj
 0001:0007dc13       ___acrt_locale_initialize_ctype 1007ec13 f   libucrt:initctype.obj
 0001:0007e227       _setlocale                 1007f227 f   libucrt:setlocale.obj
 0001:0007e261       ___strncnt                 1007f261 f   libucrt:strncnt.obj
 0001:0007e27d       __free_base                1007f27d f   libucrt:free_base.obj
 0001:0007e2b7       __malloc_base              1007f2b7 f   libucrt:malloc_base.obj
 0001:0007e305       _abort                     1007f305 f   libucrt:abort.obj
 0001:0007e349       __realloc_base             1007f349 f   libucrt:realloc_base.obj
 0001:0007e3c0       _strcspn                   1007f3c0 f   libucrt:strcspn.obj
 0001:0007e410       _pow                       1007f410 f   libucrt:pow.obj
 0001:0007e450       __CIpow                    1007f450 f   libucrt:pow.obj
 0001:0007e48b       __CIpow_default            1007f48b f   libucrt:pow.obj
 0001:0007e4a4       __pow_default              1007f4a4     libucrt:pow.obj
 0001:0007e699       _wcscpy_s                  1007f699 f   libucrt:wcscpy_s.obj
 0001:0007e6fd       _strnlen                   1007f6fd f   libucrt:strnlen.obj
 0001:0007e81f       _wcsnlen                   1007f81f f   libucrt:strnlen.obj
 0001:0007ea23       __ismbblead                1007fa23 f   libucrt:ismbbyte.obj
 0001:0007ea3b       _strcpy_s                  1007fa3b f   libucrt:strcpy_s.obj
 0001:0007ea95       _wcsncmp                   1007fa95 f   libucrt:wcsncmp.obj
 0001:0007eacf       _iswctype                  1007facf f   libucrt:iswctype.obj
 0001:0007eb2e       __isctype_l                1007fb2e f   libucrt:isctype.obj
 0001:0007ec00       __mbtowc_l                 1007fc00 f   libucrt:mbtowc.obj
 0001:0007ecfa       _mbtowc                    1007fcfa f   libucrt:mbtowc.obj
 0001:0007ed14       __wctomb_s_l               1007fd14 f   libucrt:wctomb.obj
 0001:0007ee35       _wctomb_s                  1007fe35 f   libucrt:wctomb.obj
 0001:0007f16c       ___acrt_freeptd            1008016c f   libucrt:per_thread_data.obj
 0001:0007f198       ___acrt_getptd             10080198 f   libucrt:per_thread_data.obj
 0001:0007f24c       ___acrt_getptd_head        1008024c f   libucrt:per_thread_data.obj
 0001:0007f2e6       ___acrt_getptd_noexit      100802e6 f   libucrt:per_thread_data.obj
 0001:0007f399       ___acrt_initialize_ptd     10080399 f   libucrt:per_thread_data.obj
 0001:0007f3c5       ___acrt_uninitialize_ptd   100803c5 f   libucrt:per_thread_data.obj
 0001:0007f3df       ___acrt_update_locale_info 100803df f   libucrt:locale_update.obj
 0001:0007f40c       ___acrt_update_multibyte_info 1008040c f   libucrt:locale_update.obj
 0001:0007f439       __fileno                   10080439 f   libucrt:fileno.obj
 0001:0007f45f       _fegetround                1008045f f   libucrt:fegetround.obj
 0001:0007f6b8       ___acrt_copy_locale_name   100806b8 f   libucrt:wsetlocale.obj
 0001:0007f71e       ___acrt_set_locale_changed 1008071e f   libucrt:wsetlocale.obj
 0001:0007f729       ___acrt_uninitialize_locale 10080729 f   libucrt:wsetlocale.obj
 0001:0007f752       ___lc_lctowcs              10080752 f   libucrt:wsetlocale.obj
 0001:0007f7c2       ___lc_wcstolc              100807c2 f   libucrt:wsetlocale.obj
 0001:0007f920       __expandlocale             10080920 f   libucrt:wsetlocale.obj
 0001:0007fc97       __wcscats                  10080c97 f   libucrt:wsetlocale.obj
 0001:0007fcd8       __wsetlocale               10080cd8 f   libucrt:wsetlocale.obj
 0001:00080711       ___acrt_initialize_lowio   10081711 f   libucrt:ioinit.obj
 0001:00080767       ___acrt_uninitialize_lowio 10081767 f   libucrt:ioinit.obj
 0001:00080793       ___libm_error_support      10081793 f   libucrt:libm_error.obj
 0001:000809b0       __CIsqrt                   100819b0 f   libucrt:sqrt.obj
 0001:000809c4       _sqrt                      100819c4     libucrt:sqrt.obj
 0001:00080a6a       ?__acrt_fp_classify@@YA?AW4__acrt_fp_class@@ABN@Z 10081a6a f i libucrt:cvt.obj
 0001:00080ad0       ?__acrt_fp_is_negative@@YA_NABN@Z 10081ad0 f i libucrt:cvt.obj
 0001:0008133e       ___acrt_fp_format          1008233e f   libucrt:cvt.obj
 0001:00081488       __get_printf_count_output  10082488 f   libucrt:printf_count_output.obj
 0001:0008149d       ___acrt_stdio_begin_temporary_buffering_nolock 1008249d f   libucrt:_sftbuf.obj
 0001:00081552       ___acrt_stdio_end_temporary_buffering_nolock 10082552 f   libucrt:_sftbuf.obj
 0001:00081590       _exp                       10082590 f   libucrt:87ctran.obj
 0001:000815cc       __CIexp                    100825cc f   libucrt:87ctran.obj
 0001:00081607       __exp_default              10082607 f   libucrt:87ctran.obj
 0001:00081611       __CIexp_default            10082611 f   libucrt:87ctran.obj
 0001:0008161b       ___acrt_initialize_sse2    1008261b f   libucrt:mathfcns.obj
 0001:0008162b       __ceil_default             1008262b f   libucrt:ceil.obj
 0001:000816e4       __floor_default            100826e4 f   libucrt:floor.obj
 0001:000817a0       _cos                       100827a0 f   libucrt:cos.obj
 0001:000817e0       __CIcos                    100827e0 f   libucrt:cos.obj
 0001:0008181b       __CIcos_default            1008281b f   libucrt:cos.obj
 0001:0008182f       __cos_default              1008282f     libucrt:cos.obj
 0001:000818d0       _sin                       100828d0 f   libucrt:sin.obj
 0001:00081910       __CIsin                    10082910 f   libucrt:sin.obj
 0001:0008194b       __CIsin_default            1008294b f   libucrt:sin.obj
 0001:0008195f       __sin_default              1008295f     libucrt:sin.obj
 0001:000819f2       ___acrt_LCMapStringW       100829f2 f   libucrt:lcmapstringw.obj
 0001:00081a30       __isleadbyte_l             10082a30 f i libucrt:_wctype.obj
 0001:00081c7b       ___acrt_LCMapStringA       10082c7b f   libucrt:lcmapstringa.obj
 0001:00081cc6       _fegetexceptflag           10082cc6 f   libucrt:fegetexceptflag.obj
 0001:00081cf7       _fesetexceptflag           10082cf7 f   libucrt:fesetexceptflag.obj
 0001:000820b3       ___acrt_fenv_get_common_round_control 100830b3 f   libucrt:_fenvutils.obj
 0001:000820d5       ___acrt_fenv_get_control   100830d5 f   libucrt:_fenvutils.obj
 0001:00082157       ___acrt_fenv_get_fp_status_word_from_exception_mask 10083157 f   libucrt:_fenvutils.obj
 0001:00082171       ___acrt_fenv_get_status    10083171 f   libucrt:_fenvutils.obj
 0001:00082230       ___acrt_fenv_set_control   10083230 f   libucrt:_fenvutils.obj
 0001:0008229a       ___acrt_fenv_set_status    1008329a f   libucrt:_fenvutils.obj
 0001:00082418       __close                    10083418 f   libucrt:close.obj
 0001:000824a7       __close_nolock             100834a7 f   libucrt:close.obj
 0001:00082543       ?__acrt_stdio_allocate_stream@@YA?AV__crt_stdio_stream@@XZ 10083543 f   libucrt:stream.obj
 0001:000825a2       ?__acrt_stdio_free_stream@@YAXV__crt_stdio_stream@@@Z 100835a2 f   libucrt:stream.obj
 0001:000826a0       ___acrt_stdio_free_buffer_nolock 100836a0 f   libucrt:_freebuf.obj
 0001:000826de       ??$__acrt_stdio_parse_mode@D@@YA?AU__acrt_stdio_stream_mode@@QBD@Z 100836de f i libucrt:openfile.obj
 0001:00082905       ??$__acrt_stdio_parse_mode@_W@@YA?AU__acrt_stdio_stream_mode@@QB_W@Z 10083905 f i libucrt:openfile.obj
 0001:00082c4a       ?__acrt_stdio_parse_mode_D@@YA_NAAU__acrt_stdio_stream_mode@@@Z 10083c4a f i libucrt:openfile.obj
 0001:00082c65       ?__acrt_stdio_parse_mode_T@@YA_NAAU__acrt_stdio_stream_mode@@@Z 10083c65 f i libucrt:openfile.obj
 0001:00082c84       ?__acrt_stdio_parse_mode_b@@YA_NAAU__acrt_stdio_stream_mode@@@Z 10083c84 f i libucrt:openfile.obj
 0001:00082ca4       ?__acrt_stdio_parse_mode_c@@YA_NAAU__acrt_stdio_stream_mode@@AA_N@Z 10083ca4 f i libucrt:openfile.obj
 0001:00082cc6       ?__acrt_stdio_parse_mode_n@@YA_NAAU__acrt_stdio_stream_mode@@AA_N@Z 10083cc6 f i libucrt:openfile.obj
 0001:00082ce8       ?__acrt_stdio_parse_mode_plus@@YA_NAAU__acrt_stdio_stream_mode@@AA_N@Z 10083ce8 f i libucrt:openfile.obj
 0001:00082d1d       ?__acrt_stdio_parse_mode_t@@YA_NAAU__acrt_stdio_stream_mode@@@Z 10083d1d f i libucrt:openfile.obj
 0001:00082d3d       __openfile                 10083d3d f   libucrt:openfile.obj
 0001:00082d48       __wopenfile                10083d48 f   libucrt:openfile.obj
 0001:0008320a       __read                     1008420a f   libucrt:read.obj
 0001:00083314       __read_nolock              10084314 f   libucrt:read.obj
 0001:0008383c       ___acrt_stdio_refill_and_read_narrow_nolock 1008483c f   libucrt:_filbuf.obj
 0001:000839c7       __lseeki64                 100849c7 f   libucrt:lseek.obj
 0001:000839e2       __lseeki64_nolock          100849e2 f   libucrt:lseek.obj
 0001:00083d3c       ___acrt_AppPolicyGetProcessTerminationMethodInternal@4 10084d3c f   libucrt:winapi_thunks.obj
 0001:00083d93       ___acrt_AreFileApisANSI@0  10084d93 f   libucrt:winapi_thunks.obj
 0001:00083dcd       ___acrt_EnumSystemLocalesEx@16 10084dcd f   libucrt:winapi_thunks.obj
 0001:00083e37       ___acrt_FlsAlloc@4         10084e37 f   libucrt:winapi_thunks.obj
 0001:00083e8d       ___acrt_FlsFree@4          10084e8d f   libucrt:winapi_thunks.obj
 0001:00083ee3       ___acrt_FlsGetValue@4      10084ee3 f   libucrt:winapi_thunks.obj
 0001:00083f39       ___acrt_FlsSetValue@8      10084f39 f   libucrt:winapi_thunks.obj
 0001:00083f92       ___acrt_GetLocaleInfoEx@16 10084f92 f   libucrt:winapi_thunks.obj
 0001:00083fe9       ___acrt_GetSystemTimePreciseAsFileTime@4 10084fe9 f   libucrt:winapi_thunks.obj
 0001:0008403f       ___acrt_GetUserDefaultLocaleName@8 1008503f f   libucrt:winapi_thunks.obj
 0001:00084092       ___acrt_InitializeCriticalSectionEx@12 10085092 f   libucrt:winapi_thunks.obj
 0001:000840f4       ___acrt_IsValidLocaleName@4 100850f4 f   libucrt:winapi_thunks.obj
 0001:00084143       ___acrt_LCIDToLocaleName@16 10085143 f   libucrt:winapi_thunks.obj
 0001:00084199       ___acrt_LCMapStringEx@36   10085199 f   libucrt:winapi_thunks.obj
 0001:0008420d       ___acrt_LocaleNameToLCID@8 1008520d f   libucrt:winapi_thunks.obj
 0001:00084255       ___acrt_RtlGenRandom@8     10085255 f   libucrt:winapi_thunks.obj
 0001:000842ac       ___acrt_can_use_vista_locale_apis 100852ac f   libucrt:winapi_thunks.obj
 0001:000842b8       ___acrt_eagerly_load_locale_apis 100852b8 f   libucrt:winapi_thunks.obj
 0001:000842ef       ___acrt_initialize_winapi_thunks 100852ef f   libucrt:winapi_thunks.obj
 0001:0008432b       ___acrt_uninitialize_winapi_thunks 1008532b f   libucrt:winapi_thunks.obj
 0001:0008438c       __fFATN2                   1008538c     libucrt:87triga.obj
 0001:000843dc       __rtpiby2                  100853dc     libucrt:87triga.obj
 0001:00084420       __cintrindisp2             10085420 f   libucrt:87cdisp.obj
 0001:00084464       __cintrindisp1             10085464 f   libucrt:87cdisp.obj
 0001:000844a7       __ctrandisp2               100854a7 f   libucrt:87cdisp.obj
 0001:00084636       __ctrandisp1               10085636 f   libucrt:87cdisp.obj
 0001:00084669       __fload                    10085669 f   libucrt:87cdisp.obj
 0001:000846a5       __fcloseall                100856a5 f   libucrt:closeall.obj
 0001:000847dd       __commit                   100857dd f   libucrt:commit.obj
 0001:00084dfd       __write                    10085dfd f   libucrt:write.obj
 0001:00084ee5       __write_nolock             10085ee5 f   libucrt:write.obj
 0001:00085100       __trandisp1                10086100 f   libucrt:87disp.obj
 0001:00085167       __trandisp2                10086167 f   libucrt:87disp.obj
 0001:000851f3       __rttospopde               100861f3     libucrt:87disp.obj
 0001:000851f8       __rttospop                 100861f8     libucrt:87disp.obj
 0001:000851fa       __rtnospop                 100861fa     libucrt:87disp.obj
 0001:000851fc       __rttosnpop                100861fc     libucrt:87disp.obj
 0001:000851fd       __rtnospopde               100861fd     libucrt:87disp.obj
 0001:00085204       __rtzeropop                10086204     libucrt:87disp.obj
 0001:00085206       __rtzeronpop               10086206     libucrt:87disp.obj
 0001:0008520b       __rtzerospop               1008620b     libucrt:87disp.obj
 0001:00085218       __rtonepop                 10086218     libucrt:87disp.obj
 0001:0008521a       __rtonenpop                1008621a     libucrt:87disp.obj
 0001:0008521f       __tosnan1                  1008621f     libucrt:87disp.obj
 0001:0008524a       __nosnan2                  1008624a     libucrt:87disp.obj
 0001:0008524c       __tosnan2                  1008624c     libucrt:87disp.obj
 0001:00085274       __nan2                     10086274     libucrt:87disp.obj
 0001:000852b3       __rtindfpop                100862b3     libucrt:87disp.obj
 0001:000852b5       __rtindfnpop               100862b5     libucrt:87disp.obj
 0001:000852c6       __rttosnpopde              100862c6     libucrt:87disp.obj
 0001:000852d0       __rtatan2inf               100862d0     libucrt:87disp.obj
 0001:000852ed       __rtchsifneg               100862ed     libucrt:87disp.obj
 0001:000852f4       __dunscale                 100862f4 f   libucrt:_unscale.obj
 0001:00085390       _acos                      10086390 f   libucrt:acos.obj
 0001:000853d0       __CIacos                   100863d0 f   libucrt:acos.obj
 0001:0008540b       __CIacos_default           1008640b f   libucrt:acos.obj
 0001:0008541f       __acos_default             1008641f     libucrt:acos.obj
 0001:000854e0       _asin                      100864e0 f   libucrt:asin.obj
 0001:00085520       __CIasin                   10086520 f   libucrt:asin.obj
 0001:0008555b       __CIasin_default           1008655b f   libucrt:asin.obj
 0001:0008556f       __asin_default             1008656f     libucrt:asin.obj
 0001:00085630       _atan                      10086630 f   libucrt:atan.obj
 0001:00085670       __CIatan                   10086670 f   libucrt:atan.obj
 0001:000856ab       __CIatan_default           100866ab f   libucrt:atan.obj
 0001:000856bf       __atan_default             100866bf     libucrt:atan.obj
 0001:0008574a       __decomp                   1008674a f   libucrt:util.obj
 0001:0008581e       __get_exp                  1008681e f   libucrt:util.obj
 0001:00085837       __set_exp                  10086837 f   libucrt:util.obj
 0001:00085866       __sptype                   10086866 f   libucrt:util.obj
 0001:000858c4       __clrfp                    100868c4 f   libucrt:fpctrl.obj
 0001:000858d7       __ctrlfp                   100868d7 f   libucrt:fpctrl.obj
 0001:00085903       __set_statfp               10086903 f   libucrt:fpctrl.obj
 0001:0008595e       __statfp                   1008695e f   libucrt:fpctrl.obj
 0001:00085b4b       ___acrt_stdio_flush_and_write_narrow_nolock 10086b4b f   libucrt:_flsbuf.obj
 0001:00085b56       ___acrt_stdio_allocate_buffer_nolock 10086b56 f   libucrt:_getbuf.obj
 0001:00085bb3       ?initialize@?$dual_state_global@PAPAD@__crt_state_management@@QAEXQAPAD@Z 10086bb3 f i libucrt:environment_initialization.obj
 0001:00085bb3       ?initialize@?$dual_state_global@P6AHPAU_exception@@@Z@__crt_state_management@@QAEXQ6AHPAU_exception@@@Z@Z 10086bb3 f i libucrt:matherr.obj
 0001:00085bb3       ?initialize@?$dual_state_global@H@__crt_state_management@@QAEXH@Z 10086bb3 f i libucrt:timeset.obj
 0001:00085bb3       ?initialize@?$dual_state_global@PAU__crt_multibyte_data@@@__crt_state_management@@QAEXQAU__crt_multibyte_data@@@Z 10086bb3 f i libucrt:mbctype.obj
 0001:00085bb3       ?initialize@?$dual_state_global@P6AXH@Z@__crt_state_management@@QAEXQ6AXH@Z@Z 10086bb3 f i libucrt:signal.obj
 0001:00085bb3       ?initialize@?$dual_state_global@J@__crt_state_management@@QAEXJ@Z 10086bb3 f i libucrt:timeset.obj
 0001:00085bb3       ?initialize@?$dual_state_global@PAU__crt_locale_data@@@__crt_state_management@@QAEXQAU__crt_locale_data@@@Z 10086bb3 f i libucrt:initialization.obj
 0001:00085bb3       ?initialize@?$dual_state_global@P6AHI@Z@__crt_state_management@@QAEXQ6AHI@Z@Z 10086bb3 f i libucrt:new_handler.obj
 0001:00085be4       ___acrt_initialize_timeset 10086be4 f   libucrt:timeset.obj
 0001:00085c1b       ___acrt_get_process_end_policy 10086c1b f   libucrt:win_policies.obj
 0001:00086104       ___acrt_expand_narrow_argv_wildcards 10087104 f   libucrt:argv_wildcards.obj
 0001:0008662f       ___acrt_initialize_multibyte 1008762f f   libucrt:mbctype.obj
 0001:0008667c       ___acrt_update_thread_multibyte_data 1008767c f   libucrt:mbctype.obj
 0001:00086690       __setmbcp_nolock           10087690 f   libucrt:mbctype.obj
 0001:00086881       ___acrt_initialize_command_line 10087881 f   libucrt:argv_data.obj
 0001:000868d1       ___dcrt_get_narrow_environment_from_os 100878d1 f   libucrt:get_environment_from_os.obj
 0001:00086954       __recalloc                 10087954 f   libucrt:recalloc.obj
 0001:0008695f       __recalloc_base            1008795f f   libucrt:recalloc.obj
 0001:000869cc       ___acrt_initialize_heap    100879cc f   libucrt:heap_handle.obj
 0001:000869dd       ___acrt_uninitialize_heap  100879dd f   libucrt:heap_handle.obj
 0001:000869e7       ___acrt_execute_initializers 100879e7 f   libucrt:shared_initialization.obj
 0001:00086a6a       ___acrt_execute_uninitializers 10087a6a f   libucrt:shared_initialization.obj
 0001:00086b7b       ___acrt_get_sigabrt_handler 10087b7b f   libucrt:signal.obj
 0001:00086ba4       ___acrt_initialize_signal_handlers 10087ba4 f   libucrt:signal.obj
 0001:00086bdf       ___fpecode                 10087bdf f   libucrt:signal.obj
 0001:00086be8       _raise                     10087be8 f   libucrt:signal.obj
 0001:00086de9       ___acrt_has_user_matherr   10087de9 f   libucrt:matherr.obj
 0001:00086e02       ___acrt_initialize_user_matherr 10087e02 f   libucrt:matherr.obj
 0001:00086e16       ___acrt_invoke_user_matherr 10087e16 f   libucrt:matherr.obj
 0001:00086e5f       __query_new_mode           10087e5f f   libucrt:new_mode.obj
 0001:00086f5d       ___acrt_GetLocaleInfoA     10087f5d f   libucrt:getlocaleinfoa.obj
 0001:0008710f       ___acrt_GetStringTypeA     1008810f f   libucrt:getstringtypea.obj
 0001:000874a9       __wcstombs_s_l             100884a9 f   libucrt:wcstombs.obj
 0001:00087576       __fpclass                  10088576 f   libucrt:ieeemisc.obj
 0001:00087620       __CIpow_pentium4           10088620 f   libucrt:pow_pentium4.obj
 0001:00087639       __pow_pentium4             10088639     libucrt:pow_pentium4.obj
 0001:00088151       __fFEXP                    10089151     libucrt:87tran.obj
 0001:000881a8       __rtinfpopse               100891a8     libucrt:87tran.obj
 0001:000881aa       __rtinfnpopse              100891aa     libucrt:87tran.obj
 0001:000881ba       __fFLN                     100891ba     libucrt:87tran.obj
 0001:0008826f       __rtinfpop                 1008926f     libucrt:87tran.obj
 0001:00088271       __rtinfnpop                10089271     libucrt:87tran.obj
 0001:0008828e       __ffexpm1                  1008928e     libucrt:87tran.obj
 0001:00088340       __startTwoArgErrorHandling 10089340 f   libucrt:genexcep.obj
 0001:00088357       __startOneArgErrorHandling 10089357 f   libucrt:genexcep.obj
 0001:000883a0       __twoToTOS                 100893a0 f   libucrt:common.obj
 0001:000883b5       __load_CW                  100893b5 f   libucrt:common.obj
 0001:000883cc       __convertTOStoQNaN         100893cc f   libucrt:common.obj
 0001:000883e5       __fload_withFB             100893e5 f   libucrt:common.obj
 0001:00088428       __checkTOS_withFB          10089428 f   libucrt:common.obj
 0001:0008843e       __fast_exit                1008943e f   libucrt:common.obj
 0001:0008844b       __math_exit                1008944b f   libucrt:common.obj
 0001:00088475       __check_overflow_exit      10089475 f   libucrt:common.obj
 0001:00088489       __check_range_exit         10089489 f   libucrt:common.obj
 0001:0008852c       __d_inttype                1008952c f   libucrt:powhlp.obj
 0001:00088596       __powhlp                   10089596 f   libucrt:powhlp.obj
 0001:000886c1       __wcsicmp                  100896c1 f   libucrt:wcsicmp.obj
 0001:00088756       __wcsicmp_l                10089756 f   libucrt:wcsicmp.obj
 0001:00088836       ___acrt_add_locale_ref     10089836 f   libucrt:locale_refcounting.obj
 0001:000888b3       ___acrt_free_locale        100898b3 f   libucrt:locale_refcounting.obj
 0001:000889fd       ___acrt_locale_add_lc_time_reference 100899fd f   libucrt:locale_refcounting.obj
 0001:00088a26       ___acrt_locale_free_lc_time_if_unreferenced 10089a26 f   libucrt:locale_refcounting.obj
 0001:00088a56       ___acrt_locale_release_lc_time_reference 10089a56 f   libucrt:locale_refcounting.obj
 0001:00088a7f       ___acrt_release_locale_ref 10089a7f f   libucrt:locale_refcounting.obj
 0001:00088b00       ___acrt_update_thread_locale_data 10089b00 f   libucrt:locale_refcounting.obj
 0001:00088b77       __updatetlocinfoEx_nolock  10089b77 f   libucrt:locale_refcounting.obj
 0001:00088bc7       ___acrt_locale_free_monetary 10089bc7 f   libucrt:initmon.obj
 0001:00088cc5       ___acrt_locale_initialize_monetary 10089cc5 f   libucrt:initmon.obj
 0001:00089081       ___acrt_locale_free_numeric 1008a081 f   libucrt:initnum.obj
 0001:000890ea       ___acrt_locale_initialize_numeric 1008a0ea f   libucrt:initnum.obj
 0001:000895c0       ___acrt_locale_free_time   1008a5c0 f   libucrt:inittime.obj
 0001:000896a4       ___acrt_locale_initialize_time 1008a6a4 f   libucrt:inittime.obj
 0001:00089723       _wcscat_s                  1008a723 f   libucrt:wcscat_s.obj
 0001:00089865       _wcsncpy_s                 1008a865 f   libucrt:wcsncpy_s.obj
 0001:00089870       _wcscspn                   1008a870 f   libucrt:wcscspn.obj
 0001:000898c0       _wcspbrk                   1008a8c0 f   libucrt:wcspbrk.obj
 0001:0008a003       ___acrt_get_qualified_locale 1008b003 f   libucrt:get_qualified_locale.obj
 0001:0008a941       ___acrt_get_qualified_locale_downlevel 1008b941 f   libucrt:getqloc_downlevel.obj
 0001:0008ab48       ___acrt_lowio_create_handle_array 1008bb48 f   libucrt:osfinfo.obj
 0001:0008abc2       ___acrt_lowio_destroy_handle_array 1008bbc2 f   libucrt:osfinfo.obj
 0001:0008abf7       ___acrt_lowio_ensure_fh_exists 1008bbf7 f   libucrt:osfinfo.obj
 0001:0008ac8b       ___acrt_lowio_lock_fh      1008bc8b f   libucrt:osfinfo.obj
 0001:0008acae       ___acrt_lowio_set_os_handle 1008bcae f   libucrt:osfinfo.obj
 0001:0008ad42       ___acrt_lowio_unlock_fh    1008bd42 f   libucrt:osfinfo.obj
 0001:0008ad65       __alloc_osfhnd             1008bd65 f   libucrt:osfinfo.obj
 0001:0008ae6e       __free_osfhnd              1008be6e f   libucrt:osfinfo.obj
 0001:0008aeff       __get_osfhandle            1008beff f   libucrt:osfinfo.obj
 0001:0008af69       ___acrt_fp_strflt_to_string 1008bf69 f   libucrt:_fptostr.obj
 0001:0008b025       ___acrt_fltout             1008c025 f   libucrt:cfout.obj
 0001:0008c400       __isatty                   1008d400 f   libucrt:isatty.obj
 0001:0008c460       __CIexp_pentium4           1008d460 f   libucrt:exp_pentium4.obj
 0001:0008c478       __exp_pentium4             1008d478     libucrt:exp_pentium4.obj
 0001:0008c720       __frnd                     1008d720 f   libucrt:frnd.obj
 0001:0008c740       __CIcos_pentium4           1008d740 f   libucrt:cos_pentium4.obj
 0001:0008c758       __cos_pentium4             1008d758     libucrt:cos_pentium4.obj
 0001:0008c8f0       __CIsin_pentium4           1008d8f0 f   libucrt:sin_pentium4.obj
 0001:0008c908       __sin_pentium4             1008d908     libucrt:sin_pentium4.obj
 0001:0008cab8       _fetestexcept              1008dab8 f   libucrt:fetestexcept.obj
 0001:0008cada       __wcsnicmp                 1008dada f   libucrt:wcsnicmp.obj
 0001:0008cb94       __wcsnicmp_l               1008db94 f   libucrt:wcsnicmp.obj
 0001:0008cca0       _strncmp                   1008dca0 f   libucrt:strncmp.obj
 0001:0008cd18       __strnicmp                 1008dd18 f   libucrt:strnicmp.obj
 0001:0008cd85       __strnicmp_l               1008dd85 f   libucrt:strnicmp.obj
 0001:0008d4b4       __sopen_nolock             1008e4b4 f   libucrt:open.obj
 0001:0008d505       __sopen_s                  1008e505 f   libucrt:open.obj
 0001:0008d525       __wsopen_nolock            1008e525 f   libucrt:open.obj
 0001:0008d84e       __wsopen_s                 1008e84e f   libucrt:open.obj
 0001:0008d92a       ___acrt_DownlevelLCIDToLocaleName 1008e92a f   libucrt:lcidtoname_downlevel.obj
 0001:0008d9d4       ___acrt_DownlevelLocaleNameToLCID 1008e9d4 f   libucrt:lcidtoname_downlevel.obj
 0001:0008da00       __87except                 1008ea00 f   libucrt:87except.obj
 0001:0008db0b       __putwch_nolock            1008eb0b f   libucrt:putwch.obj
 0001:0008db3f       __dnorm                    1008eb3f f   libucrt:_norm.obj
 0001:0008dcd0       __CIacos_pentium4          1008ecd0 f   libucrt:acos_pentium4.obj
 0001:0008dce8       __acos_pentium4            1008ece8     libucrt:acos_pentium4.obj
 0001:0008e230       __CIasin_pentium4          1008f230 f   libucrt:asin_pentium4.obj
 0001:0008e248       __asin_pentium4            1008f248     libucrt:asin_pentium4.obj
 0001:0008e7b0       __CIatan_pentium4          1008f7b0 f   libucrt:atan_pentium4.obj
 0001:0008e7c8       __atan_pentium4            1008f7c8     libucrt:atan_pentium4.obj
 0001:0008eb29       _strncpy_s                 1008fb29 f   libucrt:strncpy_s.obj
 0001:0008eb40       _strpbrk                   1008fb40 f   libucrt:strpbrk.obj
 0001:0008eb80       __mbsdec                   1008fb80 f   libucrt:mbsdec.obj
 0001:0008eb97       __mbsdec_l                 1008fb97 f   libucrt:mbsdec.obj
 0001:0008ec33       __msize                    1008fc33 f   libucrt:msize.obj
 0001:0008ec3e       __msize_base               1008fc3e f   libucrt:msize.obj
 0001:0008ed65       __itow_s                   1008fd65 f   libucrt:xtoa.obj
 0001:0008ed9a       __query_app_type           1008fd9a f   libucrt:report_runtime_error.obj
 0001:0008eda0       _fegetenv                  1008fda0 f   libucrt:fegetenv.obj
 0001:0008edbd       _fesetenv                  1008fdbd f   libucrt:fesetenv.obj
 0001:0008ee0a       _feholdexcept              1008fe0a f   libucrt:feholdexcept.obj
 0001:0008ee60       _log10                     1008fe60 f   libucrt:log10.obj
 0001:0008eea0       __CIlog10                  1008fea0 f   libucrt:log10.obj
 0001:0008eedb       __CIlog10_default          1008fedb f   libucrt:log10.obj
 0001:0008eeef       __log10_default            1008feef     libucrt:log10.obj
 0001:0008efb0       ___ascii_strnicmp          1008ffb0 f   libucrt:_strnicm.obj
 0001:0008f011       __get_fmode                10090011 f   libucrt:setmode.obj
 0001:0008f03d       __setmode_nolock           1009003d f   libucrt:setmode.obj
 0001:0008f10e       ___acrt_copy_path_to_wide_string 1009010e f   libucrt:string_utilities.obj
 0001:0008f1d5       __chsize_nolock            100901d5 f   libucrt:chsize.obj
 0001:0008f385       ___dcrt_lowio_ensure_console_output_initialized 10090385 f   libucrt:initcon.obj
 0001:0008f3a4       ___dcrt_terminate_console_output 100903a4 f   libucrt:initcon.obj
 0001:0008f3bb       ___dcrt_write_console_w    100903bb f   libucrt:initcon.obj
 0001:0008f410       __clearfp                  10090410 f   libucrt:ieee87.obj
 0001:0008f4f0       __CIlog10_pentium4         100904f0 f   libucrt:log10_pentium4.obj
 0001:0008f508       __log10_pentium4           10090508     libucrt:log10_pentium4.obj
 0001:0008f780       _IsProcessorFeaturePresent@4 10090780 f   kernel32:KERNEL32.dll
 0001:0008f786       __EH_epilog3               10090786 f   LIBCMT:ehprolg3.obj
 0001:0008f79b       __EH_prolog3               1009079b f   LIBCMT:ehprolg3.obj
 0001:0008f7cf       __EH_prolog3_catch         100907cf f   LIBCMT:ehprolg3.obj
 0001:0008f810       __allmul                   10090810 f   LIBCMT:llmul.obj
 0001:0008f850       __aulldiv                  10090850 f   LIBCMT:ulldiv.obj
 0001:0008f8c0       __FindPESection            100908c0 f   LIBCMT:pesect.obj
 0001:0008f910       __IsNonwritableInCurrentImage 10090910 f   LIBCMT:pesect.obj
 0001:0008f9d0       __ValidateImageBase        100909d0 f   LIBCMT:pesect.obj
 0001:0008fa10       __aulldvrm                 10090a10 f   LIBCMT:ulldvrm.obj
 0001:0008fab0       __allshl                   10090ab0 f   LIBCMT:llshl.obj
 0001:0008fad0       __aullshr                  10090ad0 f   LIBCMT:ullshr.obj
 0001:0008faf0       __alldiv                   10090af0 f   LIBCMT:lldiv.obj
 0001:0008fba0       __alldvrm                  10090ba0 f   LIBCMT:lldvrm.obj
 0001:0008fc80       __SEH_prolog4_GS           10090c80 f   LIBCMT:_sehprolg4gs_.obj
 0001:0008fcc9       __SEH_epilog4_GS           10090cc9 f   LIBCMT:_sehprolg4gs_.obj
 0001:0008fce0       __allrem                   10090ce0 f   LIBCMT:llrem.obj
 0001:0008fda0       _strrchr                   10090da0 f   libvcruntime:strrchr.obj
 0001:0008fed7       _wcschr                    10090ed7 f   libvcruntime:wcschr.obj
 0001:000922b0       ??__Finst@?1??instance@?$singleton@Vgrenade_prediction@@@@SAAAVgrenade_prediction@@XZ@YAXXZ 100932b0 f i ESP.obj
 0001:00092340       ??__Finst@?1??instance@?$singleton@Vlegitbot@@@@SAAAVlegitbot@@XZ@YAXXZ 10093340 f i Hooks.obj
 0001:00092350       ??__Finst@?1??instance@?$singleton@Vmisc@@@@SAAAVmisc@@XZ@YAXXZ 10093350 f i Hooks.obj
 0001:00092360       ??__Finst@?1??instance@?$singleton@Vragebot@@@@SAAAVragebot@@XZ@YAXXZ 10093360 f i Hooks.obj
 0001:00092370       ??__Finst@?1??instance@?$singleton@Vvisuals@@@@SAAAVvisuals@@XZ@YAXXZ 10093370 f i Hooks.obj
 0001:000923e0       ??__Flog@?1??on_fire_event@item_purchase@@QAEXPAVIGameEvent@@_N@Z@YAXXZ 100933e0 f i Hooks.obj
 0002:00000000       __imp__ImmGetContext@4     10094000     imm32:IMM32.dll
 0002:00000004       __imp__ImmSetCompositionWindow@8 10094004     imm32:IMM32.dll
 0002:00000008       \177IMM32_NULL_THUNK_DATA  10094008     imm32:IMM32.dll
 0002:0000000c       __imp__WritePrivateProfileStringA@16 1009400c     kernel32:KERNEL32.dll
 0002:00000010       __imp__Sleep@4             10094010     kernel32:KERNEL32.dll
 0002:00000014       __imp__CreateThread@24     10094014     kernel32:KERNEL32.dll
 0002:00000018       __imp__FreeLibraryAndExitThread@8 10094018     kernel32:KERNEL32.dll
 0002:0000001c       __imp__GetTickCount64@0    1009401c     kernel32:KERNEL32.dll
 0002:00000020       __imp__VirtualProtect@16   10094020     kernel32:KERNEL32.dll
 0002:00000024       __imp__QueryPerformanceCounter@4 10094024     kernel32:KERNEL32.dll
 0002:00000028       __imp__QueryPerformanceFrequency@4 10094028     kernel32:KERNEL32.dll
 0002:0000002c       __imp__GlobalAlloc@8       1009402c     kernel32:KERNEL32.dll
 0002:00000030       __imp__GlobalUnlock@4      10094030     kernel32:KERNEL32.dll
 0002:00000034       __imp__GlobalLock@4        10094034     kernel32:KERNEL32.dll
 0002:00000038       __imp__GetProcAddress@8    10094038     kernel32:KERNEL32.dll
 0002:0000003c       __imp__GetModuleHandleA@4  1009403c     kernel32:KERNEL32.dll
 0002:00000040       __imp__MultiByteToWideChar@24 10094040     kernel32:KERNEL32.dll
 0002:00000044       __imp__GetStdHandle@4      10094044     kernel32:KERNEL32.dll
 0002:00000048       __imp__GetCurrentProcess@0 10094048     kernel32:KERNEL32.dll
 0002:0000004c       __imp__FreeConsole@0       1009404c     kernel32:KERNEL32.dll
 0002:00000050       __imp__GetPrivateProfileStringA@24 10094050     kernel32:KERNEL32.dll
 0002:00000054       __imp__K32GetModuleInformation@16 10094054     kernel32:KERNEL32.dll
 0002:00000058       __imp__WriteConsoleW@20    10094058     kernel32:KERNEL32.dll
 0002:0000005c       __imp__SetEndOfFile@4      1009405c     kernel32:KERNEL32.dll
 0002:00000060       __imp__HeapSize@12         10094060     kernel32:KERNEL32.dll
 0002:00000064       __imp__CreateFileW@28      10094064     kernel32:KERNEL32.dll
 0002:00000068       __imp__SetStdHandle@8      10094068     kernel32:KERNEL32.dll
 0002:0000006c       __imp__GetProcessHeap@0    1009406c     kernel32:KERNEL32.dll
 0002:00000070       __imp__FreeEnvironmentStringsW@4 10094070     kernel32:KERNEL32.dll
 0002:00000074       __imp__GetEnvironmentStringsW@0 10094074     kernel32:KERNEL32.dll
 0002:00000078       __imp__GetCommandLineW@0   10094078     kernel32:KERNEL32.dll
 0002:0000007c       __imp__GetCommandLineA@0   1009407c     kernel32:KERNEL32.dll
 0002:00000080       __imp__GetOEMCP@0          10094080     kernel32:KERNEL32.dll
 0002:00000084       __imp__IsValidCodePage@4   10094084     kernel32:KERNEL32.dll
 0002:00000088       __imp__FindNextFileA@8     10094088     kernel32:KERNEL32.dll
 0002:0000008c       __imp__CreateDirectoryA@8  1009408c     kernel32:KERNEL32.dll
 0002:00000090       __imp__GetModuleHandleW@4  10094090     kernel32:KERNEL32.dll
 0002:00000094       __imp__CloseHandle@4       10094094     kernel32:KERNEL32.dll
 0002:00000098       __imp__EnterCriticalSection@4 10094098     kernel32:KERNEL32.dll
 0002:0000009c       __imp__LeaveCriticalSection@4 1009409c     kernel32:KERNEL32.dll
 0002:000000a0       __imp__DeleteCriticalSection@4 100940a0     kernel32:KERNEL32.dll
 0002:000000a4       __imp__SetEvent@4          100940a4     kernel32:KERNEL32.dll
 0002:000000a8       __imp__ResetEvent@4        100940a8     kernel32:KERNEL32.dll
 0002:000000ac       __imp__WaitForSingleObjectEx@12 100940ac     kernel32:KERNEL32.dll
 0002:000000b0       __imp__CreateEventW@16     100940b0     kernel32:KERNEL32.dll
 0002:000000b4       __imp__UnhandledExceptionFilter@4 100940b4     kernel32:KERNEL32.dll
 0002:000000b8       __imp__SetUnhandledExceptionFilter@4 100940b8     kernel32:KERNEL32.dll
 0002:000000bc       __imp__TerminateProcess@8  100940bc     kernel32:KERNEL32.dll
 0002:000000c0       __imp__IsProcessorFeaturePresent@4 100940c0     kernel32:KERNEL32.dll
 0002:000000c4       __imp__IsDebuggerPresent@0 100940c4     kernel32:KERNEL32.dll
 0002:000000c8       __imp__GetStartupInfoW@4   100940c8     kernel32:KERNEL32.dll
 0002:000000cc       __imp__GetCurrentProcessId@0 100940cc     kernel32:KERNEL32.dll
 0002:000000d0       __imp__GetCurrentThreadId@0 100940d0     kernel32:KERNEL32.dll
 0002:000000d4       __imp__GetSystemTimeAsFileTime@4 100940d4     kernel32:KERNEL32.dll
 0002:000000d8       __imp__InitializeSListHead@4 100940d8     kernel32:KERNEL32.dll
 0002:000000dc       __imp__GetLastError@0      100940dc     kernel32:KERNEL32.dll
 0002:000000e0       __imp__WideCharToMultiByte@32 100940e0     kernel32:KERNEL32.dll
 0002:000000e4       __imp__EncodePointer@4     100940e4     kernel32:KERNEL32.dll
 0002:000000e8       __imp__DecodePointer@4     100940e8     kernel32:KERNEL32.dll
 0002:000000ec       __imp__SetLastError@4      100940ec     kernel32:KERNEL32.dll
 0002:000000f0       __imp__InitializeCriticalSectionAndSpinCount@8 100940f0     kernel32:KERNEL32.dll
 0002:000000f4       __imp__TlsAlloc@0          100940f4     kernel32:KERNEL32.dll
 0002:000000f8       __imp__TlsGetValue@4       100940f8     kernel32:KERNEL32.dll
 0002:000000fc       __imp__TlsSetValue@8       100940fc     kernel32:KERNEL32.dll
 0002:00000100       __imp__TlsFree@4           10094100     kernel32:KERNEL32.dll
 0002:00000104       __imp__LCMapStringW@24     10094104     kernel32:KERNEL32.dll
 0002:00000108       __imp__GetLocaleInfoW@16   10094108     kernel32:KERNEL32.dll
 0002:0000010c       __imp__GetStringTypeW@16   1009410c     kernel32:KERNEL32.dll
 0002:00000110       __imp__GetCPInfo@8         10094110     kernel32:KERNEL32.dll
 0002:00000114       __imp__RaiseException@16   10094114     kernel32:KERNEL32.dll
 0002:00000118       __imp__RtlUnwind@16        10094118     kernel32:KERNEL32.dll
 0002:0000011c       __imp__FreeLibrary@4       1009411c     kernel32:KERNEL32.dll
 0002:00000120       __imp__LoadLibraryExW@12   10094120     kernel32:KERNEL32.dll
 0002:00000124       __imp__InterlockedFlushSList@4 10094124     kernel32:KERNEL32.dll
 0002:00000128       __imp__ReadFile@20         10094128     kernel32:KERNEL32.dll
 0002:0000012c       __imp__ExitProcess@4       1009412c     kernel32:KERNEL32.dll
 0002:00000130       __imp__GetModuleHandleExW@12 10094130     kernel32:KERNEL32.dll
 0002:00000134       __imp__GetModuleFileNameA@12 10094134     kernel32:KERNEL32.dll
 0002:00000138       __imp__HeapAlloc@12        10094138     kernel32:KERNEL32.dll
 0002:0000013c       __imp__HeapFree@12         1009413c     kernel32:KERNEL32.dll
 0002:00000140       __imp__HeapReAlloc@16      10094140     kernel32:KERNEL32.dll
 0002:00000144       __imp__GetACP@0            10094144     kernel32:KERNEL32.dll
 0002:00000148       __imp__GetFileType@4       10094148     kernel32:KERNEL32.dll
 0002:0000014c       __imp__GetConsoleMode@8    1009414c     kernel32:KERNEL32.dll
 0002:00000150       __imp__ReadConsoleW@20     10094150     kernel32:KERNEL32.dll
 0002:00000154       __imp__SetFilePointerEx@20 10094154     kernel32:KERNEL32.dll
 0002:00000158       __imp__IsValidLocale@8     10094158     kernel32:KERNEL32.dll
 0002:0000015c       __imp__GetUserDefaultLCID@0 1009415c     kernel32:KERNEL32.dll
 0002:00000160       __imp__EnumSystemLocalesW@8 10094160     kernel32:KERNEL32.dll
 0002:00000164       __imp__FlushFileBuffers@4  10094164     kernel32:KERNEL32.dll
 0002:00000168       __imp__WriteFile@20        10094168     kernel32:KERNEL32.dll
 0002:0000016c       __imp__GetConsoleCP@0      1009416c     kernel32:KERNEL32.dll
 0002:00000170       __imp__FindClose@4         10094170     kernel32:KERNEL32.dll
 0002:00000174       __imp__FindFirstFileExA@24 10094174     kernel32:KERNEL32.dll
 0002:00000178       \177KERNEL32_NULL_THUNK_DATA 10094178     kernel32:KERNEL32.dll
 0002:0000017c       __imp__SHGetFolderPathA@20 1009417c     shell32:SHELL32.dll
 0002:00000180       \177SHELL32_NULL_THUNK_DATA 10094180     shell32:SHELL32.dll
 0002:00000184       __imp__GetAsyncKeyState@4  10094184     user32:USER32.dll
 0002:00000188       __imp__SetWindowLongA@12   10094188     user32:USER32.dll
 0002:0000018c       __imp__CallWindowProcA@20  1009418c     user32:USER32.dll
 0002:00000190       __imp__EmptyClipboard@0    10094190     user32:USER32.dll
 0002:00000194       __imp__GetClipboardData@4  10094194     user32:USER32.dll
 0002:00000198       __imp__SetClipboardData@8  10094198     user32:USER32.dll
 0002:0000019c       __imp__CloseClipboard@0    1009419c     user32:USER32.dll
 0002:000001a0       __imp__OpenClipboard@4     100941a0     user32:USER32.dll
 0002:000001a4       __imp__SetCursor@4         100941a4     user32:USER32.dll
 0002:000001a8       __imp__GetClientRect@8     100941a8     user32:USER32.dll
 0002:000001ac       __imp__GetKeyState@4       100941ac     user32:USER32.dll
 0002:000001b0       __imp__FindWindowA@8       100941b0     user32:USER32.dll
 0002:000001b4       \177USER32_NULL_THUNK_DATA 100941b4     user32:USER32.dll
 0002:000001b8       __imp__PlaySoundA@12       100941b8     winmm:WINMM.dll
 0002:000001bc       \177WINMM_NULL_THUNK_DATA  100941bc     winmm:WINMM.dll
 0002:000001c0       ___guard_check_icall_fptr  100941c0     LIBCMT:guard_support.obj
 0002:000001c4       ___xc_a                    100941c4     LIBCMT:initializers.obj
 0002:0000029c       ___xc_z                    1009429c     LIBCMT:initializers.obj
 0002:000002a0       ___xi_a                    100942a0     LIBCMT:initializers.obj
 0002:000002ac       ___acrt_stdio_initializer  100942ac     libucrt:stdio_initializer.obj
 0002:000002b0       ___acrt_tran_sse2_initializer 100942b0     libucrt:sse2_initializer.obj
 0002:000002b4       ___acrt_timeset_initializer 100942b4     libucrt:timeset_initializer.obj
 0002:000002b8       ___acrt_multibyte_initializer 100942b8     libucrt:multibyte_initializer.obj
 0002:000002bc       ___xi_z                    100942bc     LIBCMT:initializers.obj
 0002:000002c0       ___xl_a                    100942c0     LIBCMT:tlssup.obj
 0002:000002c4       ___xl_z                    100942c4     LIBCMT:tlssup.obj
 0002:000002c8       ___xp_a                    100942c8     LIBCMT:initializers.obj
 0002:000002cc       ___acrt_locale_terminator  100942cc     libucrt:locale_initializer.obj
 0002:000002d0       ___dcrt_console_output_terminator 100942d0     libucrt:console_output_initializer.obj
 0002:000002d4       ___acrt_stdio_terminator   100942d4     libucrt:stdio_initializer.obj
 0002:000002d8       ___xp_z                    100942d8     LIBCMT:initializers.obj
 0002:000002dc       ___xt_a                    100942dc     LIBCMT:initializers.obj
 0002:000002e0       ___xt_z                    100942e0     LIBCMT:initializers.obj
 0002:000002f0       ??_C@_05LOHHADEH@M?3999?$AA@ 100942f0     imguicolorpicker.obj
 0002:000002f8       ??_C@_03CEFFAPNG@?$CD?$CDX?$AA@ 100942f8     imguicolorpicker.obj
 0002:000002fc       ??_C@_03DNEODOJH@?$CD?$CDY?$AA@ 100942fc     imguicolorpicker.obj
 0002:00000300       ??_C@_03BGGDGNFE@?$CD?$CDZ?$AA@ 10094300     imguicolorpicker.obj
 0002:00000304       ??_C@_03KDMNBDBJ@?$CD?$CDW?$AA@ 10094304     imguicolorpicker.obj
 0002:00000308       ??_C@_05KIPMPJDD@?$CF3?40f?$AA@ 10094308     imguicolorpicker.obj
 0002:00000310       ??_C@_07GHAMIJFO@R?3?$CF3?40f?$AA@ 10094310     imguicolorpicker.obj
 0002:00000318       ??_C@_07FDFHLGBB@G?3?$CF3?40f?$AA@ 10094318     imguicolorpicker.obj
 0002:00000320       ??_C@_07BLLHLIHF@B?3?$CF3?40f?$AA@ 10094320     imguicolorpicker.obj
 0002:00000328       ??_C@_07JFDILPJG@A?3?$CF3?40f?$AA@ 10094328     imguicolorpicker.obj
 0002:00000330       ??_C@_07IKHHKELN@H?3?$CF3?40f?$AA@ 10094330     imguicolorpicker.obj
 0002:00000338       ??_C@_07KLKGIJMA@S?3?$CF3?40f?$AA@ 10094338     imguicolorpicker.obj
 0002:00000340       ??_C@_07ODEGIHKE@V?3?$CF3?40f?$AA@ 10094340     imguicolorpicker.obj
 0002:00000348       ??_C@_0BC@CKPCOFBK@?$CD?$CF02X?$CF02X?$CF02X?$CF02X?$AA@ 10094348     imguicolorpicker.obj
 0002:0000035c       ??_C@_0O@MBPBDFLP@?$CD?$CF02X?$CF02X?$CF02X?$AA@ 1009435c     imguicolorpicker.obj
 0002:0000036c       ??_C@_06MNCEJPDI@?$CD?$CDText?$AA@ 1009436c     imguicolorpicker.obj
 0002:00000374       ??_C@_0BB@DDMGLOLI@?$CF02X?$CF02X?$CF02X?$CF02X?$AA@ 10094374     imguicolorpicker.obj
 0002:00000388       ??_C@_0N@KODLFHPJ@?$CF02X?$CF02X?$CF02X?$AA@ 10094388     imguicolorpicker.obj
 0002:00000398       ??_C@_06MAKAMBBI@picker?$AA@ 10094398     imguicolorpicker.obj
 0002:000003a0       ??_C@_07JKKCBBMM@context?$AA@ 100943a0     imguicolorpicker.obj
 0002:000003a8       ??_C@_08HHEANBBL@?$CD?$CDpicker?$AA@ 100943a8     imguicolorpicker.obj
 0002:000003b4       ??_C@_0M@CAEKFCO@Edit?5as?5RGB?$AA@ 100943b4     imguicolorpicker.obj
 0002:000003c0       ??_C@_0M@ICBMOCM@Edit?5as?5HSV?$AA@ 100943c0     imguicolorpicker.obj
 0002:000003cc       ??_C@_0BE@MKFECGOP@Edit?5as?5Hexadecimal?$AA@ 100943cc     imguicolorpicker.obj
 0002:000003e0       ??_C@_02CPGMCOJE@sv?$AA@   100943e0     imguicolorpicker.obj
 0002:000003e4       ??_C@_03GKJJMKFG@hue?$AA@  100943e4     imguicolorpicker.obj
 0002:000003e8       ??_C@_05IAEKHIAN@alpha?$AA@ 100943e8     imguicolorpicker.obj
 0002:000003f0       __real@358637bd            100943f0     imguicolorpicker.obj
 0002:000003f4       __real@3727c5ac            100943f4     imguicolorpicker.obj
 0002:000003f8       __real@3f000000            100943f8     imguicolorpicker.obj
 0002:000003fc       __real@3f800000            100943fc     imguicolorpicker.obj
 0002:00000400       __real@40000000            10094400     imguicolorpicker.obj
 0002:00000404       __real@40c00000            10094404     imguicolorpicker.obj
 0002:00000408       __real@40e00000            10094408     imguicolorpicker.obj
 0002:0000040c       __real@43800000            1009440c     imguicolorpicker.obj
 0002:00000410       __xmm@3f0000003f0000003f0000003f000000 10094410     imguicolorpicker.obj
 0002:00000420       __xmm@3f8000003f8000003f8000003f800000 10094420     imguicolorpicker.obj
 0002:00000430       __xmm@437f0000437f0000437f0000437f0000 10094430     imguicolorpicker.obj
 0002:00000444       ??_7_Ref_count_base@std@@6B@ 10094444     Parser.obj
 0002:00000454       ??_C@_00CNPNBAHC@?$AA@     10094454     Parser.obj
 0002:0000045c       ??_7Node@valve_parser@@6B@ 1009445c     Parser.obj
 0002:0000046c       ??_7KeyValue@valve_parser@@6B@ 1009446c     Parser.obj
 0002:0000047c       ??_7Object@valve_parser@@6B@ 1009447c     Parser.obj
 0002:00000488       ??_C@_0BD@OLBABOEK@vector?$DMT?$DO?5too?5long?$AA@ 10094488     Parser.obj
 0002:000004a0       ??_7?$_Ref_count_obj@VObject@valve_parser@@@std@@6B@ 100944a0     Parser.obj
 0002:000004b4       ??_7?$_Ref_count_obj@VKeyValue@valve_parser@@@std@@6B@ 100944b4     Parser.obj
 0002:000004c4       ??_C@_0BA@JFNIOLAK@string?5too?5long?$AA@ 100944c4     Parser.obj
 0002:000004d4       ??_C@_0BE@JONHPENG@map?1set?$DMT?$DO?5too?5long?$AA@ 100944d4     recvproxy.obj
 0002:000004e8       ??_C@_07MGCPDNLD@DEFAULT?$AA@ 100944e8     recvproxy.obj
 0002:000004f0       ??_C@_0M@PAMBPCKC@?$DM?9Default?9?$DO?$AA@ 100944f0     recvproxy.obj
 0002:000004fc       ??_C@_06BOLHOKHP@deagle?$AA@ 100944fc     recvproxy.obj
 0002:00000504       ??_C@_0CB@GADOOGNP@models?1weapons?1v_pist_deagle?4mdl@ 10094504     recvproxy.obj
 0002:00000528       ??_C@_0O@LLIAKKDL@weapon_deagle?$AA@ 10094528     recvproxy.obj
 0002:00000538       ??_C@_0BJ@FEOJKBOH@?$CDSFUI_WPNHUD_DesertEagle?$AA@ 10094538     recvproxy.obj
 0002:00000554       ??_C@_05EHJKLNBO@elite?$AA@ 10094554     recvproxy.obj
 0002:0000055c       ??_C@_0CA@EKFLBJKL@models?1weapons?1v_pist_elite?4mdl?$AA@ 1009455c     recvproxy.obj
 0002:0000057c       ??_C@_0N@HKGPJCDJ@weapon_elite?$AA@ 1009457c     recvproxy.obj
 0002:0000058c       ??_C@_0BE@GGJLILKA@?$CDSFUI_WPNHUD_Elites?$AA@ 1009458c     recvproxy.obj
 0002:000005a0       ??_C@_09KEKPBIOE@fiveseven?$AA@ 100945a0     recvproxy.obj
 0002:000005ac       ??_C@_0CE@LLFDMHPP@models?1weapons?1v_pist_fiveseven?4@ 100945ac     recvproxy.obj
 0002:000005d0       ??_C@_0BB@JLPINHFH@weapon_fiveseven?$AA@ 100945d0     recvproxy.obj
 0002:000005e4       ??_C@_0BH@GFPFCKML@?$CDSFUI_WPNHUD_FiveSeven?$AA@ 100945e4     recvproxy.obj
 0002:000005fc       ??_C@_05KINDNLLC@glock?$AA@ 100945fc     recvproxy.obj
 0002:00000604       ??_C@_0CC@PECKEBFC@models?1weapons?1v_pist_glock18?4md@ 10094604     recvproxy.obj
 0002:00000628       ??_C@_0N@JFCGPEJF@weapon_glock?$AA@ 10094628     recvproxy.obj
 0002:00000638       ??_C@_0BF@BEFCAFPH@?$CDSFUI_WPNHUD_Glock18?$AA@ 10094638     recvproxy.obj
 0002:00000650       ??_C@_04MCMNMLGF@ak47?$AA@ 10094650     recvproxy.obj
 0002:00000658       ??_C@_0BO@EGPCDLCM@models?1weapons?1v_rif_ak47?4mdl?$AA@ 10094658     recvproxy.obj
 0002:00000678       ??_C@_0M@OPHHDLAA@weapon_ak47?$AA@ 10094678     recvproxy.obj
 0002:00000684       ??_C@_0BC@CIJAHAED@?$CDSFUI_WPNHUD_AK47?$AA@ 10094684     recvproxy.obj
 0002:00000698       ??_C@_03CFKHOHFO@aug?$AA@  10094698     recvproxy.obj
 0002:0000069c       ??_C@_0BN@EBCDFGLB@models?1weapons?1v_rif_aug?4mdl?$AA@ 1009469c     recvproxy.obj
 0002:000006bc       ??_C@_0L@JNLIAPKB@weapon_aug?$AA@ 100946bc     recvproxy.obj
 0002:000006c8       ??_C@_0BB@JFBGLODK@?$CDSFUI_WPNHUD_Aug?$AA@ 100946c8     recvproxy.obj
 0002:000006dc       ??_C@_03CDKALHKG@awp?$AA@  100946dc     recvproxy.obj
 0002:000006e0       ??_C@_0BO@NCNPPFAF@models?1weapons?1v_snip_awp?4mdl?$AA@ 100946e0     recvproxy.obj
 0002:00000700       ??_C@_0L@JLLPFPFJ@weapon_awp?$AA@ 10094700     recvproxy.obj
 0002:0000070c       ??_C@_0BB@DONIIMIA@?$CDSFUI_WPNHUD_AWP?$AA@ 1009470c     recvproxy.obj
 0002:00000720       ??_C@_05LAIJEIBK@famas?$AA@ 10094720     recvproxy.obj
 0002:00000728       ??_C@_0BP@FKBADIHG@models?1weapons?1v_rif_famas?4mdl?$AA@ 10094728     recvproxy.obj
 0002:00000748       ??_C@_0N@INHMGHDN@weapon_famas?$AA@ 10094748     recvproxy.obj
 0002:00000758       ??_C@_0BD@KDKPLPFI@?$CDSFUI_WPNHUD_Famas?$AA@ 10094758     recvproxy.obj
 0002:0000076c       ??_C@_05EPACHGIN@g3sg1?$AA@ 1009476c     recvproxy.obj
 0002:00000774       ??_C@_0CA@DGPJJNFK@models?1weapons?1v_snip_g3sg1?4mdl?$AA@ 10094774     recvproxy.obj
 0002:00000794       ??_C@_0N@HCPHFJKK@weapon_g3sg1?$AA@ 10094794     recvproxy.obj
 0002:000007a4       ??_C@_0BD@MEFLGIBB@?$CDSFUI_WPNHUD_G3SG1?$AA@ 100947a4     recvproxy.obj
 0002:000007b8       ??_C@_07KDMKOGKA@galilar?$AA@ 100947b8     recvproxy.obj
 0002:000007c0       ??_C@_0CB@FHOJEPDE@models?1weapons?1v_rif_galilar?4mdl@ 100947c0     recvproxy.obj
 0002:000007e4       ??_C@_0P@NCNOFEGJ@weapon_galilar?$AA@ 100947e4     recvproxy.obj
 0002:000007f4       ??_C@_0BF@OPJFNNPM@?$CDSFUI_WPNHUD_GalilAR?$AA@ 100947f4     recvproxy.obj
 0002:0000080c       ??_C@_04CPLLELMC@m249?$AA@ 1009480c     recvproxy.obj
 0002:00000814       ??_C@_0CD@IDEDMIPA@models?1weapons?1v_mach_m249para?4m@ 10094814     recvproxy.obj
 0002:00000838       ??_C@_0M@CABLLKH@weapon_m249?$AA@ 10094838     recvproxy.obj
 0002:00000844       ??_C@_0BC@GFNEFPNK@?$CDSFUI_WPNHUD_M249?$AA@ 10094844     recvproxy.obj
 0002:00000858       ??_C@_04KIHOHCEN@m4a1?$AA@ 10094858     recvproxy.obj
 0002:00000860       ??_C@_0BO@ILHEAMFP@models?1weapons?1v_rif_m4a1?4mdl?$AA@ 10094860     recvproxy.obj
 0002:00000880       ??_C@_0M@IFMEICCI@weapon_m4a1?$AA@ 10094880     recvproxy.obj
 0002:0000088c       ??_C@_0BC@NKFMCALF@?$CDSFUI_WPNHUD_M4A1?$AA@ 1009488c     recvproxy.obj
 0002:000008a0       ??_C@_05INHJPNJM@mac10?$AA@ 100948a0     recvproxy.obj
 0002:000008a8       ??_C@_0BP@NLHAIHEJ@models?1weapons?1v_smg_mac10?4mdl?$AA@ 100948a8     recvproxy.obj
 0002:000008c8       ??_C@_0N@LAIMNCLL@weapon_mac10?$AA@ 100948c8     recvproxy.obj
 0002:000008d8       ??_C@_0BD@PPKMIKOE@?$CDSFUI_WPNHUD_MAC10?$AA@ 100948d8     recvproxy.obj
 0002:000008ec       ??_C@_03EBHIGIJD@p90?$AA@  100948ec     recvproxy.obj
 0002:000008f0       ??_C@_0BN@KHKMBEJF@models?1weapons?1v_smg_p90?4mdl?$AA@ 100948f0     recvproxy.obj
 0002:00000910       ??_C@_0L@PJGHIAGM@weapon_p90?$AA@ 10094910     recvproxy.obj
 0002:0000091c       ??_C@_0BB@PBMJDBPH@?$CDSFUI_WPNHUD_P90?$AA@ 1009491c     recvproxy.obj
 0002:00000930       ??_C@_05JOBMFOLE@ump45?$AA@ 10094930     recvproxy.obj
 0002:00000938       ??_C@_0BP@PJPMDNJN@models?1weapons?1v_smg_ump45?4mdl?$AA@ 10094938     recvproxy.obj
 0002:00000958       ??_C@_0N@KDOJHBJD@weapon_ump45?$AA@ 10094958     recvproxy.obj
 0002:00000968       ??_C@_0BD@OMMJCJMM@?$CDSFUI_WPNHUD_UMP45?$AA@ 10094968     recvproxy.obj
 0002:0000097c       ??_C@_06PLJHLHIO@xm1014?$AA@ 1009497c     recvproxy.obj
 0002:00000984       ??_C@_0CB@KDBANKPA@models?1weapons?1v_shot_xm1014?4mdl@ 10094984     recvproxy.obj
 0002:000009a8       ??_C@_0O@FOKAPHMK@weapon_xm1014?$AA@ 100949a8     recvproxy.obj
 0002:000009b8       ??_C@_0BE@KMOLIIFJ@?$CDSFUI_WPNHUD_xm1014?$AA@ 100949b8     recvproxy.obj
 0002:000009cc       ??_C@_05CDFEGPPN@bizon?$AA@ 100949cc     recvproxy.obj
 0002:000009d4       ??_C@_0BP@LHDJKPLB@models?1weapons?1v_smg_bizon?4mdl?$AA@ 100949d4     recvproxy.obj
 0002:000009f4       ??_C@_0N@BOKBEANK@weapon_bizon?$AA@ 100949f4     recvproxy.obj
 0002:00000a04       ??_C@_0BD@DAHCJILP@?$CDSFUI_WPNHUD_Bizon?$AA@ 10094a04     recvproxy.obj
 0002:00000a18       ??_C@_04GHKFGOJ@mag7?$AA@  10094a18     recvproxy.obj
 0002:00000a20       ??_C@_0BP@PAPJAAGO@models?1weapons?1v_shot_mag7?4mdl?$AA@ 10094a20     recvproxy.obj
 0002:00000a40       ??_C@_0M@CLMAKGIM@weapon_mag7?$AA@ 10094a40     recvproxy.obj
 0002:00000a4c       ??_C@_0BC@EMBFECPB@?$CDSFUI_WPNHUD_Mag7?$AA@ 10094a4c     recvproxy.obj
 0002:00000a60       ??_C@_05LMJJNAEK@negev?$AA@ 10094a60     recvproxy.obj
 0002:00000a68       ??_C@_0CA@HJFJFEKI@models?1weapons?1v_mach_negev?4mdl?$AA@ 10094a68     recvproxy.obj
 0002:00000a88       ??_C@_0N@IBGMPPGN@weapon_negev?$AA@ 10094a88     recvproxy.obj
 0002:00000a98       ??_C@_0BD@KPLPCHAI@?$CDSFUI_WPNHUD_Negev?$AA@ 10094a98     recvproxy.obj
 0002:00000aac       ??_C@_08MNGFIJED@sawedoff?$AA@ 10094aac     recvproxy.obj
 0002:00000ab8       ??_C@_0CD@PAHKFFEL@models?1weapons?1v_shot_sawedoff?4m@ 10094ab8     recvproxy.obj
 0002:00000adc       ??_C@_0BA@CPKMOHOF@weapon_sawedoff?$AA@ 10094adc     recvproxy.obj
 0002:00000aec       ??_C@_0BG@DHILCCHJ@?$CDSFUI_WPNHUD_Sawedoff?$AA@ 10094aec     recvproxy.obj
 0002:00000b04       ??_C@_04HNGCLBBP@tec9?$AA@ 10094b04     recvproxy.obj
 0002:00000b0c       ??_C@_0BP@BCHAODPO@models?1weapons?1v_pist_tec9?4mdl?$AA@ 10094b0c     recvproxy.obj
 0002:00000b2c       ??_C@_0M@FANIEBHK@weapon_tec9?$AA@ 10094b2c     recvproxy.obj
 0002:00000b38       ??_C@_0BC@DHANKFAH@?$CDSFUI_WPNHUD_Tec9?$AA@ 10094b38     recvproxy.obj
 0002:00000b4c       ??_C@_05FAEDFCLL@taser?$AA@ 10094b4c     recvproxy.obj
 0002:00000b54       ??_C@_0BO@BEGBNOFA@models?1weapons?1v_eq_taser?4mdl?$AA@ 10094b54     recvproxy.obj
 0002:00000b74       ??_C@_0N@GNLGHNJM@weapon_taser?$AA@ 10094b74     recvproxy.obj
 0002:00000b84       ??_C@_0BD@EDGFKFPJ@?$CDSFUI_WPNHUD_Taser?$AA@ 10094b84     recvproxy.obj
 0002:00000b98       ??_C@_07MLKHEOGC@hkp2000?$AA@ 10094b98     recvproxy.obj
 0002:00000ba0       ??_C@_0CC@FOGBCCLJ@models?1weapons?1v_pist_hkp2000?4md@ 10094ba0     recvproxy.obj
 0002:00000bc4       ??_C@_0P@LKLDPMKL@weapon_hkp2000?$AA@ 10094bc4     recvproxy.obj
 0002:00000bd4       ??_C@_0BF@OCCACLNG@?$CDSFUI_WPNHUD_HKP2000?$AA@ 10094bd4     recvproxy.obj
 0002:00000bec       ??_C@_03NDABMHFJ@mp7?$AA@  10094bec     recvproxy.obj
 0002:00000bf0       ??_C@_0BN@IMIEDAHN@models?1weapons?1v_smg_mp7?4mdl?$AA@ 10094bf0     recvproxy.obj
 0002:00000c10       ??_C@_0L@GLBOCPKG@weapon_mp7?$AA@ 10094c10     recvproxy.obj
 0002:00000c1c       ??_C@_0BB@FLPNNINN@?$CDSFUI_WPNHUD_MP7?$AA@ 10094c1c     recvproxy.obj
 0002:00000c30       ??_C@_03ENICOKNH@mp9?$AA@  10094c30     recvproxy.obj
 0002:00000c34       ??_C@_0BN@LGIOFBAN@models?1weapons?1v_smg_mp9?4mdl?$AA@ 10094c34     recvproxy.obj
 0002:00000c54       ??_C@_0L@PFJNACCI@weapon_mp9?$AA@ 10094c54     recvproxy.obj
 0002:00000c60       ??_C@_0BB@MFHOPFFD@?$CDSFUI_WPNHUD_MP9?$AA@ 10094c60     recvproxy.obj
 0002:00000c74       ??_C@_04FAAAGIJP@nova?$AA@ 10094c74     recvproxy.obj
 0002:00000c7c       ??_C@_0BP@MHIAFCAJ@models?1weapons?1v_shot_nova?4mdl?$AA@ 10094c7c     recvproxy.obj
 0002:00000c9c       ??_C@_0M@HNLKJIPK@weapon_nova?$AA@ 10094c9c     recvproxy.obj
 0002:00000ca8       ??_C@_0BC@BKGPHMIH@?$CDSFUI_WPNHUD_Nova?$AA@ 10094ca8     recvproxy.obj
 0002:00000cbc       ??_C@_04GHMLMJIP@p250?$AA@ 10094cbc     recvproxy.obj
 0002:00000cc4       ??_C@_0BP@HHHFMFGI@models?1weapons?1v_pist_p250?4mdl?$AA@ 10094cc4     recvproxy.obj
 0002:00000ce4       ??_C@_0M@EKHBDJOK@weapon_p250?$AA@ 10094ce4     recvproxy.obj
 0002:00000cf0       ??_C@_0BC@CNKENNJH@?$CDSFUI_WPNHUD_P250?$AA@ 10094cf0     recvproxy.obj
 0002:00000d04       ??_C@_06KMLOKGCE@scar20?$AA@ 10094d04     recvproxy.obj
 0002:00000d0c       ??_C@_0CB@DHOKEELI@models?1weapons?1v_snip_scar20?4mdl@ 10094d0c     recvproxy.obj
 0002:00000d30       ??_C@_0O@JIJOGGA@weapon_scar20?$AA@ 10094d30     recvproxy.obj
 0002:00000d40       ??_C@_0BE@FCCACFGD@?$CDSFUI_WPNHUD_SCAR20?$AA@ 10094d40     recvproxy.obj
 0002:00000d54       ??_C@_05IENADEPD@sg556?$AA@ 10094d54     recvproxy.obj
 0002:00000d5c       ??_C@_0BP@OGEBLFFI@models?1weapons?1v_rif_sg556?4mdl?$AA@ 10094d5c     recvproxy.obj
 0002:00000d7c       ??_C@_0N@LJCFBLNE@weapon_sg556?$AA@ 10094d7c     recvproxy.obj
 0002:00000d8c       ??_C@_0BD@FGDHOMLF@?$CDSFUI_WPNHUD_SG556?$AA@ 10094d8c     recvproxy.obj
 0002:00000da0       ??_C@_05OIPMCNPN@ssg08?$AA@ 10094da0     recvproxy.obj
 0002:00000da8       ??_C@_0CA@PPKCAGOP@models?1weapons?1v_snip_ssg08?4mdl?$AA@ 10094da8     recvproxy.obj
 0002:00000dc8       ??_C@_0N@NFAJACNK@weapon_ssg08?$AA@ 10094dc8     recvproxy.obj
 0002:00000dd8       ??_C@_0BD@JKCJFKIF@?$CDSFUI_WPNHUD_SSG08?$AA@ 10094dd8     recvproxy.obj
 0002:00000dec       ??_C@_0BB@EPLPNOAB@knife_default_ct?$AA@ 10094dec     recvproxy.obj
 0002:00000e00       ??_C@_0CG@PKALIFMD@models?1weapons?1v_knife_default_c@ 10094e00     recvproxy.obj
 0002:00000e28       ??_C@_0N@CFAHNHDH@weapon_knife?$AA@ 10094e28     recvproxy.obj
 0002:00000e38       ??_C@_0BD@LNEAPFC@?$CDSFUI_WPNHUD_Knife?$AA@ 10094e38     recvproxy.obj
 0002:00000e4c       ??_C@_09FHCANJKL@flashbang?$AA@ 10094e4c     recvproxy.obj
 0002:00000e58       ??_C@_0CC@OMKPNOEL@models?1weapons?1v_eq_flashbang?4md@ 10094e58     recvproxy.obj
 0002:00000e7c       ??_C@_0BB@GIHHBGBI@weapon_flashbang?$AA@ 10094e7c     recvproxy.obj
 0002:00000e90       ??_C@_0BH@OOHKNAJF@?$CDSFUI_WPNHUD_FLASHBANG?$AA@ 10094e90     recvproxy.obj
 0002:00000ea8       ??_C@_09MDJNEEPL@hegrenade?$AA@ 10094ea8     recvproxy.obj
 0002:00000eb4       ??_C@_0CE@JMOOPEAD@models?1weapons?1v_eq_fraggrenade?4@ 10094eb4     recvproxy.obj
 0002:00000ed8       ??_C@_0BB@PMMKILEI@weapon_hegrenade?$AA@ 10094ed8     recvproxy.obj
 0002:00000eec       ??_C@_0BI@DNOABEJB@?$CDSFUI_WPNHUD_HE_Grenade?$AA@ 10094eec     recvproxy.obj
 0002:00000f04       ??_C@_0N@LGLLMOFO@smokegrenade?$AA@ 10094f04     recvproxy.obj
 0002:00000f14       ??_C@_0CF@KPFKDHPF@models?1weapons?1v_eq_smokegrenade@ 10094f14     recvproxy.obj
 0002:00000f3c       ??_C@_0BE@MIMOIBPO@weapon_smokegrenade?$AA@ 10094f3c     recvproxy.obj
 0002:00000f50       ??_C@_0BL@IMANPCOF@?$CDSFUI_WPNHUD_Smoke_Grenade?$AA@ 10094f50     recvproxy.obj
 0002:00000f6c       ??_C@_07GAJFEBJB@inferno?$AA@ 10094f6c     recvproxy.obj
 0002:00000f74       ??_C@_0CA@DKPHPPLO@models?1weapons?1v_eq_molotov?4mdl?$AA@ 10094f74     recvproxy.obj
 0002:00000f94       ??_C@_0P@GHDOFBCC@weapon_molotov?$AA@ 10094f94     recvproxy.obj
 0002:00000fa4       ??_C@_0BF@PDJHGECH@?$CDSFUI_WPNHUD_MOLOTOV?$AA@ 10094fa4     recvproxy.obj
 0002:00000fbc       ??_C@_05BIGPPNGC@decoy?$AA@ 10094fbc     recvproxy.obj
 0002:00000fc4       ??_C@_0BO@NMCPJABC@models?1weapons?1v_eq_decoy?4mdl?$AA@ 10094fc4     recvproxy.obj
 0002:00000fe4       ??_C@_0N@CFJKNCEF@weapon_decoy?$AA@ 10094fe4     recvproxy.obj
 0002:00000ff4       ??_C@_0BD@MHHDOIFI@?$CDSFUI_WPNHUD_DECOY?$AA@ 10094ff4     recvproxy.obj
 0002:00001008       ??_C@_0CK@CADKHMFK@models?1weapons?1v_eq_incendiarygr@ 10095008     recvproxy.obj
 0002:00001034       ??_C@_0BC@EMFKIJOI@weapon_incgrenade?$AA@ 10095034     recvproxy.obj
 0002:00001048       ??_C@_0BI@IDNGAALA@?$CDSFUI_WPNHUD_IncGrenade?$AA@ 10095048     recvproxy.obj
 0002:00001060       ??_C@_0BJ@LPCEDCBI@models?1weapons?1v_ied?4mdl?$AA@ 10095060     recvproxy.obj
 0002:0000107c       ??_C@_09FDEIFAFE@weapon_c4?$AA@ 1009507c     recvproxy.obj
 0002:00001088       ??_C@_0BA@JAMEOGBJ@?$CDSFUI_WPNHUD_C4?$AA@ 10095088     recvproxy.obj
 0002:00001098       ??_C@_07NFBHKFPC@knife_t?$AA@ 10095098     recvproxy.obj
 0002:000010a0       ??_C@_0CF@GCGFCOHA@models?1weapons?1v_knife_default_t@ 100950a0     recvproxy.obj
 0002:000010c8       ??_C@_0P@KEADBHDL@weapon_knife_t?$AA@ 100950c8     recvproxy.obj
 0002:000010d8       ??_C@_0O@IOIOOIAL@m4a1_silencer?$AA@ 100950d8     recvproxy.obj
 0002:000010e8       ??_C@_0CA@GLDPFOGK@models?1weapons?1v_rif_m4a1_s?4mdl?$AA@ 100950e8     recvproxy.obj
 0002:00001108       ??_C@_0BF@FICGDOKM@weapon_m4a1_silencer?$AA@ 10095108     recvproxy.obj
 0002:00001120       ??_C@_0BJ@PAELDKGN@?$CDSFUI_WPNHUD_M4_SILENCER?$AA@ 10095120     recvproxy.obj
 0002:0000113c       ??_C@_0N@PMJINFFO@usp_silencer?$AA@ 1009513c     recvproxy.obj
 0002:0000114c       ??_C@_0BO@BKGJJKEI@models?1weapons?1v_pist_223?4mdl?$AA@ 1009514c     recvproxy.obj
 0002:0000116c       ??_C@_0BE@ICONJKPO@weapon_usp_silencer?$AA@ 1009516c     recvproxy.obj
 0002:00001180       ??_C@_0BK@MKLHNAHC@?$CDSFUI_WPNHUD_USP_SILENCER?$AA@ 10095180     recvproxy.obj
 0002:0000119c       ??_C@_05EAIFGGED@cz75a?$AA@ 1009519c     recvproxy.obj
 0002:000011a4       ??_C@_0CA@KCFAGPPO@models?1weapons?1v_pist_cz_75?4mdl?$AA@ 100951a4     recvproxy.obj
 0002:000011c4       ??_C@_0N@HNHAEJGE@weapon_cz75a?$AA@ 100951c4     recvproxy.obj
 0002:000011d4       ??_C@_0BC@IKIFMPAC@?$CDSFUI_WPNHUD_CZ75?$AA@ 100951d4     recvproxy.obj
 0002:000011e8       ??_C@_08GIDBIBPA@revolver?$AA@ 100951e8     recvproxy.obj
 0002:000011f4       ??_C@_0CD@KFOANBMH@models?1weapons?1v_pist_revolver?4m@ 100951f4     recvproxy.obj
 0002:00001218       ??_C@_0BA@IKPIOPFG@weapon_revolver?$AA@ 10095218     recvproxy.obj
 0002:00001228       ??_C@_0BG@GPICJGEO@?$CDSFUI_WPNHUD_REVOLVER?$AA@ 10095228     recvproxy.obj
 0002:00001240       ??_C@_07MMCLEJJN@bayonet?$AA@ 10095240     recvproxy.obj
 0002:00001248       ??_C@_0CD@LMKKKBBM@models?1weapons?1v_knife_bayonet?4m@ 10095248     recvproxy.obj
 0002:0000126c       ??_C@_0BF@OFFBAMP@weapon_knife_bayonet?$AA@ 1009526c     recvproxy.obj
 0002:00001284       ??_C@_0BK@EBOIBPIO@?$CDSFUI_WPNHUD_KnifeBayonet?$AA@ 10095284     recvproxy.obj
 0002:000012a0       ??_C@_0L@OFAKGPAA@knife_flip?$AA@ 100952a0     recvproxy.obj
 0002:000012ac       ??_C@_0CA@OGLDNCPA@models?1weapons?1v_knife_flip?4mdl?$AA@ 100952ac     recvproxy.obj
 0002:000012cc       ??_C@_0BC@LHFNNKPJ@weapon_knife_flip?$AA@ 100952cc     recvproxy.obj
 0002:000012e0       ??_C@_0BH@NGKEDFIM@?$CDSFUI_WPNHUD_KnifeFlip?$AA@ 100952e0     recvproxy.obj
 0002:000012f8       ??_C@_09NLPDOPHH@knife_gut?$AA@ 100952f8     recvproxy.obj
 0002:00001304       ??_C@_0BP@NMKECDAE@models?1weapons?1v_knife_gut?4mdl?$AA@ 10095304     recvproxy.obj
 0002:00001324       ??_C@_0BB@OEKECAME@weapon_knife_gut?$AA@ 10095324     recvproxy.obj
 0002:00001338       ??_C@_0BG@HGLEIGBK@?$CDSFUI_WPNHUD_KnifeGut?$AA@ 10095338     recvproxy.obj
 0002:00001350       ??_C@_0P@FCMFFJMF@knife_karambit?$AA@ 10095350     recvproxy.obj
 0002:00001360       ??_C@_0CB@HFFOPHOM@models?1weapons?1v_knife_karam?4mdl@ 10095360     recvproxy.obj
 0002:00001384       ??_C@_0BG@BKKBMHFI@weapon_knife_karambit?$AA@ 10095384     recvproxy.obj
 0002:0000139c       ??_C@_0BI@OKHJLAGC@?$CDSFUI_WPNHUD_KnifeKaram?$AA@ 1009539c     recvproxy.obj
 0002:000013b4       ??_C@_0BB@GHJJDI@knife_m9_bayonet?$AA@ 100953b4     recvproxy.obj
 0002:000013c8       ??_C@_0CC@GFKFNEHH@models?1weapons?1v_knife_m9_bay?4md@ 100953c8     recvproxy.obj
 0002:000013ec       ??_C@_0BI@NDDPJLEI@weapon_knife_m9_bayonet?$AA@ 100953ec     recvproxy.obj
 0002:00001404       ??_C@_0BF@GOPELKLK@?$CDSFUI_WPNHUD_KnifeM9?$AA@ 10095404     recvproxy.obj
 0002:0000141c       ??_C@_0P@HCDKNIHD@knife_tactical?$AA@ 1009541c     recvproxy.obj
 0002:0000142c       ??_C@_0CE@ODDAANPJ@models?1weapons?1v_knife_tactical?4@ 1009542c     recvproxy.obj
 0002:00001450       ??_C@_0BG@DKFOEGOO@weapon_knife_tactical?$AA@ 10095450     recvproxy.obj
 0002:00001468       ??_C@_0BL@DLMKIKOH@?$CDSFUI_WPNHUD_KnifeTactical?$AA@ 10095468     recvproxy.obj
 0002:00001484       ??_C@_0P@HCOCHGBC@knife_falchion?$AA@ 10095484     recvproxy.obj
 0002:00001494       ??_C@_0CN@EAHOPDAI@models?1weapons?1v_knife_falchion_@ 10095494     recvproxy.obj
 0002:000014c4       ??_C@_0BG@DKIGOIIP@weapon_knife_falchion?$AA@ 100954c4     recvproxy.obj
 0002:000014dc       ??_C@_0CF@MPOCHLNG@?$CDSFUI_WPNHUD_knife_falchion_adva@ 100954dc     recvproxy.obj
 0002:00001504       ??_C@_0BF@HOEFNIPG@knife_survival_bowie?$AA@ 10095504     recvproxy.obj
 0002:0000151c       ??_C@_0CK@BBOODEBM@models?1weapons?1v_knife_survival_@ 1009551c     recvproxy.obj
 0002:00001548       ??_C@_0BM@HLEGPIDG@weapon_knife_survival_bowie?$AA@ 10095548     recvproxy.obj
 0002:00001564       ??_C@_0CC@OPDMGKIB@?$CDSFUI_WPNHUD_knife_survival_bowi@ 10095564     recvproxy.obj
 0002:00001588       ??_C@_0BA@CNPEEEPB@knife_butterfly?$AA@ 10095588     recvproxy.obj
 0002:00001598       ??_C@_0CF@EJAFFKLK@models?1weapons?1v_knife_butterfly@ 10095598     recvproxy.obj
 0002:000015c0       ??_C@_0BH@KDACMPJG@weapon_knife_butterfly?$AA@ 100955c0     recvproxy.obj
 0002:000015d8       ??_C@_0BN@GDFONDGN@?$CDSFUI_WPNHUD_Knife_Butterfly?$AA@ 100955d8     recvproxy.obj
 0002:000015f8       ??_C@_0L@LEBBKLMI@knife_push?$AA@ 100955f8     recvproxy.obj
 0002:00001604       ??_C@_0CA@HGLGIAHN@models?1weapons?1v_knife_push?4mdl?$AA@ 10095604     recvproxy.obj
 0002:00001624       ??_C@_0BC@OGEGBODB@weapon_knife_push?$AA@ 10095624     recvproxy.obj
 0002:00001638       ??_C@_0BI@FGCAHKOI@?$CDSFUI_WPNHUD_knife_push?$AA@ 10095638     recvproxy.obj
 0002:00001650       ??_C@_0EF@EOMAPHED@models?1weapons?1v_models?1arms?1glo@ 10095650     recvproxy.obj
 0002:00001698       ??_C@_0BK@PCLCELJB@studded_bloodhound_gloves?$AA@ 10095698     recvproxy.obj
 0002:000016b4       ??_C@_0BP@DPLFGPPF@?$CDCSGO_Wearable_t_studdedgloves?$AA@ 100956b4     recvproxy.obj
 0002:000016d8       ??_C@_0EF@OENLKDAP@models?1weapons?1v_models?1arms?1glo@ 100956d8     recvproxy.obj
 0002:00001720       ??_C@_08BGKABJIK@t_gloves?$AA@ 10095720     recvproxy.obj
 0002:0000172c       ??_C@_0BP@EHPOHIOO@?$CDCSGO_Wearable_t_defaultgloves?$AA@ 1009572c     recvproxy.obj
 0002:00001750       ??_C@_0EH@MPMCCGN@models?1weapons?1v_models?1arms?1glo@ 10095750     recvproxy.obj
 0002:00001798       ??_C@_09CJPDNKCB@ct_gloves?$AA@ 10095798     recvproxy.obj
 0002:000017a4       ??_C@_0CA@OMBCPCAC@?$CDCSGO_Wearable_ct_defaultgloves?$AA@ 100957a4     recvproxy.obj
 0002:000017c4       ??_C@_0DN@JPFEDAPJ@models?1weapons?1v_models?1arms?1glo@ 100957c4     recvproxy.obj
 0002:00001804       ??_C@_0O@PPINEEAH@sporty_gloves?$AA@ 10095804     recvproxy.obj
 0002:00001814       ??_C@_0BO@CJLMHIJD@?$CDCSGO_Wearable_v_sporty_glove?$AA@ 10095814     recvproxy.obj
 0002:00001834       ??_C@_0DL@IGAOHMGH@models?1weapons?1v_models?1arms?1glo@ 10095834     recvproxy.obj
 0002:00001870       ??_C@_0N@LHILOAAL@slick_gloves?$AA@ 10095870     recvproxy.obj
 0002:00001880       ??_C@_0BN@LMICADKE@?$CDCSGO_Wearable_v_slick_glove?$AA@ 10095880     recvproxy.obj
 0002:000018a0       ??_C@_0FD@BCCJPFNN@models?1weapons?1v_models?1arms?1glo@ 100958a0     recvproxy.obj
 0002:000018f4       ??_C@_0BC@FAHAAKB@leather_handwraps?$AA@ 100958f4     recvproxy.obj
 0002:00001908       ??_C@_0CC@INKPGFMC@?$CDCSGO_Wearable_v_leather_handwra@ 10095908     recvproxy.obj
 0002:00001930       ??_C@_0EF@GAFFMNCN@models?1weapons?1v_models?1arms?1glo@ 10095930     recvproxy.obj
 0002:00001978       ??_C@_0BC@JDNJOAAB@motorcycle_gloves?$AA@ 10095978     recvproxy.obj
 0002:0000198c       ??_C@_0CC@FKOHELII@?$CDCSGO_Wearable_v_motorcycle_glov@ 1009598c     recvproxy.obj
 0002:000019b0       ??_C@_0EF@LFOPPMLF@models?1weapons?1v_models?1arms?1glo@ 100959b0     recvproxy.obj
 0002:000019f8       ??_C@_0BC@CKOCPOCG@specialist_gloves?$AA@ 100959f8     recvproxy.obj
 0002:00001a0c       ??_C@_0CC@HCNGFPO@?$CDCSGO_Wearable_v_specialist_glov@ 10095a0c     recvproxy.obj
 0002:00001a30       ??_C@_0BO@EEDONEPD@models?1weapons?1v_knife_gg?4mdl?$AA@ 10095a30     recvproxy.obj
 0002:00001a50       ??_C@_0P@JMPFIBHF@CBaseViewModel?$AA@ 10095a50     recvproxy.obj
 0002:00001a60       ??_C@_0M@MKLEPEA@m_nSequence?$AA@ 10095a60     recvproxy.obj
 0002:00001a6c       ??_C@_0BK@NNEDEOFF@DT_SmokeGrenadeProjectile?$AA@ 10095a6c     recvproxy.obj
 0002:00001a88       ??_C@_0BC@HHBEMJFI@m_bDidSmokeEffect?$AA@ 10095a88     recvproxy.obj
 0002:00001a9c       ??_C@_0BB@LBHIIDFM@DT_BaseViewModel?$AA@ 10095a9c     recvproxy.obj
 0002:00001ab0       ??_C@_0O@BLDHPAC@m_nModelIndex?$AA@ 10095ab0     recvproxy.obj
 0002:00001ac4       ??_7CTraceFilter@@6B@      10095ac4     Autowall.obj
 0002:00001acc       __real@3d4ccccd            10095acc     Autowall.obj
 0002:00001ad0       __real@3dcccccd            10095ad0     Autowall.obj
 0002:00001ad4       __real@3e23d70a            10095ad4     Autowall.obj
 0002:00001ad8       __real@3ea8f5c3            10095ad8     Autowall.obj
 0002:00001adc       __real@3f400000            10095adc     Autowall.obj
 0002:00001ae0       __real@3f59999a            10095ae0     Autowall.obj
 0002:00001ae8       __real@3f60624dd2f1a9fc    10095ae8     Autowall.obj
 0002:00001af0       __real@3fa00000            10095af0     Autowall.obj
 0002:00001af4       __real@40400000            10095af4     Autowall.obj
 0002:00001af8       __real@40800000            10095af8     Autowall.obj
 0002:00001afc       __real@41c00000            10095afc     Autowall.obj
 0002:00001b00       __real@42200000            10095b00     Autowall.obj
 0002:00001b04       __real@453b8000            10095b04     Autowall.obj
 0002:00001b08       __real@45fa0000            10095b08     Autowall.obj
 0002:00001b10       ??_C@_0EE@GIEDOBMF@68?5?$DP?5?$DP?5?$DP?5?$DP?58B?5C8?5E8?5?$DP?5?$DP?5?$DP?5?$DP?589?54@ 10095b10     Chams.obj
 0002:00001b54       ??_C@_1BG@OHGEGFBL@?$AAc?$AAl?$AAi?$AAe?$AAn?$AAt?$AA?4?$AAd?$AAl?$AAl?$AA?$AA@ 10095b54     Chams.obj
 0002:00001b6c       ??_C@_0DD@PILKPPAK@55?58B?5EC?583?5E4?5F8?583?5EC?534?553?58B@ 10095b6c     Chams.obj
 0002:00001c94       ??_C@_0BB@PJFNHEEA@VertexLitGeneric?$AA@ 10095c94     Chams.obj
 0002:00001ca8       ??_C@_0N@KOCEKFOI@UnlitGeneric?$AA@ 10095ca8     Chams.obj
 0002:00001cb8       ??_C@_0BH@HGLBKIJK@?$CDAimpulse_Chams_?$CFi?4vmt?$AA@ 10095cb8     Chams.obj
 0002:00001cd0       __real@437f0000            10095cd0     Chams.obj
 0002:00001cd4       ??_C@_05LAPONLG@false?$AA@ 10095cd4     Configuration.obj
 0002:00001cdc       ??_C@_04LOAJBDKD@true?$AA@ 10095cdc     Configuration.obj
 0002:00001ce4       ??_C@_02NJPGOMH@?$CFf?$AA@ 10095ce4     Configuration.obj
 0002:00001ce8       ??_C@_0L@NABKLOGA@RageToggle?$AA@ 10095ce8     Configuration.obj
 0002:00001cf4       ??_C@_07HNMLFLME@Ragebot?$AA@ 10095cf4     Configuration.obj
 0002:00001cfc       ??_C@_07DOAOMMKG@Enabled?$AA@ 10095cfc     Configuration.obj
 0002:00001d04       ??_C@_08LEIBMOK@AutoFire?$AA@ 10095d04     Configuration.obj
 0002:00001d10       ??_C@_03PHODBHCN@FOV?$AA@  10095d10     Configuration.obj
 0002:00001d14       ??_C@_06GHFEKJM@Silent?$AA@ 10095d14     Configuration.obj
 0002:00001d1c       ??_C@_0L@OLJIFEGJ@AutoPistol?$AA@ 10095d1c     Configuration.obj
 0002:00001d28       ??_C@_03CCEPDEKL@Key?$AA@  10095d28     Configuration.obj
 0002:00001d2c       ??_C@_0P@GGILCKCO@AntiaimEnabled?$AA@ 10095d2c     Configuration.obj
 0002:00001d3c       ??_C@_0M@FODOIBKH@Pre?9set?9AAs?$AA@ 10095d3c     Configuration.obj
 0002:00001d48       ??_C@_0N@MHGDPNAK@AntiaimPitch?$AA@ 10095d48     Configuration.obj
 0002:00001d58       ??_C@_0BA@CNFENBKB@AntiaimYaw?9true?$AA@ 10095d58     Configuration.obj
 0002:00001d68       ??_C@_0BA@GDGAGDEI@AntiaimYaw?9fake?$AA@ 10095d68     Configuration.obj
 0002:00001d78       ??_C@_09LMCOFIDK@attargets?$AA@ 10095d78     Configuration.obj
 0002:00001d84       ??_C@_04IJFJNCMM@edge?$AA@ 10095d84     Configuration.obj
 0002:00001d8c       ??_C@_07JIOIILGI@KnifeAA?$AA@ 10095d8c     Configuration.obj
 0002:00001d94       ??_C@_0M@OENEMLKC@Builder?9AAs?$AA@ 10095d94     Configuration.obj
 0002:00001da0       ??_C@_0O@NDNODIBD@Builder?9Pitch?$AA@ 10095da0     Configuration.obj
 0002:00001db0       ??_C@_0M@CNFIDHDG@Builder?9Yaw?$AA@ 10095db0     Configuration.obj
 0002:00001dbc       ??_C@_0N@CAJBAIAL@Builder?9Fake?$AA@ 10095dbc     Configuration.obj
 0002:00001dcc       ??_C@_0P@JPNMLLGH@Builder?9Jitter?$AA@ 10095dcc     Configuration.obj
 0002:00001ddc       ??_C@_0BF@CNLOJCCB@Builder?9Jitter?9Range?$AA@ 10095ddc     Configuration.obj
 0002:00001df4       ??_C@_0BA@NAEIPDGG@Builder?9fJitter?$AA@ 10095df4     Configuration.obj
 0002:00001e04       ??_C@_0BG@MHIFOOAC@Builder?9fJitter?9Range?$AA@ 10095e04     Configuration.obj
 0002:00001e1c       ??_C@_0BE@NBDCDJP@Builder?9LBY?9Breaker?$AA@ 10095e1c     Configuration.obj
 0002:00001e30       ??_C@_07HJFGLPMF@Fakelag?$AA@ 10095e30     Configuration.obj
 0002:00001e38       ??_C@_0P@DFCECOAE@Fakelag?5Amount?$AA@ 10095e38     Configuration.obj
 0002:00001e48       ??_C@_0N@EHJMDHLK@FriendlyFire?$AA@ 10095e48     Configuration.obj
 0002:00001e58       ??_C@_06DJMEDGJ@Hitbox?$AA@ 10095e58     Configuration.obj
 0002:00001e60       ??_C@_07MLLCJKOD@Hitscan?$AA@ 10095e60     Configuration.obj
 0002:00001e68       ??_C@_0L@PBJBMNAN@AntiRecoil?$AA@ 10095e68     Configuration.obj
 0002:00001e74       ??_C@_08CCHAFNGN@AutoStop?$AA@ 10095e74     Configuration.obj
 0002:00001e80       ??_C@_0L@KEGFABOE@AutoCrouch?$AA@ 10095e80     Configuration.obj
 0002:00001e8c       ??_C@_09PJGLLJMI@AutoScope?$AA@ 10095e8c     Configuration.obj
 0002:00001e98       ??_C@_0BF@KKLBMGIB@AutoWallDamageSniper?$AA@ 10095e98     Configuration.obj
 0002:00001eb0       ??_C@_0BF@PKLIEONJ@AutoWallDamagePistol?$AA@ 10095eb0     Configuration.obj
 0002:00001ec8       ??_C@_0BE@DBKCILIJ@AutoWallDamageRifle?$AA@ 10095ec8     Configuration.obj
 0002:00001edc       ??_C@_0BE@DMAOAEDH@AutoWallDamageHeavy?$AA@ 10095edc     Configuration.obj
 0002:00001ef0       ??_C@_0BD@IPEHCJDH@AutoWallDamageSmgs?$AA@ 10095ef0     Configuration.obj
 0002:00001f04       ??_C@_0BH@KIPPNHNL@AutoWallDamageRevolver?$AA@ 10095f04     Configuration.obj
 0002:00001f1c       ??_C@_09PFDGKOMN@HitChance?$AA@ 10095f1c     Configuration.obj
 0002:00001f28       ??_C@_0BA@IIOFAAME@HitChanceSniper?$AA@ 10095f28     Configuration.obj
 0002:00001f38       ??_C@_0BA@NIOMIIJM@HitChancePistol?$AA@ 10095f38     Configuration.obj
 0002:00001f48       ??_C@_0P@GKNOPIIB@HitChanceHeavy?$AA@ 10095f48     Configuration.obj
 0002:00001f58       ??_C@_0O@OMHPLMAC@HitChanceSmgs?$AA@ 10095f58     Configuration.obj
 0002:00001f68       ??_C@_0P@GHHCHHDP@HitChanceRifle?$AA@ 10095f68     Configuration.obj
 0002:00001f78       ??_C@_0BC@FHPGCJEK@HitChanceRevolver?$AA@ 10095f78     Configuration.obj
 0002:00001f8c       ??_C@_08LIPICMPE@Resolver?$AA@ 10095f8c     Configuration.obj
 0002:00001f98       ??_C@_0M@JFPHLPOH@Fakelag?5Fix?$AA@ 10095f98     Configuration.obj
 0002:00001fa4       ??_C@_0BE@POIIPPAO@Position?5Adjustment?$AA@ 10095fa4     Configuration.obj
 0002:00001fb8       ??_C@_07GHNJEINP@BAIMKey?$AA@ 10095fb8     Configuration.obj
 0002:00001fc0       ??_C@_0M@IBLNPHGN@LegitToggle?$AA@ 10095fc0     Configuration.obj
 0002:00001fcc       ??_C@_08ENBENAAM@Legitbot?$AA@ 10095fcc     Configuration.obj
 0002:00001fd8       ??_C@_09EGFEMBLP@Backtrack?$AA@ 10095fd8     Configuration.obj
 0002:00001fe4       ??_C@_0P@PLMOHBIN@BacktrackTicks?$AA@ 10095fe4     Configuration.obj
 0002:00001ff4       ??_C@_05HOIAGEJD@Speed?$AA@ 10095ff4     Configuration.obj
 0002:00001ffc       ??_C@_07DOECLDHN@RCS?9min?$AA@ 10095ffc     Configuration.obj
 0002:00002004       ??_C@_07CMMJFHBC@RCS?9max?$AA@ 10096004     Configuration.obj
 0002:0000200c       ??_C@_0L@LEGOKPMC@Key?9Pistol?$AA@ 1009600c     Configuration.obj
 0002:00002018       ??_C@_0L@HKMNDMKO@FOV?9Pistol?$AA@ 10096018     Configuration.obj
 0002:00002024       ??_C@_0N@MJPCIDBA@Speed?9Pistol?$AA@ 10096024     Configuration.obj
 0002:00002034       ??_C@_0P@FCCKKINH@RCS?9min?9pistol?$AA@ 10096034     Configuration.obj
 0002:00002044       ??_C@_0P@JOCHNDNI@RCS?9max?9pistol?$AA@ 10096044     Configuration.obj
 0002:00002054       ??_C@_0L@OEGHCHJK@Key?9Sniper?$AA@ 10096054     Configuration.obj
 0002:00002060       ??_C@_0L@CKMELEPG@FOV?9Sniper?$AA@ 10096060     Configuration.obj
 0002:0000206c       ??_C@_0N@JJPLALEI@Speed?9Sniper?$AA@ 1009606c     Configuration.obj
 0002:0000207c       ??_C@_0P@CCDCAIP@RCS?9min?9sniper?$AA@ 1009607c     Configuration.obj
 0002:0000208c       ??_C@_0P@MOCOFLIA@RCS?9max?9sniper?$AA@ 1009608c     Configuration.obj
 0002:0000209c       ??_C@_0L@IIIAHLAH@Triggerbot?$AA@ 1009609c     Configuration.obj
 0002:000020a8       ??_C@_05ENDOMFAI@Delay?$AA@ 100960a8     Configuration.obj
 0002:000020b0       ??_C@_09DKILJHFB@Hitchance?$AA@ 100960b0     Configuration.obj
 0002:000020bc       ??_C@_0L@KGKBILFK@FilterHead?$AA@ 100960bc     Configuration.obj
 0002:000020c8       ??_C@_0M@MEBHLDED@FilterChest?$AA@ 100960c8     Configuration.obj
 0002:000020d4       ??_C@_0O@KLMAMEII@FilterStomach?$AA@ 100960d4     Configuration.obj
 0002:000020e4       ??_C@_0L@GKOGPLPP@FilterArms?$AA@ 100960e4     Configuration.obj
 0002:000020f0       ??_C@_0L@FCCPNFLO@FilterLegs?$AA@ 100960f0     Configuration.obj
 0002:000020fc       ??_C@_03ELMLMPLG@Box?$AA@  100960fc     Configuration.obj
 0002:00002100       ??_C@_07GNHLELCG@Visuals?$AA@ 10096100     Configuration.obj
 0002:00002108       ??_C@_07PMDFCHAJ@BoxType?$AA@ 10096108     Configuration.obj
 0002:00002110       ??_C@_04FABLJDN@Name?$AA@  10096110     Configuration.obj
 0002:00002118       ??_C@_02MEIMKHMB@HP?$AA@   10096118     Configuration.obj
 0002:0000211c       ??_C@_06KLEAFNAE@Weapon?$AA@ 1009611c     Configuration.obj
 0002:00002124       ??_C@_0L@MNKEGOHO@WeaponType?$AA@ 10096124     Configuration.obj
 0002:00002130       ??_C@_05KJDEPIDC@Chams?$AA@ 10096130     Configuration.obj
 0002:00002138       ??_C@_08HEGKIDKO@Skeleton?$AA@ 10096138     Configuration.obj
 0002:00002144       ??_C@_07OFHHNGBL@TeamEsp?$AA@ 10096144     Configuration.obj
 0002:0000214c       ??_C@_0L@NNNPPGCK@GrenadeESP?$AA@ 1009614c     Configuration.obj
 0002:00002158       ??_C@_08IPDJBDHD@Aimlines?$AA@ 10096158     Configuration.obj
 0002:00002164       ??_C@_0P@KNGPBIHM@NoVisualRecoil?$AA@ 10096164     Configuration.obj
 0002:00002174       ??_C@_09FMCLFIIA@Hitmarker?$AA@ 10096174     Configuration.obj
 0002:00002180       ??_C@_08CCNCICDC@Hitsound?$AA@ 10096180     Configuration.obj
 0002:0000218c       ??_C@_0L@HJDPJKMG@fovchanger?$AA@ 1009618c     Configuration.obj
 0002:00002198       ??_C@_0O@BJFNJDCK@viewmodel_fov?$AA@ 10096198     Configuration.obj
 0002:000021a8       ??_C@_07CGPOBILI@NoFlash?$AA@ 100961a8     Configuration.obj
 0002:000021b0       ??_C@_07PMBFJJG@NoSmoke?$AA@ 100961b0     Configuration.obj
 0002:000021b8       ??_C@_04OKOFBOPB@Time?$AA@ 100961b8     Configuration.obj
 0002:000021c0       ??_C@_0O@BDOPODDH@noscopeborder?$AA@ 100961c0     Configuration.obj
 0002:000021d0       ??_C@_0M@NHJMGFHD@DroppedGuns?$AA@ 100961d0     Configuration.obj
 0002:000021dc       ??_C@_0BC@FKGDHONB@GrenadePrediction?$AA@ 100961dc     Configuration.obj
 0002:000021f0       ??_C@_0BF@FEPPFCAF@thirdperson?5distance?$AA@ 100961f0     Configuration.obj
 0002:00002208       ??_C@_0BA@KBLCAKDC@thirdperson?5key?$AA@ 10096208     Configuration.obj
 0002:00002218       ??_C@_0BD@IBEIEOND@thirdperson?5switch?$AA@ 10096218     Configuration.obj
 0002:0000222c       ??_C@_08LIBLOIJB@EventLog?$AA@ 1009622c     Configuration.obj
 0002:00002238       ??_C@_07EJNGAGLI@Callout?$AA@ 10096238     Configuration.obj
 0002:00002240       ??_C@_05JOOFIMIN@Armor?$AA@ 10096240     Configuration.obj
 0002:00002248       ??_C@_0L@JGADNIFK@EnemyState?$AA@ 10096248     Configuration.obj
 0002:00002254       ??_C@_08DFKPLDPN@Distance?$AA@ 10096254     Configuration.obj
 0002:00002260       ??_C@_05INIBOMDG@Money?$AA@ 10096260     Configuration.obj
 0002:00002268       ??_C@_0M@CPPKPOCI@ResolveMode?$AA@ 10096268     Configuration.obj
 0002:00002274       ??_C@_0M@IEEPLEBA@PlayerChams?$AA@ 10096274     Configuration.obj
 0002:00002280       ??_C@_09KMPLFLAI@Teamchams?$AA@ 10096280     Configuration.obj
 0002:0000228c       ??_C@_0M@BGIHDPDD@WeaponChams?$AA@ 1009628c     Configuration.obj
 0002:00002298       ??_C@_09DPMNHEPM@XQZ?5Chams?$AA@ 10096298     Configuration.obj
 0002:000022a4       ??_C@_0BB@NDPAJLA@PlayerCham?5Alpha?$AA@ 100962a4     Configuration.obj
 0002:000022b8       ??_C@_0BE@HGCJGJAG@PlayerCham?5Material?$AA@ 100962b8     Configuration.obj
 0002:000022cc       ??_C@_0N@DNJPDMCC@Weapon?5Chams?$AA@ 100962cc     Configuration.obj
 0002:000022dc       ??_C@_0BD@OBEDGMHA@Weapon?5Chams?5Alpha?$AA@ 100962dc     Configuration.obj
 0002:000022f0       ??_C@_0BE@NNLMFKBC@WeaponCham?5Material?$AA@ 100962f0     Configuration.obj
 0002:00002304       ??_C@_0L@COGCLCHC@Hand?5Chams?$AA@ 10096304     Configuration.obj
 0002:00002310       ??_C@_0BB@IJHHLJCH@Hand?5Chams?5Alpha?$AA@ 10096310     Configuration.obj
 0002:00002324       ??_C@_0BC@CINLKKJA@HandCham?5Material?$AA@ 10096324     Configuration.obj
 0002:00002338       ??_C@_0L@PIKIAIND@PlayerGlow?$AA@ 10096338     Configuration.obj
 0002:00002344       ??_C@_0BA@FPGOJFPK@PlayerGlow?5Team?$AA@ 10096344     Configuration.obj
 0002:00002354       ??_C@_0BB@JBLECMDJ@PlayerGlow?5Alpha?$AA@ 10096354     Configuration.obj
 0002:00002368       ??_C@_0L@OCKNLABP@WeaponGlow?$AA@ 10096368     Configuration.obj
 0002:00002374       ??_C@_0BB@PBEGGHLH@WeaponGlow?5Alpha?$AA@ 10096374     Configuration.obj
 0002:00002388       ??_C@_08PHNCFOHN@BombGlow?$AA@ 10096388     Configuration.obj
 0002:00002394       ??_C@_0P@KCPGBAJ@BombGlow?5Alpha?$AA@ 10096394     Configuration.obj
 0002:000023a4       ??_C@_0L@FHBHPKMB@AngleLines?$AA@ 100963a4     Configuration.obj
 0002:000023b0       ??_C@_0O@JDPLHJMO@LBY?5Indicator?$AA@ 100963b0     Configuration.obj
 0002:000023c0       ??_C@_0BA@MDMPHFD@Awall?5Indicator?$AA@ 100963c0     Configuration.obj
 0002:000023d0       ??_C@_09MLLBNLCF@Nightmode?$AA@ 100963d0     Configuration.obj
 0002:000023dc       ??_C@_07OEBOGFD@BombEsp?$AA@ 100963dc     Configuration.obj
 0002:000023e4       ??_C@_04IJMICJMM@Bhop?$AA@ 100963e4     Configuration.obj
 0002:000023ec       ??_C@_04MHPHMCPO@Misc?$AA@ 100963ec     Configuration.obj
 0002:000023f4       ??_C@_0L@CODBGIPG@Autostrafe?$AA@ 100963f4     Configuration.obj
 0002:00002400       ??_C@_0N@DPLOKDOO@Sync?9Clantag?$AA@ 10096400     Configuration.obj
 0002:00002410       ??_C@_08EPIBDGJ@StatTrak?$AA@ 10096410     Configuration.obj
 0002:0000241c       ??_C@_0M@KGMNKMG@SkinChanger?$AA@ 1009641c     Configuration.obj
 0002:00002428       ??_C@_0M@FEBCNELD@?2yung?4life?2?$AA@ 10096428     Configuration.obj
 0002:00002434       ??_C@_05MNNBOPJB@Legit?$AA@ 10096434     Configuration.obj
 0002:0000243c       ??_C@_04KNIGEGGI@Rage?$AA@ 1009643c     Configuration.obj
 0002:00002444       ??_C@_03OIMHIBNO@HvH?$AA@  10096444     Configuration.obj
 0002:00002448       ??_C@_05BBOGGNLJ@Other?$AA@ 10096448     Configuration.obj
 0002:00002450       ??_C@_0BI@CFPLBAOH@invalid?5string?5position?$AA@ 10096450     Configuration.obj
 0002:00002470       __xmm@0000000000000000000000003f800000 10096470     Configuration.obj
 0002:00002480       __xmm@00000000000000003f80000000000000 10096480     Configuration.obj
 0002:00002490       __xmm@000000003f8000000000000000000000 10096490     Configuration.obj
 0002:000024a0       __xmm@000000003f800000000000003f800000 100964a0     Configuration.obj
 0002:000024b0       __xmm@3f800000000000000000000000000000 100964b0     Configuration.obj
 0002:000024c0       __xmm@3f80000000000000000000003f800000 100964c0     Configuration.obj
 0002:000024d0       __xmm@3f800000000000003f80000000000000 100964d0     Configuration.obj
 0002:000024e0       ??_C@_0L@PHFEFMEF@client?4dll?$AA@ 100964e0     EnginePrediction.obj
 0002:000024ec       ??_C@_05BPFOPNCG@Knife?$AA@ 100964ec     ESP.obj
 0002:000024f4       ??_C@_04KDDOELFP@AK47?$AA@ 100964f4     ESP.obj
 0002:000024fc       ??_C@_03CIFMCKCC@AUG?$AA@  100964fc     ESP.obj
 0002:00002500       ??_C@_08OKMAADFD@Revolver?$AA@ 10096500     ESP.obj
 0002:0000250c       ??_C@_03COFLHKNK@AWP?$AA@  1009650c     ESP.obj
 0002:00002510       ??_C@_05CEPIGKML@Bizon?$AA@ 10096510     ESP.obj
 0002:00002518       ??_C@_04GPGPLFMI@Bomb?$AA@ 10096518     ESP.obj
 0002:00002520       ??_C@_04BCLPEBO@CZ75?$AA@  10096520     ESP.obj
 0002:00002528       ??_C@_06NBAKNDOD@Deagle?$AA@ 10096528     ESP.obj
 0002:00002530       ??_C@_05BPMDPIFE@Decoy?$AA@ 10096530     ESP.obj
 0002:00002538       ??_C@_06DBOHLEHH@Elites?$AA@ 10096538     ESP.obj
 0002:00002540       ??_C@_05LHCFENCM@Famas?$AA@ 10096540     ESP.obj
 0002:00002548       ??_C@_09OMFOBOAC@FiveSeven?$AA@ 10096548     ESP.obj
 0002:00002554       ??_C@_05LDPHIKKB@Flash?$AA@ 10096554     ESP.obj
 0002:0000255c       ??_C@_05NANBJKGF@G3SG1?$AA@ 1009655c     ESP.obj
 0002:00002564       ??_C@_05HIMKGMK@Galil?$AA@ 10096564     ESP.obj
 0002:0000256c       ??_C@_05KPHPNOIE@Glock?$AA@ 1009656c     ESP.obj
 0002:00002574       ??_C@_07OPFMIBLN@Molotov?$AA@ 10096574     ESP.obj
 0002:0000257c       ??_C@_05GAJJNIIE@Scout?$AA@ 1009657c     ESP.obj
 0002:00002584       ??_C@_07GIIHBBNN@Grenade?$AA@ 10096584     ESP.obj
 0002:0000258c       ??_C@_04OOHKGEMG@M249?$AA@ 1009658c     ESP.obj
 0002:00002594       ??_C@_04FBPCBLKJ@M4A1?$AA@ 10096594     ESP.obj
 0002:0000259c       ??_C@_05OLCGHIJA@MAC10?$AA@ 1009659c     ESP.obj
 0002:000025a4       ??_C@_04FPMEJADD@MAG7?$AA@ 100965a4     ESP.obj
 0002:000025ac       ??_C@_03ELHOCOIH@MP7?$AA@  100965ac     ESP.obj
 0002:000025b0       ??_C@_03NFPNADAJ@MP9?$AA@  100965b0     ESP.obj
 0002:000025b4       ??_C@_04JBMBEHJL@Nova?$AA@ 100965b4     ESP.obj
 0002:000025bc       ??_C@_05LLDFNFHM@Negev?$AA@ 100965bc     ESP.obj
 0002:000025c4       ??_C@_04KGAKOGIL@P250?$AA@ 100965c4     ESP.obj
 0002:000025cc       ??_C@_03OBEKMHKN@P90?$AA@  100965cc     ESP.obj
 0002:000025d0       ??_C@_08OPKGKENO@SawedOff?$AA@ 100965d0     ESP.obj
 0002:000025dc       ??_C@_06FFMBKLE@SCAR20?$AA@ 100965dc     ESP.obj
 0002:000025e4       ??_C@_05JKMIMLIP@Smoke?$AA@ 100965e4     ESP.obj
 0002:000025ec       ??_C@_05ECLNBOMB@SG556?$AA@ 100965ec     ESP.obj
 0002:000025f4       ??_C@_04CENMHHMF@TEC9?$AA@ 100965f4     ESP.obj
 0002:000025fc       ??_C@_05JCFEJGIP@P2000?$AA@ 100965fc     ESP.obj
 0002:00002604       ??_C@_03PGCJBCMO@USP?$AA@  10096604     ESP.obj
 0002:00002608       ??_C@_03OAJBJMLE@UMP?$AA@  10096608     ESP.obj
 0002:0000260c       ??_C@_06DDIGILCE@XM1014?$AA@ 1009660c     ESP.obj
 0002:00002614       ??_C@_04BBKOFIDH@Zeus?$AA@ 10096614     ESP.obj
 0002:0000261c       ??_C@_06FEKDEEJK@M4A1?9S?$AA@ 1009661c     ESP.obj
 0002:00002624       ??_C@_03JOBGJDND@K?$CLH?$AA@ 10096624     ESP.obj
 0002:00002628       ??_C@_01KNKLHLMO@K?$AA@    10096628     ESP.obj
 0002:0000262c       ??_C@_04NMBCHJDN@?$CFiFT?$AA@ 1009662c     ESP.obj
 0002:00002634       ??_C@_0BC@IJPNMBCJ@Health?5left?3?50?5?3?$CI?$AA@ 10096634     ESP.obj
 0002:00002648       ??_C@_0BC@KCEPEJLF@Health?5left?3?5?$CF?40f?$AA@ 10096648     ESP.obj
 0002:0000265c       ??_C@_0L@FBCPLECA@Bomb?3?5?$CF?41f?$AA@ 1009665c     ESP.obj
 0002:00002668       ??_C@_0P@CCOKNMCM@Defusing?3?5?$CF?41f?$AA@ 10096668     ESP.obj
 0002:00002678       ??_C@_0L@EMDCNAMF@No?5Time?5?3?$CI?$AA@ 10096678     ESP.obj
 0002:00002684       ??_C@_09BIHNNKHL@Flashbang?$AA@ 10096684     ESP.obj
 0002:00002690       ??_C@_0M@NOOAJBNC@m67_grenade?$AA@ 10096690     ESP.obj
 0002:0000269c       ??_C@_05JNGEMOLJ@smoke?$AA@ 1009669c     ESP.obj
 0002:000026a4       ??_C@_0L@HLPGEAPM@incendiary?$AA@ 100966a4     ESP.obj
 0002:000026b0       ??_C@_0L@PNGKMPCL@Incendiary?$AA@ 100966b0     ESP.obj
 0002:000026bc       ??_C@_07BGCKODOL@molotov?$AA@ 100966bc     ESP.obj
 0002:000026c4       ??_C@_02DKCKIIND@?$CFs?$AA@ 100966c4     ESP.obj
 0002:000026c8       ??_C@_07EKDHCOID@Hostage?$AA@ 100966c8     ESP.obj
 0002:000026d0       ??_C@_0N@OBCPNEDJ@Bomb?5Carrier?$AA@ 100966d0     ESP.obj
 0002:000026e0       ??_C@_07PFPMPDAJ@Flashed?$AA@ 100966e0     ESP.obj
 0002:000026e8       ??_C@_0BF@HPOHDHAM@Resolver?3?5Bruteforce?$AA@ 100966e8     ESP.obj
 0002:00002700       ??_C@_0BJ@CJIADPHI@Resolver?3?5Predicting?5LBY?$AA@ 10096700     ESP.obj
 0002:0000271c       ??_C@_0BF@KBDCCKPI@Resolver?3?5LBY?5Update?$AA@ 1009671c     ESP.obj
 0002:00002734       ??_C@_0BH@LCAAGIIF@Resolver?3?5Legit?5Player?$AA@ 10096734     ESP.obj
 0002:0000274c       ??_C@_02KKHOEPMP@FT?$AA@   1009674c     ESP.obj
 0002:00002750       ??_C@_01LBDDMOBJ@?$FN?$AA@ 10096750     ESP.obj
 0002:00002754       ??_C@_01DNKMNLPK@?$HM?$AA@ 10096754     ESP.obj
 0002:00002758       ??_C@_01OHGJGJJP@?$FL?$AA@ 10096758     ESP.obj
 0002:0000275c       ??_C@_06MBBOEJDH@Scoped?$AA@ 1009675c     ESP.obj
 0002:00002764       ??_C@_09MMBLCCFO@Reloading?$AA@ 10096764     ESP.obj
 0002:00002770       ??_C@_01EPMOAMKG@$?$AA@    10096770     ESP.obj
 0002:00002774       ??_C@_08MLOGCOBL@DMG?3?5?$CF1i?$AA@ 10096774     ESP.obj
 0002:00002780       ??_C@_06PDFPIENG@DMG?3?50?$AA@ 10096780     ESP.obj
 0002:00002788       ??_C@_04PKFANLLI@REAL?$AA@ 10096788     ESP.obj
 0002:00002790       ??_C@_04DMAHEDDC@FAKE?$AA@ 10096790     ESP.obj
 0002:00002798       ??_C@_04GHNNFJCK@?$CF?40f?$AA@ 10096798     ESP.obj
 0002:000027a0       ??_C@_0L@NPFKENCH@sv_skyname?$AA@ 100967a0     ESP.obj
 0002:000027ac       ??_C@_0BJ@DABJDKIL@r_DrawSpecificStaticProp?$AA@ 100967ac     ESP.obj
 0002:000027c8       ??_C@_0BB@DNKKAGKJ@sky_csgo_night02?$AA@ 100967c8     ESP.obj
 0002:000027dc       ??_C@_0P@HPCHOLAI@World?5textures?$AA@ 100967dc     ESP.obj
 0002:000027ec       ??_C@_0L@OMFLPMKM@StaticProp?$AA@ 100967ec     ESP.obj
 0002:000027f8       ??_C@_0CE@KEFAANIL@models?1props?1de_dust?1palace_bigd@ 100967f8     ESP.obj
 0002:0000281c       ??_C@_0CE@CLEEKGHG@models?1props?1de_dust?1palace_pill@ 1009681c     ESP.obj
 0002:00002840       ??_C@_0BC@DOCBLOCD@Particle?5textures?$AA@ 10096840     ESP.obj
 0002:00002854       __real@00000000            10096854     ESP.obj
 0002:00002858       __real@3c23d70a            10096858     ESP.obj
 0002:0000285c       __real@3cd013a9            1009685c     ESP.obj
 0002:00002860       __real@3f333333            10096860     ESP.obj
 0002:00002864       __real@3fa66666            10096864     ESP.obj
 0002:00002868       __real@4004666666666666    10096868     ESP.obj
 0002:00002870       __real@406fe00000000000    10096870     ESP.obj
 0002:00002878       __real@41200000            10096878     ESP.obj
 0002:0000287c       __real@420c0000            1009687c     ESP.obj
 0002:00002880       __real@42340000            10096880     ESP.obj
 0002:00002884       __real@42975c29            10096884     ESP.obj
 0002:00002888       __real@42b40000            10096888     ESP.obj
 0002:0000288c       __real@42c80000            1009688c     ESP.obj
 0002:00002890       __real@43e1599a            10096890     ESP.obj
 0002:00002894       __real@44454ccd            10096894     ESP.obj
 0002:00002898       __real@461c4000            10096898     ESP.obj
 0002:0000289c       __real@c0000000            1009689c     ESP.obj
 0002:000028a0       __xmm@00000000000000030000000300000002 100968a0     ESP.obj
 0002:000028b0       __xmm@00000002000000010000000100000000 100968b0     ESP.obj
 0002:000028c0       __xmm@00000004000000070000000700000006 100968c0     ESP.obj
 0002:000028d0       __xmm@00000005000000010000000400000000 100968d0     ESP.obj
 0002:000028e0       __xmm@00000006000000050000000500000004 100968e0     ESP.obj
 0002:000028f0       __xmm@00000007000000030000000600000002 100968f0     ESP.obj
 0002:00002900       __xmm@80000000800000008000000080000000 10096900     ESP.obj
 0002:00002914       ??_7CTraceFilterWorldAndPropsOnly@@6B@ 10096914     GrenadePrediction.obj
 0002:0000292c       __real@3e4ccccd            1009692c     GrenadePrediction.obj
 0002:00002930       __real@3e99999a            10096930     GrenadePrediction.obj
 0002:00002938       __real@3eb0c6f7a0b5ed8d    10096938     GrenadePrediction.obj
 0002:00002940       __real@3ee66666            10096940     GrenadePrediction.obj
 0002:00002948       __real@3f91df46a0000000    10096948     GrenadePrediction.obj
 0002:00002950       __real@3fc00000            10096950     GrenadePrediction.obj
 0002:00002954       __real@41400000            10096954     GrenadePrediction.obj
 0002:00002958       __real@41b00000            10096958     GrenadePrediction.obj
 0002:0000295c       __real@43a00000            1009695c     GrenadePrediction.obj
 0002:00002960       __real@43b40000            10096960     GrenadePrediction.obj
 0002:00002964       __real@43c80000            10096964     GrenadePrediction.obj
 0002:00002968       __real@4428c000            10096968     GrenadePrediction.obj
 0002:0000296c       __real@bdcccccd            1009696c     GrenadePrediction.obj
 0002:00002970       __real@bf800000            10096970     GrenadePrediction.obj
 0002:00002974       __real@c2b40000            10096974     GrenadePrediction.obj
 0002:00002980       __xmm@7fffffffffffffff7fffffffffffffff 10096980     GrenadePrediction.obj
 0002:00002d98       ??_C@_08JGILNPHN@Disabled?$AA@ 10096d98     Hooks.obj
 0002:00002da4       ??_C@_06BJBEHGOF@Roblox?$AA@ 10096da4     Hooks.obj
 0002:00002dac       ??_C@_05GJOBNGDJ@Trump?$AA@ 10096dac     Hooks.obj
 0002:00002db4       ??_C@_08FBELJDCF@Metallic?$AA@ 10096db4     Hooks.obj
 0002:00002dc0       ??_C@_06KBIODPAH@Ground?$AA@ 10096dc0     Hooks.obj
 0002:00002dc8       ??_C@_09JOIHIAIG@Crosshair?$AA@ 10096dc8     Hooks.obj
 0002:00002dd4       ??_C@_0BC@NOOJPJHB@85?5C0?575?530?538?586?$AA@ 10096dd4     Hooks.obj
 0002:00002de8       ??_C@_03GCDBBDDL@Off?$AA@  10096de8     Hooks.obj
 0002:00002dec       ??_C@_03CMIMKEEK@Low?$AA@  10096dec     Hooks.obj
 0002:00002df0       ??_C@_06LHIDHMIE@Medium?$AA@ 10096df0     Hooks.obj
 0002:00002df8       ??_C@_04PHMMJPOJ@High?$AA@ 10096df8     Hooks.obj
 0002:00002e00       ??_C@_04CNKLLJE@BAIM?$AA@  10096e00     Hooks.obj
 0002:00002e08       ??_C@_05HFADIOFI@Cross?$AA@ 10096e08     Hooks.obj
 0002:00002e10       ??_C@_06MLENFHBD@Circle?$AA@ 10096e10     Hooks.obj
 0002:00002e18       ??_C@_06ENIHNBMK@Square?$AA@ 10096e18     Hooks.obj
 0002:00002e20       ??_C@_04LANNEDME@Nazi?$AA@ 10096e20     Hooks.obj
 0002:00002e28       ??_C@_0BA@MPCCPGIG@Sideways?5Jitter?$AA@ 10096e28     Hooks.obj
 0002:00002e38       ??_C@_09HLFNCCPH@Slow?5Spin?$AA@ 10096e38     Hooks.obj
 0002:00002e44       ??_C@_09FBGJLBPF@Fast?5Spin?$AA@ 10096e44     Hooks.obj
 0002:00002e50       ??_C@_09CCHICIOO@Backwards?$AA@ 10096e50     Hooks.obj
 0002:00002e5c       ??_C@_0L@GGDCPPKP@LBY?5Switch?$AA@ 10096e5c     Hooks.obj
 0002:00002e68       ??_C@_0BB@KELBOINF@Manual?5LBY?5Break?$AA@ 10096e68     Hooks.obj
 0002:00002e7c       ??_C@_0M@KACCIMIF@Back?5Jitter?$AA@ 10096e7c     Hooks.obj
 0002:00002e88       ??_C@_0BB@GMMCFMIK@Jitter?5LBY?5Break?$AA@ 10096e88     Hooks.obj
 0002:00002e9c       ??_C@_09OAHKLDEF@Manual?5AA?$AA@ 10096e9c     Hooks.obj
 0002:00002ea8       ??_C@_0BD@KNOKOIFC@cs_baggage_skybox_?$AA@ 10096ea8     Hooks.obj
 0002:00002ebc       ??_C@_0BA@KFIDNFAM@sky_citynight01?$AA@ 10096ebc     Hooks.obj
 0002:00002ecc       ??_C@_07IKAHCDEC@vertigo?$AA@ 10096ecc     Hooks.obj
 0002:00002ed4       ??_C@_0BI@EHOLFNKI@sky_cs15_daylight01_hdr?$AA@ 10096ed4     Hooks.obj
 0002:00002eec       ??_C@_0P@HPJLHAIB@Forward?5Jitter?$AA@ 10096eec     Hooks.obj
 0002:00002efc       ??_C@_09LGDDEHIG@Jitter?5AA?$AA@ 10096efc     Hooks.obj
 0002:00002f08       ??_C@_0L@IBHIJAAD@LBY?5Jitter?$AA@ 10096f08     Hooks.obj
 0002:00002f14       ??_C@_07BKOKEIAH@Emotion?$AA@ 10096f14     Hooks.obj
 0002:00002f1c       ??_C@_02EFPGLDEA@Up?$AA@   10096f1c     Hooks.obj
 0002:00002f20       ??_C@_07IOHFJBJK@Fake?5Up?$AA@ 10096f20     Hooks.obj
 0002:00002f28       ??_C@_09PDJMIODA@Fake?5Down?$AA@ 10096f28     Hooks.obj
 0002:00002f34       ??_C@_09FMCBLEBN@Fake?5Zero?$AA@ 10096f34     Hooks.obj
 0002:00002f40       ??_C@_07MFINDEA@NoHands?$AA@ 10096f40     Hooks.obj
 0002:00002f48       ??_C@_09GCGMAPH@Wireframe?$AA@ 10096f48     Hooks.obj
 0002:00002f54       ??_C@_07FCDJHIDC@Aimware?$AA@ 10096f54     Hooks.obj
 0002:00002f5c       ??_C@_09IEIMAEOL@Interwebz?$AA@ 10096f5c     Hooks.obj
 0002:00002f68       ??_C@_09MBJJJAHD@kapiSware?$AA@ 10096f68     Hooks.obj
 0002:00002f74       ??_C@_06MMCBHKPF@hitbox?$AA@ 10096f74     Hooks.obj
 0002:00002f7c       ??_C@_08IHFEPOAD@NeverVAC?$AA@ 10096f7c     Hooks.obj
 0002:00002f88       ??_C@_0M@ODMPMFKA@NameStealer?$AA@ 10096f88     Hooks.obj
 0002:00002f94       ??_C@_0N@JGDMHMEL@csgocalm?4xyz?$AA@ 10096f94     Hooks.obj
 0002:00002fa4       ??_C@_06KGEOADJK@insult?$AA@ 10096fa4     Hooks.obj
 0002:00002fac       ??_C@_06LNIGDDPE@hentai?$AA@ 10096fac     Hooks.obj
 0002:00002fb4       ??_C@_06EFAGIKOH@Normal?$AA@ 10096fb4     Hooks.obj
 0002:00002fbc       ??_C@_04JNNIPAFF@Flat?$AA@ 10096fbc     Hooks.obj
 0002:00002fc4       ??_C@_04BFCCBDOP@Head?$AA@ 10096fc4     Hooks.obj
 0002:00002fcc       ??_C@_04BOHOCOOO@Neck?$AA@ 10096fcc     Hooks.obj
 0002:00002fd4       ??_C@_06EIPNOIEJ@Pelvis?$AA@ 10096fd4     Hooks.obj
 0002:00002fdc       ??_C@_07ICEFLCDE@RayTeak?$AA@ 10096fdc     Hooks.obj
 0002:00002fe4       ??_C@_0L@NCAJOFAD@Monochrome?$AA@ 10096fe4     Hooks.obj
 0002:00002ff0       ??_C@_07MCAEODGB@Default?$AA@ 10096ff0     Hooks.obj
 0002:00002ff8       ??_C@_03PADCEAKC@Red?$AA@  10096ff8     Hooks.obj
 0002:00002ffc       ??_C@_05GGOIJPPE@Green?$AA@ 10096ffc     Hooks.obj
 0002:00003004       ??_C@_04CAKOHOCJ@Blue?$AA@ 10097004     Hooks.obj
 0002:0000300c       ??_C@_05PLKILNHI@White?$AA@ 1009700c     Hooks.obj
 0002:00003014       ??_C@_05BPGNDIAE@Black?$AA@ 10097014     Hooks.obj
 0002:0000301c       ??_C@_07ECMOILKI@Mouse?51?$AA@ 1009701c     Hooks.obj
 0002:00003024       ??_C@_07GJODNIGL@Mouse?52?$AA@ 10097024     Hooks.obj
 0002:0000302c       ??_C@_06FMBNCPDL@Cancel?$AA@ 1009702c     Hooks.obj
 0002:00003034       ??_C@_0N@NAEJFKBJ@Middle?5Mouse?$AA@ 10097034     Hooks.obj
 0002:00003044       ??_C@_07DPLJHPON@Mouse?54?$AA@ 10097044     Hooks.obj
 0002:0000304c       ??_C@_07CGKCEOKM@Mouse?55?$AA@ 1009704c     Hooks.obj
 0002:00003054       ??_C@_09LPBCIPOJ@Backspace?$AA@ 10097054     Hooks.obj
 0002:00003060       ??_C@_03IEAKBACE@Tab?$AA@  10097060     Hooks.obj
 0002:00003064       ??_C@_05MDNHABIA@Clear?$AA@ 10097064     Hooks.obj
 0002:0000306c       ??_C@_05IAOCCJNL@Enter?$AA@ 1009706c     Hooks.obj
 0002:00003074       ??_C@_05CMECKLGA@Shift?$AA@ 10097074     Hooks.obj
 0002:0000307c       ??_C@_07DFGIDBBA@Control?$AA@ 1009707c     Hooks.obj
 0002:00003084       ??_C@_03PHINJBAN@Alt?$AA@  10097084     Hooks.obj
 0002:00003088       ??_C@_05PEDNBBBD@Pause?$AA@ 10097088     Hooks.obj
 0002:00003090       ??_C@_04PFPHPIHI@Caps?$AA@ 10097090     Hooks.obj
 0002:00003098       ??_C@_06OIGFGPHJ@Escape?$AA@ 10097098     Hooks.obj
 0002:000030a0       ??_C@_05OMHELODH@Space?$AA@ 100970a0     Hooks.obj
 0002:000030a8       ??_C@_07EDGDGJEN@Page?5Up?$AA@ 100970a8     Hooks.obj
 0002:000030b0       ??_C@_09IOIDGKNA@Page?5Down?$AA@ 100970b0     Hooks.obj
 0002:000030bc       ??_C@_03DBKJMAGF@End?$AA@  100970bc     Hooks.obj
 0002:000030c0       ??_C@_04GKJODLKO@Home?$AA@ 100970c0     Hooks.obj
 0002:000030c8       ??_C@_04KPCPLBPL@Left?$AA@ 100970c8     Hooks.obj
 0002:000030d0       ??_C@_05DADPALEM@Right?$AA@ 100970d0     Hooks.obj
 0002:000030d8       ??_C@_04FNCLCJMC@Down?$AA@ 100970d8     Hooks.obj
 0002:000030e0       ??_C@_05IOJFAHFF@Print?$AA@ 100970e0     Hooks.obj
 0002:000030e8       ??_C@_06CPFCODOD@Insert?$AA@ 100970e8     Hooks.obj
 0002:000030f0       ??_C@_06JBKGCNBB@Delete?$AA@ 100970f0     Hooks.obj
 0002:000030f8       ??_C@_01GBGANLPD@0?$AA@    100970f8     Hooks.obj
 0002:000030fc       ??_C@_01HIHLOKLC@1?$AA@    100970fc     Hooks.obj
 0002:00003100       ??_C@_01FDFGLJHB@2?$AA@    10097100     Hooks.obj
 0002:00003104       ??_C@_01EKENIIDA@3?$AA@    10097104     Hooks.obj
 0002:00003108       ??_C@_01FAMBOPH@4?$AA@     10097108     Hooks.obj
 0002:0000310c       ??_C@_01BMBHCPLG@5?$AA@    1009710c     Hooks.obj
 0002:00003110       ??_C@_01DHDKHMHF@6?$AA@    10097110     Hooks.obj
 0002:00003114       ??_C@_01COCBENDE@7?$AA@    10097114     Hooks.obj
 0002:00003118       ??_C@_01KJLJFBPL@8?$AA@    10097118     Hooks.obj
 0002:0000311c       ??_C@_01LAKCGALK@9?$AA@    1009711c     Hooks.obj
 0002:00003120       ??_C@_01FHEEJDEE@A?$AA@    10097120     Hooks.obj
 0002:00003124       ??_C@_01HMGJMAIH@B?$AA@    10097124     Hooks.obj
 0002:00003128       ??_C@_01CKDDGHAB@D?$AA@    10097128     Hooks.obj
 0002:0000312c       ??_C@_01DDCIFGEA@E?$AA@    1009712c     Hooks.obj
 0002:00003130       ??_C@_01BIAFAFID@F?$AA@    10097130     Hooks.obj
 0002:00003134       ??_C@_01BBODEMC@G?$AA@     10097134     Hooks.obj
 0002:00003138       ??_C@_01IGIGCIAN@H?$AA@    10097138     Hooks.obj
 0002:0000313c       ??_C@_01JPJNBJEM@I?$AA@    1009713c     Hooks.obj
 0002:00003140       ??_C@_01LELAEKIP@J?$AA@    10097140     Hooks.obj
 0002:00003144       ??_C@_01OCOKONAJ@L?$AA@    10097144     Hooks.obj
 0002:00003148       ??_C@_01PLPBNMEI@M?$AA@    10097148     Hooks.obj
 0002:0000314c       ??_C@_01NANMIPIL@N?$AA@    1009714c     Hooks.obj
 0002:00003150       ??_C@_01MJMHLOMK@O?$AA@    10097150     Hooks.obj
 0002:00003154       ??_C@_01EJNLAFE@P?$AA@     10097154     Hooks.obj
 0002:00003158       ??_C@_01BNIGIBBF@Q?$AA@    10097158     Hooks.obj
 0002:0000315c       ??_C@_01DGKLNCNG@R?$AA@    1009715c     Hooks.obj
 0002:00003160       ??_C@_01CPLAODJH@S?$AA@    10097160     Hooks.obj
 0002:00003164       ??_C@_01GAPBHFFA@T?$AA@    10097164     Hooks.obj
 0002:00003168       ??_C@_01HJOKEEBB@U?$AA@    10097168     Hooks.obj
 0002:0000316c       ??_C@_01FCMHBHNC@V?$AA@    1009716c     Hooks.obj
 0002:00003170       ??_C@_01ELNMCGJD@W?$AA@    10097170     Hooks.obj
 0002:00003174       ??_C@_01MMEEDKFM@X?$AA@    10097174     Hooks.obj
 0002:00003178       ??_C@_01NFFPALBN@Y?$AA@    10097178     Hooks.obj
 0002:0000317c       ??_C@_01POHCFINO@Z?$AA@    1009717c     Hooks.obj
 0002:00003180       ??_C@_08PNEIMCGO@Numpad?50?$AA@ 10097180     Hooks.obj
 0002:0000318c       ??_C@_08OEFDPDCP@Numpad?51?$AA@ 1009718c     Hooks.obj
 0002:00003198       ??_C@_08MPHOKAOM@Numpad?52?$AA@ 10097198     Hooks.obj
 0002:000031a4       ??_C@_08NGGFJBKN@Numpad?53?$AA@ 100971a4     Hooks.obj
 0002:000031b0       ??_C@_08JJCEAHGK@Numpad?54?$AA@ 100971b0     Hooks.obj
 0002:000031bc       ??_C@_08IADPDGCL@Numpad?55?$AA@ 100971bc     Hooks.obj
 0002:000031c8       ??_C@_08KLBCGFOI@Numpad?56?$AA@ 100971c8     Hooks.obj
 0002:000031d4       ??_C@_08LCAJFEKJ@Numpad?57?$AA@ 100971d4     Hooks.obj
 0002:000031e0       ??_C@_08DFJBEIGG@Numpad?58?$AA@ 100971e0     Hooks.obj
 0002:000031ec       ??_C@_08CMIKHJCH@Numpad?59?$AA@ 100971ec     Hooks.obj
 0002:000031f8       ??_C@_08EOBDLMOI@Multiply?$AA@ 100971f8     Hooks.obj
 0002:00003204       ??_C@_03LDFMNCOE@Add?$AA@  10097204     Hooks.obj
 0002:00003208       ??_C@_08DLEJPBEP@Subtract?$AA@ 10097208     Hooks.obj
 0002:00003214       ??_C@_07LNNHENGJ@Decimal?$AA@ 10097214     Hooks.obj
 0002:0000321c       ??_C@_06JKMEHOIB@Divide?$AA@ 1009721c     Hooks.obj
 0002:00003224       ??_C@_02LCPENACN@F1?$AA@   10097224     Hooks.obj
 0002:00003228       ??_C@_02JJNJIDOO@F2?$AA@   10097228     Hooks.obj
 0002:0000322c       ??_C@_02IAMCLCKP@F3?$AA@   1009722c     Hooks.obj
 0002:00003230       ??_C@_02MPIDCEGI@F4?$AA@   10097230     Hooks.obj
 0002:00003234       ??_C@_02NGJIBFCJ@F5?$AA@   10097234     Hooks.obj
 0002:00003238       ??_C@_02PNLFEGOK@F6?$AA@   10097238     Hooks.obj
 0002:0000323c       ??_C@_02OEKOHHKL@F7?$AA@   1009723c     Hooks.obj
 0002:00003240       ??_C@_02GDDGGLGE@F8?$AA@   10097240     Hooks.obj
 0002:00003244       ??_C@_02HKCNFKCF@F9?$AA@   10097244     Hooks.obj
 0002:00003248       ??_C@_03JKCLJOFG@F10?$AA@  10097248     Hooks.obj
 0002:0000324c       ??_C@_03IDDAKPBH@F11?$AA@  1009724c     Hooks.obj
 0002:00003250       ??_C@_03KIBNPMNE@F12?$AA@  10097250     Hooks.obj
 0002:00003254       ??_C@_07DFFNCLML@Bayonet?$AA@ 10097254     Hooks.obj
 0002:0000325c       ??_C@_0M@HJNOOPCG@Bowie?5Knife?$AA@ 1009725c     Hooks.obj
 0002:00003268       ??_C@_0BA@FLBPMPKI@Butterfly?5Knife?$AA@ 10097268     Hooks.obj
 0002:00003278       ??_C@_0P@FPKNOEI@Falchion?5Knife?$AA@ 10097278     Hooks.obj
 0002:00003288       ??_C@_0L@KDBAEFMI@Flip?5Knife?$AA@ 10097288     Hooks.obj
 0002:00003294       ??_C@_09GMODAIEG@Gut?5Knife?$AA@ 10097294     Hooks.obj
 0002:000032a0       ??_C@_0P@MDLFPMBF@Huntsman?5Knife?$AA@ 100972a0     Hooks.obj
 0002:000032b0       ??_C@_08BNPHALHK@Karambit?$AA@ 100972b0     Hooks.obj
 0002:000032bc       ??_C@_0L@DADDDKPH@M9?5Bayonet?$AA@ 100972bc     Hooks.obj
 0002:000032c8       ??_C@_0P@EEFPEHJP@Shadow?5Daggers?$AA@ 100972c8     Hooks.obj
 0002:000032d8       ??_C@_0L@MEJDOLNL@Bloodhound?$AA@ 100972d8     Hooks.obj
 0002:000032e4       ??_C@_05ECJGCDFD@Sport?$AA@ 100972e4     Hooks.obj
 0002:000032ec       ??_C@_06BNFOCFOC@Driver?$AA@ 100972ec     Hooks.obj
 0002:000032f4       ??_C@_05PNNAHLP@Wraps?$AA@ 100972f4     Hooks.obj
 0002:000032fc       ??_C@_0L@HMENKOML@Motorcycle?$AA@ 100972fc     Hooks.obj
 0002:00003308       ??_C@_0L@BBHDIOOK@Specialist?$AA@ 10097308     Hooks.obj
 0002:00003314       ??_C@_04OHJIHAFH@None?$AA@ 10097314     Hooks.obj
 0002:0000331c       ??_C@_0M@GFECCEP@Crimson?5Web?$AA@ 1009731c     Hooks.obj
 0002:00003328       ??_C@_09ONOELCGH@Bone?5Mask?$AA@ 10097328     Hooks.obj
 0002:00003334       ??_C@_04DKKAMJHD@Fade?$AA@ 10097334     Hooks.obj
 0002:0000333c       ??_C@_05EECLMJKM@Night?$AA@ 1009733c     Hooks.obj
 0002:00003344       ??_C@_0L@DBOBANBN@Blue?5Steel?$AA@ 10097344     Hooks.obj
 0002:00003350       ??_C@_07JKKNMOBA@Stained?$AA@ 10097350     Hooks.obj
 0002:00003358       ??_C@_0O@KJMMGPHG@Case?5Hardened?$AA@ 10097358     Hooks.obj
 0002:00003368       ??_C@_09FNOLKBMB@Slaughter?$AA@ 10097368     Hooks.obj
 0002:00003374       ??_C@_0M@GJILCPMG@Safari?5Mesh?$AA@ 10097374     Hooks.obj
 0002:00003380       ??_C@_0O@HPJBMDBP@Boreal?5Forest?$AA@ 10097380     Hooks.obj
 0002:00003390       ??_C@_0M@IIBENIHK@Ultraviolet?$AA@ 10097390     Hooks.obj
 0002:0000339c       ??_C@_0N@IMLJNPJA@Urban?5Masked?$AA@ 1009739c     Hooks.obj
 0002:000033ac       ??_C@_08FINENEGF@Scorched?$AA@ 100973ac     Hooks.obj
 0002:000033b8       ??_C@_09FIKEPIDC@Rust?5Coat?$AA@ 100973b8     Hooks.obj
 0002:000033c4       ??_C@_0M@IFCNOIMG@Tiger?5Tooth?$AA@ 100973c4     Hooks.obj
 0002:000033d0       ??_C@_0P@IEPDKCON@Damascus?5Steel?$AA@ 100973d0     Hooks.obj
 0002:000033e0       ??_C@_0M@GBIOCIOA@Marble?5Fade?$AA@ 100973e0     Hooks.obj
 0002:000033ec       ??_C@_0N@CKIJGPPN@Doppler?5Ruby?$AA@ 100973ec     Hooks.obj
 0002:000033fc       ??_C@_0BB@JOCKPINH@Doppler?5Sapphire?$AA@ 100973fc     Hooks.obj
 0002:00003410       ??_C@_0BD@HILIEKAD@Doppler?5Blackpearl?$AA@ 10097410     Hooks.obj
 0002:00003424       ??_C@_0BA@LBPNHKFK@Doppler?5Phase?51?$AA@ 10097424     Hooks.obj
 0002:00003434       ??_C@_0BA@JKNACJJJ@Doppler?5Phase?52?$AA@ 10097434     Hooks.obj
 0002:00003444       ??_C@_0BA@IDMLBINI@Doppler?5Phase?53?$AA@ 10097444     Hooks.obj
 0002:00003454       ??_C@_0BA@MMIKIOBP@Doppler?5Phase?54?$AA@ 10097454     Hooks.obj
 0002:00003464       ??_C@_0BG@EFMDMGCH@Gamma?5Doppler?5Phase?51?$AA@ 10097464     Hooks.obj
 0002:0000347c       ??_C@_0BG@GOOOJFOE@Gamma?5Doppler?5Phase?52?$AA@ 1009747c     Hooks.obj
 0002:00003494       ??_C@_0BG@HHPFKEKF@Gamma?5Doppler?5Phase?53?$AA@ 10097494     Hooks.obj
 0002:000034ac       ??_C@_0BG@DILEDCGC@Gamma?5Doppler?5Phase?54?$AA@ 100974ac     Hooks.obj
 0002:000034c4       ??_C@_0BG@LEHPPHIL@Gamma?5Doppler?5Emerald?$AA@ 100974c4     Hooks.obj
 0002:000034dc       ??_C@_04IIGEHJCD@Lore?$AA@ 100974dc     Hooks.obj
 0002:000034e4       ??_C@_09HHHNLIAN@Decimator?$AA@ 100974e4     Hooks.obj
 0002:000034f0       ??_C@_06CJCFJDME@Knight?$AA@ 100974f0     Hooks.obj
 0002:000034f8       ??_C@_0BA@DOKALGDE@Chantico?8s?5Fire?$AA@ 100974f8     Hooks.obj
 0002:00003508       ??_C@_0L@PBLFEIDP@Golden?5Coi?$AA@ 10097508     Hooks.obj
 0002:00003514       ??_C@_0M@HLGDNDCN@Hyper?5Beast?$AA@ 10097514     Hooks.obj
 0002:00003520       ??_C@_0N@NAMMOCCE@Master?5Piece?$AA@ 10097520     Hooks.obj
 0002:00003530       ??_C@_07GPDHEAIG@Hot?5Rod?$AA@ 10097530     Hooks.obj
 0002:00003538       ??_C@_0BB@FIHGAPNP@Mecha?5Industries?$AA@ 10097538     Hooks.obj
 0002:0000354c       ??_C@_05FLPPDGAC@Cyrex?$AA@ 1009754c     Hooks.obj
 0002:00003554       ??_C@_0M@GNPECMJG@Icarus?5Fell?$AA@ 10097554     Hooks.obj
 0002:00003560       ??_C@_09LMBAAGCE@Flashback?$AA@ 10097560     Hooks.obj
 0002:0000356c       ??_C@_0N@DMFDPIDD@Leaded?5Glass?$AA@ 1009756c     Hooks.obj
 0002:0000357c       ??_C@_0N@PDJEIBLM@Fire?5Serpent?$AA@ 1009757c     Hooks.obj
 0002:0000358c       ??_C@_0O@DBGEMOHH@Fuel?5Injector?$AA@ 1009758c     Hooks.obj
 0002:0000359c       ??_C@_0L@CPGIOGGO@Bloodsport?$AA@ 1009759c     Hooks.obj
 0002:000035a8       ??_C@_06LOEDEFOB@Vulcan?$AA@ 100975a8     Hooks.obj
 0002:000035b0       ??_C@_0L@KCMEMHAE@Hydroponic?$AA@ 100975b0     Hooks.obj
 0002:000035bc       ??_C@_0BD@CFPHDDIA@Aquamarine?5Revenge?$AA@ 100975bc     Hooks.obj
 0002:000035d0       ??_C@_0BA@CGABEKFP@Frontside?5Misty?$AA@ 100975d0     Hooks.obj
 0002:000035e0       ??_C@_0P@JCGBCJDG@Point?5Disarray?$AA@ 100975e0     Hooks.obj
 0002:000035f0       ??_C@_0BA@CCHCFEJC@Neon?5Revolution?$AA@ 100975f0     Hooks.obj
 0002:00003600       ??_C@_0N@IJGLODJA@Red?5Laminate?$AA@ 10097600     Hooks.obj
 0002:00003610       ??_C@_07IHBKKBCO@Redline?$AA@ 10097610     Hooks.obj
 0002:00003618       ??_C@_06GCKPJHNJ@Jaguar?$AA@ 10097618     Hooks.obj
 0002:00003620       ??_C@_07HGILOIFH@Jet?5Set?$AA@ 10097620     Hooks.obj
 0002:00003628       ??_C@_0BA@OMCKGEFH@Wasteland?5Rebel?$AA@ 10097628     Hooks.obj
 0002:00003638       ??_C@_0M@LJAOMGMG@The?5Empress?$AA@ 10097638     Hooks.obj
 0002:00003644       ??_C@_07OKBBBOEO@Asiimov?$AA@ 10097644     Hooks.obj
 0002:0000364c       ??_C@_04KKONKGEB@Howl?$AA@ 1009764c     Hooks.obj
 0002:00003654       ??_C@_0M@MDDAJHAM@Dragon?5King?$AA@ 10097654     Hooks.obj
 0002:00003660       ??_C@_08HPEFPDDD@Poseidon?$AA@ 10097660     Hooks.obj
 0002:0000366c       ??_C@_08PKPDIFDD@Daybreak?$AA@ 1009766c     Hooks.obj
 0002:00003678       ??_C@_0O@LIOOBDK@Royal?5Paladin?$AA@ 10097678     Hooks.obj
 0002:00003688       ??_C@_0P@HGCJBMPL@The?5BattleStar?$AA@ 10097688     Hooks.obj
 0002:00003698       ??_C@_0P@BHGGODB@Desolate?5Space?$AA@ 10097698     Hooks.obj
 0002:000036a8       ??_C@_09KPKCAGLL@Buzz?5Kill?$AA@ 100976a8     Hooks.obj
 0002:000036b4       ??_C@_0N@FJAKLPOF@Bengal?5Tiger?$AA@ 100976b4     Hooks.obj
 0002:000036c4       ??_C@_09MIJFEMDG@Chameleon?$AA@ 100976c4     Hooks.obj
 0002:000036d0       ??_C@_0BB@GDPCACML@Akihabara?5Accept?$AA@ 100976d0     Hooks.obj
 0002:000036e4       ??_C@_05PGGPGBEA@Djinn?$AA@ 100976e4     Hooks.obj
 0002:000036ec       ??_C@_04BOPFCKBD@Styx?$AA@ 100976ec     Hooks.obj
 0002:000036f4       ??_C@_0L@JOHLJOPK@Neural?5Net?$AA@ 100976f4     Hooks.obj
 0002:00003700       ??_C@_08JEOBFLNN@Survivor?$AA@ 10097700     Hooks.obj
 0002:0000370c       ??_C@_0M@HDHBCMFG@Dragon?5Lore?$AA@ 1009770c     Hooks.obj
 0002:00003718       ??_C@_0M@DEPJMHKG@Fever?5Dream?$AA@ 10097718     Hooks.obj
 0002:00003724       ??_C@_06FHEKHBN@Medusa?$AA@ 10097724     Hooks.obj
 0002:0000372c       ??_C@_04OGIILABF@BOOM?$AA@ 1009772c     Hooks.obj
 0002:00003734       ??_C@_0BB@PJJIOMOB@Lightning?5Strike?$AA@ 10097734     Hooks.obj
 0002:00003748       ??_C@_0L@EKJBKFDM@Pink?5DDPAT?$AA@ 10097748     Hooks.obj
 0002:00003754       ??_C@_09MKHCLFGM@Corticera?$AA@ 10097754     Hooks.obj
 0002:00003760       ??_C@_0L@LNKBJIHF@Man?9o?8?9war?$AA@ 10097760     Hooks.obj
 0002:0000376c       ??_C@_08MPINICIJ@Graphite?$AA@ 1009776c     Hooks.obj
 0002:00003778       ??_C@_0O@DDCKJBEO@Electric?5Hive?$AA@ 10097778     Hooks.obj
 0002:00003788       ??_C@_0O@FPCNGBIN@Lichen?5Dashed?$AA@ 10097788     Hooks.obj
 0002:00003798       ??_C@_0L@FCDEGGNE@Dark?5Water?$AA@ 10097798     Hooks.obj
 0002:000037a4       ??_C@_0M@GJKJALBA@Blue?5Spruce?$AA@ 100977a4     Hooks.obj
 0002:000037b0       ??_C@_09BDCLDHID@Sand?5Dune?$AA@ 100977b0     Hooks.obj
 0002:000037bc       ??_C@_04BDMKHAOB@Palm?$AA@ 100977bc     Hooks.obj
 0002:000037c4       ??_C@_0N@PLLLECK@Mayan?5Dreams?$AA@ 100977c4     Hooks.obj
 0002:000037d4       ??_C@_0BD@GDDEIJIB@Blood?5in?5the?5Water?$AA@ 100977d4     Hooks.obj
 0002:000037e8       ??_C@_0P@FKICPIKI@Tropical?5Storm?$AA@ 100977e8     Hooks.obj
 0002:000037f8       ??_C@_09LMGPFBLH@Acid?5Fade?$AA@ 100977f8     Hooks.obj
 0002:00003804       ??_C@_07MBKHMMEG@Slashed?$AA@ 10097804     Hooks.obj
 0002:0000380c       ??_C@_06KKMKPPJH@Detour?$AA@ 1009780c     Hooks.obj
 0002:00003814       ??_C@_05CNFJLAJC@Abyss?$AA@ 10097814     Hooks.obj
 0002:0000381c       ??_C@_08EDKLJEAG@Big?5Iron?$AA@ 1009781c     Hooks.obj
 0002:00003828       ??_C@_08FMNNIBIB@Necropos?$AA@ 10097828     Hooks.obj
 0002:00003834       ??_C@_0P@MECMGCHE@Ghost?5Crusader?$AA@ 10097834     Hooks.obj
 0002:00003844       ??_C@_0L@MBMAAGAA@Dragonfire?$AA@ 10097844     Hooks.obj
 0002:00003850       ??_C@_09MGFHJCCN@Blueprint?$AA@ 10097850     Hooks.obj
 0002:0000385c       ??_C@_07JCMOAPN@Emerald?$AA@ 1009785c     Hooks.obj
 0002:00003864       ??_C@_0N@PKBFEGGD@Green?5Marine?$AA@ 10097864     Hooks.obj
 0002:00003874       ??_C@_08OBIAEFPP@Outbreak?$AA@ 10097874     Hooks.obj
 0002:00003880       ??_C@_0BC@OAEHEGHA@Jungle?5Slipstream?$AA@ 10097880     Hooks.obj
 0002:00003894       ??_C@_0P@IHGEAONB@Death?5by?5Kitty?$AA@ 10097894     Hooks.obj
 0002:000038a4       ??_C@_0BA@DDPOBJDM@Fallout?5Warning?$AA@ 100978a4     Hooks.obj
 0002:000038b4       ??_C@_0P@NPFKAJJB@Emerald?5Dragon?$AA@ 100978b4     Hooks.obj
 0002:000038c4       ??_C@_08GAFPLAEL@Teardown?$AA@ 100978c4     Hooks.obj
 0002:000038d0       ??_C@_0L@IACHMHBN@Blind?5Spot?$AA@ 100978d0     Hooks.obj
 0002:000038dc       ??_C@_06HJMFFBFN@Trigon?$AA@ 100978dc     Hooks.obj
 0002:000038e4       ??_C@_0P@OCNIGEHA@Desert?5Warfare?$AA@ 100978e4     Hooks.obj
 0002:000038f4       ??_C@_06NHPJKFDC@Module?$AA@ 100978f4     Hooks.obj
 0002:000038fc       ??_C@_0M@NEPPDHBJ@Elite?5Build?$AA@ 100978fc     Hooks.obj
 0002:00003908       ??_C@_09GLFAJOKN@Shapewood?$AA@ 10097908     Hooks.obj
 0002:00003914       ??_C@_0O@LDONNMFG@Shallow?5Grave?$AA@ 10097914     Hooks.obj
 0002:00003924       ??_C@_05JCBJINHF@Blaze?$AA@ 10097924     Hooks.obj
 0002:0000392c       ??_C@_0BF@KNHBCLKE@Minotaur?8s?5Labyrinth?$AA@ 1009792c     Hooks.obj
 0002:00003944       ??_C@_04DFPIBMCP@Riot?$AA@ 10097944     Hooks.obj
 0002:0000394c       ??_C@_0N@NBGDKGAG@Primal?5Saber?$AA@ 1009794c     Hooks.obj
 0002:0000395c       ??_C@_0O@HGAJGILG@Dragon?5Tattoo?$AA@ 1009795c     Hooks.obj
 0002:0000396c       ??_C@_0BA@EHONPBGP@Twilight?5Galaxy?$AA@ 1009796c     Hooks.obj
 0002:0000397c       ??_C@_0BA@NJEGAHAD@Water?5Elemental?$AA@ 1009797c     Hooks.obj
 0002:0000398c       ??_C@_09OAHIPAJ@Off?5World?$AA@ 1009798c     Hooks.obj
 0002:00003998       ??_C@_08IPOIFNFJ@Neo?9Noir?$AA@ 10097998     Hooks.obj
 0002:000039a4       ??_C@_05MNPKCHPH@Orion?$AA@ 100979a4     Hooks.obj
 0002:000039ac       ??_C@_0P@NAFNMAAC@Kill?5Confirmed?$AA@ 100979ac     Hooks.obj
 0002:000039bc       ??_C@_0L@MJLDIDNI@Overgrowth?$AA@ 100979bc     Hooks.obj
 0002:000039c8       ??_C@_06DLNNEOEG@Caiman?$AA@ 100979c8     Hooks.obj
 0002:000039d0       ??_C@_05NGKKALHO@Serum?$AA@ 100979d0     Hooks.obj
 0002:000039d8       ??_C@_08LEGJHPMK@Guardian?$AA@ 100979d8     Hooks.obj
 0002:000039e4       ??_C@_09HMIAHJAH@Road?5Rash?$AA@ 100979e4     Hooks.obj
 0002:000039f0       ??_C@_0P@JDJJCOEH@Kumicho?5Dragon?$AA@ 100979f0     Hooks.obj
 0002:00003a00       ??_C@_0M@CFNDBJNP@Oxide?5Blaze?$AA@ 10097a00     Hooks.obj
 0002:00003a0c       ??_C@_0P@HJBNOAPI@Nuclear?5Threat?$AA@ 10097a0c     Hooks.obj
 0002:00003a1c       ??_C@_0L@EGJMEOFH@Red?5Quartz?$AA@ 10097a1c     Hooks.obj
 0002:00003a28       ??_C@_0O@BBDNFEFG@Blue?5Titanium?$AA@ 10097a28     Hooks.obj
 0002:00003a38       ??_C@_0N@FBCLANHN@Titanium?5Bit?$AA@ 10097a38     Hooks.obj
 0002:00003a48       ??_C@_09NKFBJCLL@Sandstorm?$AA@ 10097a48     Hooks.obj
 0002:00003a54       ??_C@_05FMEHJGPC@Isaac?$AA@ 10097a54     Hooks.obj
 0002:00003a5c       ??_C@_05GFBNLEJJ@Toxic?$AA@ 10097a5c     Hooks.obj
 0002:00003a64       ??_C@_08EHHBGPJL@Re?9Entry?$AA@ 10097a64     Hooks.obj
 0002:00003a70       ??_C@_07BMJNCCBA@Handgun?$AA@ 10097a70     Hooks.obj
 0002:00003a78       ??_C@_0L@BADILEEI@Ocean?5Foam?$AA@ 10097a78     Hooks.obj
 0002:00003a84       ??_C@_0P@KEPGKGOC@Fire?5Elemental?$AA@ 10097a84     Hooks.obj
 0002:00003a94       ??_C@_08MPBHMBKF@Asterion?$AA@ 10097a94     Hooks.obj
 0002:00003aa0       ??_C@_0L@HKGMEJCE@Pathfinder?$AA@ 10097aa0     Hooks.obj
 0002:00003aac       ??_C@_08KJKIDDCA@Whiteout?$AA@ 10097aac     Hooks.obj
 0002:00003ab8       ??_C@_0P@CGPHMODB@Crimson?5Kimono?$AA@ 10097ab8     Hooks.obj
 0002:00003ac8       ??_C@_0M@FBFEFJIF@Mint?5Kimono?$AA@ 10097ac8     Hooks.obj
 0002:00003ad4       ??_C@_09LCFIKCIL@Wing?5Shot?$AA@ 10097ad4     Hooks.obj
 0002:00003ae0       ??_C@_0N@PMGJBPHK@See?5Ya?5Later?$AA@ 10097ae0     Hooks.obj
 0002:00003af0       ??_C@_0M@DILFIJLB@PerfectHook?$AA@ 10097af0     Hooks.obj
 0002:00003afc       ??_C@_06DPAFHCJC@AimTux?$AA@ 10097afc     Hooks.obj
 0002:00003b04       ??_C@_07CDLLFOFC@EzFrags?$AA@ 10097b04     Hooks.obj
 0002:00003b0c       ??_C@_01GFHCPBMG@C?$AA@    10097b0c     Hooks.obj
 0002:00003b14       ??_7exception@std@@6B@     10097b14     Hooks.obj
 0002:00003b1c       ??_C@_0BC@EOODALEL@Unknown?5exception?$AA@ 10097b1c     Hooks.obj
 0002:00003b34       ??_7runtime_error@std@@6B@ 10097b34     Hooks.obj
 0002:00003b3c       ??_C@_0BG@HGEDEDEC@invalid?5stoi?5argument?$AA@ 10097b3c     Hooks.obj
 0002:00003b54       ??_C@_0BL@MFFNMGGC@stoi?5argument?5out?5of?5range?$AA@ 10097b54     Hooks.obj
 0002:00003b70       ??_C@_0BK@MLNPCNP@Failed?5to?5protect?5region?4?$AA@ 10097b70     Hooks.obj
 0002:00003b8c       ??_C@_0M@LGBCIIFJ@DT_CSPlayer?$AA@ 10097b8c     Hooks.obj
 0002:00003b9c       ??_7IGameEventListener2@@6B@ 10097b9c     Hooks.obj
 0002:00003ba8       ??_C@_04MEMAJGDJ@name?$AA@ 10097ba8     Hooks.obj
 0002:00003bb0       ??_C@_0L@EMPDFJNI@engine?4dll?$AA@ 10097bb0     Hooks.obj
 0002:00003bbc       ??_C@_0P@MPIICOFE@xxxxx?$DP?$DP?$DP?$DPx?$DP?$DP?$DP?$DP?$AA@ 10097bbc     Hooks.obj
 0002:00003bcc       ??_C@_0P@FDDMDPMC@U?$IL?l?$IL?$AN?$AA?$AA?$AA?$AAh?$AA?$AA?$AA?$AA?$AA@ 10097bcc     Hooks.obj
 0002:00003bdc       ??_C@_0N@EFFAIECH@xxxxxxxxxxxx?$AA@ 10097bdc     Hooks.obj
 0002:00003bec       ??_C@_0N@JAMEBLDM@U?$IL?l?$ID?d?xQSVW?$IL?q?$AA@ 10097bec     Hooks.obj
 0002:00003bfc       ??_C@_08DKPNAJBK@deadflag?$AA@ 10097bfc     Hooks.obj
 0002:00003c08       ??_C@_0DD@EPPJPOIK@models?1inventory_items?1trophy_ma@ 10097c08     Hooks.obj
 0002:00003c3c       ??_C@_0CK@DEKDOHFO@models?1inventory_items?1trophy_ma@ 10097c3c     Hooks.obj
 0002:00003c68       ??_C@_0CC@LJEMJIIE@models?1player?1ct_fbi?1ct_fbi_glas@ 10097c68     Hooks.obj
 0002:00003c8c       ??_C@_0CL@MEIJJFOK@models?1inventory_items?1trophy_ma@ 10097c8c     Hooks.obj
 0002:00003cb8       ??_C@_0DC@NNCNIHHH@models?1inventory_items?1trophy_ma@ 10097cb8     Hooks.obj
 0002:00003cec       ??_C@_0O@GGLKMMGG@models?1player?$AA@ 10097cec     Hooks.obj
 0002:00003cfc       ??_C@_07MPKOOCMG@HudZoom?$AA@ 10097cfc     Hooks.obj
 0002:00003d04       ??_C@_0BC@IDAMOACC@FocusOverlayPanel?$AA@ 10097d04     Hooks.obj
 0002:00003d18       ??_C@_0BA@EAHDCAHA@xxxxxxxx?$DP?$DP?$DP?$DPxxx?$AA@ 10097d18     Hooks.obj
 0002:00003d28       ??_C@_0BA@PMEIOKGL@U?$IL?l?$ID?l?$AI?$IL?$BF?$AA?$AA?$AA?$AA?$APW?$MA?$AA@ 10097d28     Hooks.obj
 0002:00003d38       ??_C@_0BC@HLCHJLHC@m_flFlashDuration?$AA@ 10097d38     Hooks.obj
 0002:00003d4c       ??_C@_0BC@HDPPIGJM@m_flFlashMaxAlpha?$AA@ 10097d4c     Hooks.obj
 0002:00003d60       ??_C@_0BA@MMOBDEB@Shots?5Fired?3?5?$CFi?$AA@ 10097d60     Hooks.obj
 0002:00003d70       ??_C@_0O@NFPPCGJE@Tick?5Base?3?5?$CFf?$AA@ 10097d70     Hooks.obj
 0002:00003d80       ??_C@_03BHBOHINF@LBY?$AA@  10097d80     Hooks.obj
 0002:00003d84       ??_C@_08MANLKGDL@attacker?$AA@ 10097d84     Hooks.obj
 0002:00003d90       ??_C@_06GEPNGEJI@weapon?$AA@ 10097d90     Hooks.obj
 0002:00003d98       ??_C@_0BM@BIJNHELD@C?3?2Windows?2Fonts?2Tahoma?4ttf?$AA@ 10097d98     Hooks.obj
 0002:00003db4       ??_C@_0BN@MEGKGECK@C?3?2Windows?2Fonts?2auifont?4ttf?$AA@ 10097db4     Hooks.obj
 0002:00003dd8       ??_7item_purchase_listener@item_purchase@@6B@ 10097dd8     Hooks.obj
 0002:00003de4       ??_C@_0O@JAENPIHH@item_purchase?$AA@ 10097de4     Hooks.obj
 0002:00003df4       ??_C@_0M@GPCKBPEK@player_hurt?$AA@ 10097df4     Hooks.obj
 0002:00003e00       ??_C@_09ENFKIOHO@Event?5Log?$AA@ 10097e00     Hooks.obj
 0002:00003e0c       ??_C@_06IHAGGOEE@userid?$AA@ 10097e0c     Hooks.obj
 0002:00003e14       ??_C@_04MLBBKNLG@nade?$AA@ 10097e14     Hooks.obj
 0002:00003e1c       ??_C@_06OAGFEBMA@kevlar?$AA@ 10097e1c     Hooks.obj
 0002:00003e24       ??_C@_04NHBLIOAO@suit?$AA@ 10097e24     Hooks.obj
 0002:00003e2c       ??_C@_05LEFLIPJH@flash?$AA@ 10097e2c     Hooks.obj
 0002:00003e34       ??_C@_04FOFDHAEH@vest?$AA@ 10097e34     Hooks.obj
 0002:00003e3c       ??_C@_06DIDIIJPA@cutter?$AA@ 10097e3c     Hooks.obj
 0002:00003e44       ??_C@_06EBPNENDG@defuse?$AA@ 10097e44     Hooks.obj
 0002:00003e4c       ??_C@_07MDJDKHIJ@weapon_?$AA@ 10097e4c     Hooks.obj
 0002:00003e54       ??_C@_0BH@HHIODPOL@?$FLTeam?$FN?5?$CFs?5bought?5a?5?$CFs?6?$AA@ 10097e54     Hooks.obj
 0002:00003e6c       ??_C@_0BI@GCNEKIA@?$FLEnemy?$FN?5?$CFs?5bought?5a?5?$CFs?6?$AA@ 10097e6c     Hooks.obj
 0002:00003e84       ??_C@_08KBGNDPBA@hitgroup?$AA@ 10097e84     Hooks.obj
 0002:00003e90       ??_C@_0L@CPHGICGA@dmg_health?$AA@ 10097e90     Hooks.obj
 0002:00003e9c       ??_C@_0BH@PGEALEOE@?$FLDmg?$FN?5?$CFs?5did?5?$CFi?5to?5?$CFs?6?$AA@ 10097e9c     Hooks.obj
 0002:00003eb4       ??_C@_0BC@GLPEDPCN@x?$DP?$DP?$DP?$DPx?$DP?$DP?$DP?$DPxxxxxxx?$AA@ 10097eb4     Hooks.obj
 0002:00003ec8       ??_C@_0BC@GDECIDIO@?$KB?$AA?$AA?$AA?$AA?$LJ?$AA?$AA?$AA?$AAV?$PPP?$BE?$IL4?$IF?$AA@ 10097ec8     Hooks.obj
 0002:00003edc       ??_C@_09BEBKICJB@?$CD?$CDtabarea?$AA@ 10097edc     Hooks.obj
 0002:00003ee8       ??_C@_07HJOAIFBG@RAGEBOT?$AA@ 10097ee8     Hooks.obj
 0002:00003ef0       ??_C@_08LAEJGMII@LEGITBOT?$AA@ 10097ef0     Hooks.obj
 0002:00003efc       ??_C@_07GJFAJFPE@VISUALS?$AA@ 10097efc     Hooks.obj
 0002:00003f04       ??_C@_04MKAMAPIC@MISC?$AA@ 10097f04     Hooks.obj
 0002:00003f0c       ??_C@_05OGIKPELH@SKINS?$AA@ 10097f0c     Hooks.obj
 0002:00003f14       ??_C@_06EJKEPOLG@COLORS?$AA@ 10097f14     Hooks.obj
 0002:00003f1c       ??_C@_08HHHHKOCA@?$DM?9?9?5Back?$AA@ 10097f1c     Hooks.obj
 0002:00003f28       ??_C@_09MDDBOGBI@?9?5Ragebot?$AA@ 10097f28     Hooks.obj
 0002:00003f34       ??_C@_0M@JFLJDBJA@first?5child?$AA@ 10097f34     Hooks.obj
 0002:00003f40       ??_C@_0N@IAHDLFBG@second?5child?$AA@ 10097f40     Hooks.obj
 0002:00003f50       ??_C@_04GEFJINEE@?$CF?42f?$AA@ 10097f50     Hooks.obj
 0002:00003f58       ??_C@_0BA@HMEMDOMB@Min?5dmg?5Snipers?$AA@ 10097f58     Hooks.obj
 0002:00003f68       ??_C@_0P@GDCLCDPD@Min?5dmg?5Rifles?$AA@ 10097f68     Hooks.obj
 0002:00003f78       ??_C@_0BA@BJKMOOIP@Min?5dmg?5Pistols?$AA@ 10097f78     Hooks.obj
 0002:00003f88       ??_C@_0BA@GPDGDKMG@Min?5dmg?5Heavies?$AA@ 10097f88     Hooks.obj
 0002:00003f98       ??_C@_0N@JGPIDGML@Min?5dmg?5SMGs?$AA@ 10097f98     Hooks.obj
 0002:00003fa8       ??_C@_0BG@CFMKDAFG@Min?5dmg?5Revolver?1Deag?$AA@ 10097fa8     Hooks.obj
 0002:00003fc0       ??_C@_0M@JKMCEE@third?5child?$AA@ 10097fc0     Hooks.obj
 0002:00003fcc       ??_C@_04GGBPDDBN@?$CF?41f?$AA@ 10097fcc     Hooks.obj
 0002:00003fd4       ??_C@_07BDELMMGM@Snipers?$AA@ 10097fd4     Hooks.obj
 0002:00003fdc       ??_C@_06NEKOGPCF@Rifles?$AA@ 10097fdc     Hooks.obj
 0002:00003fe4       ??_C@_07HGKLBMCC@Pistols?$AA@ 10097fe4     Hooks.obj
 0002:00003fec       ??_C@_0N@DJDOJBMO@fourth?5child?$AA@ 10097fec     Hooks.obj
 0002:00003ffc       ??_C@_04HJBPJAJJ@?$CF1?4f?$AA@ 10097ffc     Hooks.obj
 0002:00004004       ??_C@_06CKGENIKG@Enable?$AA@ 10098004     Hooks.obj
 0002:0000400c       ??_C@_07LEDNPKJF@Antiaim?$AA@ 1009800c     Hooks.obj
 0002:00004014       ??_C@_0L@MCMPLEEO@?9?5Legitbot?$AA@ 10098014     Hooks.obj
 0002:00004020       ??_C@_09NDIBPGPK@?9?5Visuals?$AA@ 10098020     Hooks.obj
 0002:0000402c       ??_C@_05DBOPBJKC@?$CD?$CDESP?$AA@ 1009802c     Hooks.obj
 0002:00004034       ??_C@_08FMJCFLHE@?$CD?$CDEdddSP?$AA@ 10098034     Hooks.obj
 0002:00004040       ??_C@_0BE@LNNBFKNG@Full?$AA?$ANCorners?$AA?$AN3D?$AA?$AA?$AA@ 10098040     Hooks.obj
 0002:00004054       ??_C@_08NNGILAGK@?$CD?$CDboxkek?$AA@ 10098054     Hooks.obj
 0002:00004060       ??_C@_0N@KMPECICJ@Name?$AA?$ANIcon?$AA?$AA?$AA@ 10098060     Hooks.obj
 0002:00004070       ??_C@_08PFKONBGP@?$CD?$CDwpnkek?$AA@ 10098070     Hooks.obj
 0002:0000407c       ??_C@_06NPAAKFED@Player?$AA@ 1009807c     Hooks.obj
 0002:00004084       ??_C@_05GKEAAALJ@Drops?$AA@ 10098084     Hooks.obj
 0002:0000408c       ??_C@_06GEOJPENC@?$CD?$CDglow?$AA@ 1009808c     Hooks.obj
 0002:00004094       ??_C@_0L@PKJEPIAP@?$CD?$CDteamglow?$AA@ 10098094     Hooks.obj
 0002:000040a0       ??_C@_0P@FCNMLGAA@Player?5?$CD?$CDchams?$AA@ 100980a0     Hooks.obj
 0002:000040b0       ??_C@_05JJFBEBFJ@Hands?$AA@ 100980b0     Hooks.obj
 0002:000040b8       ??_C@_07JNNAHBNN@?$CD?$CD45ESP?$AA@ 100980b8     Hooks.obj
 0002:000040c0       ??_C@_08EHFNMEEI@?$CD?$CDE772SP?$AA@ 100980c0     Hooks.obj
 0002:000040cc       ??_C@_07BCJAIEHN@?$CD?$CD43ESP?$AA@ 100980cc     Hooks.obj
 0002:000040d8       ??_C@_0ED@DEOHNDBD@Normal?$AA?$ANFlat?$AA?$ANWireframe?$AA?$ANGlass?$AA?$AN@ 100980d8     Hooks.obj
 0002:0000411c       ??_C@_06JDBIHHFN@?$CD?$CDsdgl?$AA@ 1009811c     Hooks.obj
 0002:00004124       ??_C@_0M@ECKIOABL@?$CD?$CDEasd445SP?$AA@ 10098124     Hooks.obj
 0002:00004130       ??_C@_07NDBEDCIM@?$CD?$CDsdgl1?$AA@ 10098130     Hooks.obj
 0002:00004138       ??_C@_08OJPMLMLE@?$CD?$CDES234P?$AA@ 10098138     Hooks.obj
 0002:00004144       ??_C@_07PIDJGBEP@?$CD?$CDsdgl2?$AA@ 10098144     Hooks.obj
 0002:0000414c       ??_C@_06DFHPLHPH@?9?5Misc?$AA@ 1009814c     Hooks.obj
 0002:00004154       ??_C@_0P@EIOINLOD@Anti?9Untrusted?$AA@ 10098154     Hooks.obj
 0002:00004164       ??_C@_06LLCHJONG@Config?$AA@ 10098164     Hooks.obj
 0002:0000416c       ??_C@_04PBAHLACE@File?$AA@ 1009816c     Hooks.obj
 0002:00004174       ??_C@_0M@JDPEBFKB@Save?5Config?$AA@ 10098174     Hooks.obj
 0002:00004180       ??_C@_0M@GNAHMCPI@Load?5Config?$AA@ 10098180     Hooks.obj
 0002:0000418c       ??_C@_07BDIHLNGG@Clantag?$AA@ 1009818c     Hooks.obj
 0002:00004194       ??_C@_0O@KALILFCM@Clantag?5speed?$AA@ 10098194     Hooks.obj
 0002:000041a4       ??_C@_0O@FJHFHDGJ@Speed1?$AASpeed2?$AA@ 100981a4     Hooks.obj
 0002:000041b4       ??_C@_07OGAJLMLC@?$CD?$CDcombo?$AA@ 100981b4     Hooks.obj
 0002:000041bc       ??_C@_0BB@LJBMMFFO@cl_mouseenable?51?$AA@ 100981bc     Hooks.obj
 0002:000041d0       ??_C@_03LGOGDKEL@?5?$HM?5?$AA@ 100981d0     Hooks.obj
 0002:000041d4       ??_C@_08PKGPFBOH@?$CD?$CDKNIVES?$AA@ 100981d4     Hooks.obj
 0002:000041e0       ??_C@_0CI@FIFCAFFN@Charred?$AA?$ANSnakebite?$AA?$ANBronzed?$AA?$ANGue@ 100981e0     Hooks.obj
 0002:00004208       ??_C@_0DB@PHEPENMB@Hedge?5Maze?$AA?$ANPandoras?5Box?$AA?$ANSuperc@ 10098208     Hooks.obj
 0002:0000423c       ??_C@_0DC@NCMBPJJI@Lunar?5Weave?$AA?$ANConvoy?$AA?$ANCrimson?5Wea@ 1009823c     Hooks.obj
 0002:00004270       ??_C@_0CN@HEKKAIGK@Leather?$AA?$ANSpruce?5DDPAT?$AA?$ANSlaughter@ 10098270     Hooks.obj
 0002:000042a0       ??_C@_0CH@DKMAENOA@Eclipse?$AA?$ANSpearmint?$AA?$ANBoom?$CB?$AA?$ANCool?5@ 100982a0     Hooks.obj
 0002:000042c8       ??_C@_0DI@KNDBNANO@Forest?5DDPAT?$AA?$ANCrimson?5Kimono?$AA?$ANEm@ 100982c8     Hooks.obj
 0002:00004300       ??_C@_03PKPBNCAL@?o?$LL?$LP?$AA@ 10098300     Hooks.obj
 0002:00004304       ??_C@_02DEBJNODD@?$PP?$PO?$AA@ 10098304     Hooks.obj
 0002:00004308       ??_C@_02CMMAIFEF@?$PO?$PP?$AA@ 10098308     Hooks.obj
 0002:0000430c       ??_C@_04JFAAKOPK@?$PP?$PO?$AA?$AA?$AA@ 1009830c     Hooks.obj
 0002:00004314       ??_C@_04BFKDKLEK@?$AA?$AA?$PO?$PP?$AA@ 10098314     Hooks.obj
 0002:0000431c       ??_C@_02JDPG@rb?$AA@       1009831c     Hooks.obj
 0002:00004320       ??_C@_0CE@JCEOECKP@?4?2csgo?2scripts?2items?2items_game?4@ 10098320     Hooks.obj
 0002:00004344       ??_C@_0CB@OHPFOPGN@?4?2csgo?2resource?2csgo_english?4txt@ 10098344     Hooks.obj
 0002:00004368       ??_C@_0N@KHLPAJDO@weapon_icons?$AA@ 10098368     Hooks.obj
 0002:00004378       ??_C@_0L@HLAHKMKO@paint_kits?$AA@ 10098378     Hooks.obj
 0002:00004384       ??_C@_06OIOKNNNI@Tokens?$AA@ 10098384     Hooks.obj
 0002:0000438c       ??_C@_09PPGHGLFF@icon_path?$AA@ 1009838c     Hooks.obj
 0002:00004398       ??_C@_0BA@KPEHNEEL@description_tag?$AA@ 10098398     Hooks.obj
 0002:000043a8       ??_C@_04MENKDCKE@seed?$AA@ 100983a8     Hooks.obj
 0002:000043b0       ??_C@_08DFOEJFON@paintkit?$AA@ 100983b0     Hooks.obj
 0002:000043bc       ??_C@_03FJEPELFP@tag?$AA@  100983bc     Hooks.obj
 0002:000043c0       ??_C@_08NGFNFJHL@Valve001?$AA@ 100983c0     Hooks.obj
 0002:000043cc       ??_C@_0BB@KAAHPEBP@cl_mouseenable?50?$AA@ 100983cc     Hooks.obj
 0002:000043e0       ??_C@_0BP@NLIKMDDD@UI?1competitive_accept_beep?4wav?$AA@ 100983e0     Hooks.obj
 0002:00004400       ??_C@_0DF@JCNCBEEG@55?58B?5EC?583?5E4?5F8?583?5EC?508?556?58B@ 10098400     Hooks.obj
 0002:00004438       ??_C@_0P@IIPEELKE@Other?5textures?$AA@ 10098438     Hooks.obj
 0002:00004448       ??_C@_0P@GADCLAFB@dev?1glow_color?$AA@ 10098448     Hooks.obj
 0002:00004458       ??_C@_07PEBMJIBN@CWeapon?$AA@ 10098458     Hooks.obj
 0002:00004460       ??_C@_09NFOPKLIK@sv_cheats?$AA@ 10098460     Hooks.obj
 0002:0000446c       ??_C@_0CA@HBEHKNAA@FF?515?5?$DP?5?$DP?5?$DP?5?$DP?58B?5F8?585?5DB?574?51F?$AA@ 1009846c     Hooks.obj
 0002:0000448c       ??_C@_1DA@GNNHHLNF@?$AAg?$AAa?$AAm?$AAe?$AAo?$AAv?$AAe?$AAr?$AAl?$AAa?$AAy?$AAr?$AAe?$AAn?$AAd?$AAe?$AAr?$AAe?$AAr?$AA?4?$AAd?$AAl?$AAl?$AA?$AA@ 1009848c     Hooks.obj
 0002:000044bc       ??_C@_0CA@KPLHDCAF@FF?515?5?$DP?5?$DP?5?$DP?5?$DP?58B?5F8?585?5FF?578?518?$AA@ 100984bc     Hooks.obj
 0002:000044dc       ??_C@_0BG@BBKNOMOH@invalid?5map?$DMK?0?5T?$DO?5key?$AA@ 100984dc     Hooks.obj
 0002:000044f4       ??_C@_0BC@KBDMBKEH@deque?$DMT?$DO?5too?5long?$AA@ 100984f4     Hooks.obj
 0002:0000450c       ??_7?$_Ref_count_obj@VNode@valve_parser@@@std@@6B@ 1009850c     Hooks.obj
 0002:0000451c       ??_C@_0BB@MOGOBHAF@list?$DMT?$DO?5too?5long?$AA@ 1009851c     Hooks.obj
 0002:00004530       __real@3c8efa35            10098530     Hooks.obj
 0002:00004534       __real@3e6147ae            10098534     Hooks.obj
 0002:00004538       __real@3f8ccccd            10098538     Hooks.obj
 0002:00004540       __real@3fdccccccccccccd    10098540     Hooks.obj
 0002:00004548       __real@3fe0000000000000    10098548     Hooks.obj
 0002:00004550       __real@3ff199999999999a    10098550     Hooks.obj
 0002:00004558       __real@400921fb54442d18    10098558     Hooks.obj
 0002:00004560       __real@4066800000000000    10098560     Hooks.obj
 0002:00004568       __real@41f00000            10098568     Hooks.obj
 0002:0000456c       __real@42100000            1009856c     Hooks.obj
 0002:00004570       __real@42652ee0            10098570     Hooks.obj
 0002:00004574       __real@42b20000            10098574     Hooks.obj
 0002:00004578       __real@43340000            10098578     Hooks.obj
 0002:0000457c       __real@43e10000            1009857c     Hooks.obj
 0002:00004580       __real@c2b20000            10098580     Hooks.obj
 0002:00004584       __real@c3340000            10098584     Hooks.obj
 0002:00004588       __real@c3e10000            10098588     Hooks.obj
 0002:00004590       __xmm@000801000b0913010d324409050c2764 10098590     Hooks.obj
 0002:000045a0       __xmm@00504a15171e11225002150404193a70 100985a0     Hooks.obj
 0002:000045b0       __xmm@005b5d7059575d7a1c59505e5d52793c 100985b0     Hooks.obj
 0002:000045c0       __xmm@050a0d08430d0c430e0a220a170d2263 100985c0     Hooks.obj
 0002:000045d0       __xmm@0815365c101d192e5c19101e1d12397c 100985d0     Hooks.obj
 0002:000045e0       __xmm@0b040f4a1e04050e4a0f190b0f063a6a 100985e0     Hooks.obj
 0002:000045f0       __xmm@170a0b1405013344000114140b162064 100985f0     Hooks.obj
 0002:00004600       __xmm@18081f1d1d13082e5a1f16181b143f7a 10098600     Hooks.obj
 0002:00004610       __xmm@180f0e06031f284a021e05084a0f0608 10098610     Hooks.obj
 0002:00004620       __xmm@192b2b4a1e0f19470f183a4a0e040b4a 10098620     Hooks.obj
 0002:00004630       __xmm@1f02190c0e040903244d01010c1a2c6d 10098630     Hooks.obj
 0002:00004640       __xmm@213c3d223337252037263e3b34515172 10098640     Hooks.obj
 0002:00004650       __xmm@25381b71343a301771343d33303f1451 10098650     Hooks.obj
 0002:00004660       __xmm@262e2c3f39262e2c0f6d39242a28014d 10098660     Hooks.obj
 0002:00004670       __xmm@2a306f6d646b582a786f7e7e63404c0a 10098670     Hooks.obj
 0002:00004680       __xmm@2c39280f656d2a22016d3923283b084d 10098680     Hooks.obj
 0002:00004690       __xmm@313f3c33187d383e333c353e2934155d 10098690     Hooks.obj
 0002:000046a0       __xmm@363f31323d16733e3a127e3a273d1253 100986a0     Hooks.obj
 0002:000046b0       __xmm@3e4ccccd3f0080813ea4a4a53d109091 100986b0     Hooks.obj
 0002:000046c0       __xmm@3eb333333e4ccccd3e4ccccd3e4ccccd 100986c0     Hooks.obj
 0002:000046d0       __xmm@3edc28f63f0080813ea4a4a53d109091 100986d0     Hooks.obj
 0002:000046e0       __xmm@3f47ae143f0080813ea4a4a53d109091 100986e0     Hooks.obj
 0002:000046f0       __xmm@3f6b851f3f0080813ea4a4a53d109091 100986f0     Hooks.obj
 0002:00004700       __xmm@3f7333333dcccccd3dcccccd3dcccccd 10098700     Hooks.obj
 0002:00004710       __xmm@3f7333333de147ae3de147ae3de147ae 10098710     Hooks.obj
 0002:00004720       __xmm@3f7851ec3f8000003f31b1b23f028283 10098720     Hooks.obj
 0002:00004730       __xmm@3f7d70a43dcccccd3dcccccd3dcccccd 10098730     Hooks.obj
 0002:00004740       __xmm@3f8000003db851ec3db851ec3db851ec 10098740     Hooks.obj
 0002:00004750       __xmm@3f8000003de147ae3de147ae3de147ae 10098750     Hooks.obj
 0002:00004760       __xmm@3f8000003df5c28f3df5c28f3df5c28f 10098760     Hooks.obj
 0002:00004770       __xmm@3f8000003e051eb83e051eb83e051eb8 10098770     Hooks.obj
 0002:00004780       __xmm@3f8000003e19999a3e19999a3e19999a 10098780     Hooks.obj
 0002:00004790       __xmm@3f8000003e8a3d713e8a3d713e8a3d71 10098790     Hooks.obj
 0002:000047a0       __xmm@3f8000003e99999a3e99999a3e99999a 100987a0     Hooks.obj
 0002:000047b0       __xmm@3f8000003f0080813ea4a4a53d109091 100987b0     Hooks.obj
 0002:000047c0       __xmm@3f8000003f7ae1483f7ae1483f7ae148 100987c0     Hooks.obj
 0002:000047d0       __xmm@3f8000003f8000003f31b1b23f028283 100987d0     Hooks.obj
 0002:000047e0       __xmm@41f00000000000000000000000000000 100987e0     Hooks.obj
 0002:000047f0       __xmm@47505a57564163135657525d56417433 100987f0     Hooks.obj
 0002:00004800       __xmm@47564443024741504d44475657506022 10098800     Hooks.obj
 0002:00004810       __xmm@595e5847496c0d43424459445e427d2d 10098810     Hooks.obj
 0002:00004820       __xmm@5d5b5f7e1a151a485f4c56554c5f683a 10098820     Hooks.obj
 0002:00004830       __xmm@6c272d3e18382d381f6c292a2522074c 10098830     Hooks.obj
 0002:00004b38       ??_C@_09GBFFKCDJ@?$CD?$CDOverlay?$AA@ 10098b38     imgui.obj
 0002:00004b44       ??_C@_09BJIHMJFE@imgui?4ini?$AA@ 10098b44     imgui.obj
 0002:00004b50       ??_C@_0O@HCOAADPE@imgui_log?4txt?$AA@ 10098b50     imgui.obj
 0002:00004b60       ??_C@_05EJCOBEBF@?$CDMOVE?$AA@ 10098b60     imgui.obj
 0002:00004b68       ??_C@_05GCIPIGEI@Debug?$AA@ 10098b68     imgui.obj
 0002:00004b70       ??_C@_04EBNJJJJI@?$CF?4?$CKs?$AA@ 10098b70     imgui.obj
 0002:00004b78       ??_C@_09GLAGEDJB@Pos?$DN?$CFf?0?$CFf?$AA@ 10098b78     imgui.obj
 0002:00004b84       ??_C@_0L@MKDCLHEO@Size?$DN?$CFf?0?$CFf?$AA@ 10098b84     imgui.obj
 0002:00004b90       ??_C@_0N@IAKNMBB@Collapsed?$DN?$CFd?$AA@ 10098b90     imgui.obj
 0002:00004ba0       ??_C@_02BKFDOEMK@wt?$AA@   10098ba0     imgui.obj
 0002:00004ba4       ??_C@_03OIJOKPOL@?$CD?$CD?$CD?$AA@ 10098ba4     imgui.obj
 0002:00004ba8       ??_C@_05MGFEFMAH@?$FL?$CFs?$FN?6?$AA@ 10098ba8     imgui.obj
 0002:00004bb0       ??_C@_0L@DDMADIHO@Pos?$DN?$CFd?0?$CFd?6?$AA@ 10098bb0     imgui.obj
 0002:00004bbc       ??_C@_0M@CFANMDMP@Size?$DN?$CFd?0?$CFd?6?$AA@ 10098bbc     imgui.obj
 0002:00004bc8       ??_C@_0O@JAFHMCKE@Collapsed?$DN?$CFd?6?$AA@ 10098bc8     imgui.obj
 0002:00004bd8       ??_C@_01EEMJAFIK@?6?$AA@   10098bd8     imgui.obj
 0002:00004bdc       ??_C@_09FDEMHCFC@?$AN?6?$CF?$CKs?$CF?4?$CKs?$AA@ 10098bdc     imgui.obj
 0002:00004be8       ??_C@_05DBJFMKBA@?5?$CF?4?$CKs?$AA@ 10098be8     imgui.obj
 0002:00004bf0       ??_C@_07HLBIICCF@?$CD?$CDmenus?$AA@ 10098bf0     imgui.obj
 0002:00004bf8       ??_C@_09DOLGHDNN@?$CD?$CDmenu_?$CFd?$AA@ 10098bf8     imgui.obj
 0002:00004c04       ??_C@_0N@HOGJLDGL@?$CD?$CDpopup_?$CF08x?$AA@ 10098c04     imgui.obj
 0002:00004c14       ??_C@_0L@MEFOPDEP@?$CFs?4?$CFs?4?$CF08X?$AA@ 10098c14     imgui.obj
 0002:00004c20       ??_C@_07GKHNNJPF@?$CFs?4?$CF08X?$AA@ 10098c20     imgui.obj
 0002:00004c28       ??_C@_07HDHBJEOI@?$CDRESIZE?$AA@ 10098c28     imgui.obj
 0002:00004c30       ??_C@_06KIIKKNMI@?$CDCLOSE?$AA@ 10098c30     imgui.obj
 0002:00004c38       ??_C@_0O@DGCNCOIK@?$CDCLOSECOLUMNS?$AA@ 10098c38     imgui.obj
 0002:00004c48       ??_C@_08ENAFOMOP@?$CDSCROLLX?$AA@ 10098c48     imgui.obj
 0002:00004c54       ??_C@_08FEBONNKO@?$CDSCROLLY?$AA@ 10098c54     imgui.obj
 0002:00004c60       ??_C@_07NBCGADJA@Unknown?$AA@ 10098c60     imgui.obj
 0002:00004c68       ??_C@_02PCIJFNDE@?$AN?6?$AA@ 10098c68     imgui.obj
 0002:00004c6c       ??_C@_01PPODPGHN@?$DO?$AA@ 10098c6c     imgui.obj
 0002:00004c70       ??_C@_02DPKJAMEF@?$CFd?$AA@ 10098c70     imgui.obj
 0002:00004c74       ??_C@_04EEFKBNAO@?$CF?4?$CKd?$AA@ 10098c74     imgui.obj
 0002:00004c7c       ??_C@_04HGGMHPIM@?$CF?4?$CKf?$AA@ 10098c7c     imgui.obj
 0002:00004cac       ??_C@_04GFJLOHHD@?$CF?43f?$AA@ 10098cac     imgui.obj
 0002:00004cb4       ??_C@_03KFJJABDB@?$CIx?$CJ?$AA@ 10098cb4     imgui.obj
 0002:00004cb8       ??_C@_03MHDGHODJ@?$CI?5?$CJ?$AA@ 10098cb8     imgui.obj
 0002:00004cbc       ??_C@_01JOAMLHOP@?9?$AA@   10098cbc     imgui.obj
 0002:00004cc0       ??_C@_01MIFGBAGJ@?$CL?$AA@ 10098cc0     imgui.obj
 0002:00004cc4       ??_C@_04JIMNDDED@?$CF08X?$AA@ 10098cc4     imgui.obj
 0002:00004ccc       ??_C@_0P@HFPOEILF@?$CKUnknown?5item?$CK?$AA@ 10098ccc     imgui.obj
 0002:00004cdc       ??_C@_0N@NDJHAEGI@?$CDcolorbutton?$AA@ 10098cdc     imgui.obj
 0002:00004cec       ??_C@_0CD@CFNNKNML@?$AN?6?9?9?9?9?9?9?9?9?9?9?9?9?9?9?9?9?9?9?9?9?9?9?9?9?9?9?9?9?9?9@ 10098cec     imgui.obj
 0002:00004d10       ??_C@_07HIFEPIJN@columns?$AA@ 10098d10     imgui.obj
 0002:00004d18       ??_C@_0L@KCOHFILK@VK_LBUTTON?$AA@ 10098d18     imgui.obj
 0002:00004d24       ??_C@_0L@MLNGHLKD@VK_RBUTTON?$AA@ 10098d24     imgui.obj
 0002:00004d30       ??_C@_09INKGPFMC@VK_CANCEL?$AA@ 10098d30     imgui.obj
 0002:00004d3c       ??_C@_0L@GOENFICE@VK_MBUTTON?$AA@ 10098d3c     imgui.obj
 0002:00004d48       ??_C@_0M@BMGHKJAF@VK_XBUTTON1?$AA@ 10098d48     imgui.obj
 0002:00004d54       ??_C@_0M@DHEKPKMG@VK_XBUTTON2?$AA@ 10098d54     imgui.obj
 0002:00004d60       ??_C@_07NCIKNAFA@VK_BACK?$AA@ 10098d60     imgui.obj
 0002:00004d68       ??_C@_06KDCAMDM@VK_TAB?$AA@ 10098d68     imgui.obj
 0002:00004d70       ??_C@_08PIAECJOM@VK_CLEAR?$AA@ 10098d70     imgui.obj
 0002:00004d7c       ??_C@_09KDODHALJ@VK_RETURN?$AA@ 10098d7c     imgui.obj
 0002:00004d88       ??_C@_08BHJBIDAM@VK_SHIFT?$AA@ 10098d88     imgui.obj
 0002:00004d94       ??_C@_0L@GEFMOENA@VK_CONTROL?$AA@ 10098d94     imgui.obj
 0002:00004da0       ??_C@_07DCBHMFK@VK_MENU?$AA@ 10098da0     imgui.obj
 0002:00004da8       ??_C@_08MPOODJHP@VK_PAUSE?$AA@ 10098da8     imgui.obj
 0002:00004db4       ??_C@_0L@LKDKNNID@VK_CAPITAL?$AA@ 10098db4     imgui.obj
 0002:00004dc0       ??_C@_07CNKNMJPI@VK_KANA?$AA@ 10098dc0     imgui.obj
 0002:00004dc8       ??_C@_08IEAKEKF@VK_JUNJA?$AA@ 10098dc8     imgui.obj
 0002:00004dd4       ??_C@_08GDGJIPPB@VK_FINAL?$AA@ 10098dd4     imgui.obj
 0002:00004de0       ??_C@_08JOKFMMEK@VK_KANJI?$AA@ 10098de0     imgui.obj
 0002:00004dec       ??_C@_09DJNOLFIA@VK_ESCAPE?$AA@ 10098dec     imgui.obj
 0002:00004df8       ??_C@_0L@EFLHHAOM@VK_CONVERT?$AA@ 10098df8     imgui.obj
 0002:00004e04       ??_C@_0O@JCIMAAFP@VK_NONCONVERT?$AA@ 10098e04     imgui.obj
 0002:00004e14       ??_C@_09BCPMCHEP@VK_ACCEPT?$AA@ 10098e14     imgui.obj
 0002:00004e20       ??_C@_0O@FCDOCDG@VK_MODECHANGE?$AA@ 10098e20     imgui.obj
 0002:00004e30       ??_C@_08NHKHJGFL@VK_SPACE?$AA@ 10098e30     imgui.obj
 0002:00004e3c       ??_C@_08OCNOOCII@VK_PRIOR?$AA@ 10098e3c     imgui.obj
 0002:00004e48       ??_C@_07EFDBOIAJ@VK_NEXT?$AA@ 10098e48     imgui.obj
 0002:00004e50       ??_C@_06LPJBNMHN@VK_END?$AA@ 10098e50     imgui.obj
 0002:00004e58       ??_C@_07OMPILPEG@VK_HOME?$AA@ 10098e58     imgui.obj
 0002:00004e60       ??_C@_07CJEJDFBD@VK_LEFT?$AA@ 10098e60     imgui.obj
 0002:00004e68       ??_C@_05PIGLHCBF@VK_UP?$AA@ 10098e68     imgui.obj
 0002:00004e70       ??_C@_08LOMCDCA@VK_RIGHT?$AA@ 10098e70     imgui.obj
 0002:00004e7c       ??_C@_07NLENKNCK@VK_DOWN?$AA@ 10098e7c     imgui.obj
 0002:00004e84       ??_C@_09KINEMDEN@VK_SELECT?$AA@ 10098e84     imgui.obj
 0002:00004e90       ??_C@_08LFEGCPDJ@VK_PRINT?$AA@ 10098e90     imgui.obj
 0002:00004e9c       ??_C@_0L@OECLDLCH@VK_EXECUTE?$AA@ 10098e9c     imgui.obj
 0002:00004ea8       ??_C@_0M@PHCCMJCA@VK_SNAPSHOT?$AA@ 10098ea8     imgui.obj
 0002:00004eb4       ??_C@_09POOJDJBK@VK_INSERT?$AA@ 10098eb4     imgui.obj
 0002:00004ec0       ??_C@_09EABNPHOI@VK_DELETE?$AA@ 10098ec0     imgui.obj
 0002:00004ecc       ??_C@_07LFDCNDAB@VK_HELP?$AA@ 10098ecc     imgui.obj
 0002:00004ed4       ??_C@_07GICIBHOB@VK_LWIN?$AA@ 10098ed4     imgui.obj
 0002:00004edc       ??_C@_07LHPIDOAC@VK_RWIN?$AA@ 10098edc     imgui.obj
 0002:00004ee4       ??_C@_07OBPEBPAK@VK_APPS?$AA@ 10098ee4     imgui.obj
 0002:00004eec       ??_C@_08MOONOBCJ@VK_SLEEP?$AA@ 10098eec     imgui.obj
 0002:00004ef8       ??_C@_0L@ICJAMHIF@VK_NUMPAD0?$AA@ 10098ef8     imgui.obj
 0002:00004f04       ??_C@_0L@JLILPGME@VK_NUMPAD1?$AA@ 10098f04     imgui.obj
 0002:00004f10       ??_C@_0L@LAKGKFAH@VK_NUMPAD2?$AA@ 10098f10     imgui.obj
 0002:00004f1c       ??_C@_0L@KJLNJEEG@VK_NUMPAD3?$AA@ 10098f1c     imgui.obj
 0002:00004f28       ??_C@_0L@OGPMACIB@VK_NUMPAD4?$AA@ 10098f28     imgui.obj
 0002:00004f34       ??_C@_0L@PPOHDDMA@VK_NUMPAD5?$AA@ 10098f34     imgui.obj
 0002:00004f40       ??_C@_0L@NEMKGAAD@VK_NUMPAD6?$AA@ 10098f40     imgui.obj
 0002:00004f4c       ??_C@_0L@MNNBFBEC@VK_NUMPAD7?$AA@ 10098f4c     imgui.obj
 0002:00004f58       ??_C@_0L@EKEJENIN@VK_NUMPAD8?$AA@ 10098f58     imgui.obj
 0002:00004f64       ??_C@_0L@FDFCHMMM@VK_NUMPAD9?$AA@ 10098f64     imgui.obj
 0002:00004f70       ??_C@_0M@EAKCGOCP@VK_MULTIPLY?$AA@ 10098f70     imgui.obj
 0002:00004f7c       ??_C@_06DNGEMOPM@VK_ADD?$AA@ 10098f7c     imgui.obj
 0002:00004f84       ??_C@_0N@BBNOCIBO@VK_SEPARATOR?$AA@ 10098f84     imgui.obj
 0002:00004f94       ??_C@_0M@DFPICDII@VK_SUBTRACT?$AA@ 10098f94     imgui.obj
 0002:00004fa0       ??_C@_0L@OMODJIKJ@VK_DECIMAL?$AA@ 10098fa0     imgui.obj
 0002:00004fac       ??_C@_09ELHPKEHI@VK_DIVIDE?$AA@ 10098fac     imgui.obj
 0002:00004fb8       ??_C@_05JKONDFNK@VK_F1?$AA@ 10098fb8     imgui.obj
 0002:00004fc0       ??_C@_05LBMAGGBJ@VK_F2?$AA@ 10098fc0     imgui.obj
 0002:00004fc8       ??_C@_05KINLFHFI@VK_F3?$AA@ 10098fc8     imgui.obj
 0002:00004fd0       ??_C@_05OHJKMBJP@VK_F4?$AA@ 10098fd0     imgui.obj
 0002:00004fd8       ??_C@_05POIBPANO@VK_F5?$AA@ 10098fd8     imgui.obj
 0002:00004fe0       ??_C@_05NFKMKDBN@VK_F6?$AA@ 10098fe0     imgui.obj
 0002:00004fe8       ??_C@_05MMLHJCFM@VK_F7?$AA@ 10098fe8     imgui.obj
 0002:00004ff0       ??_C@_05ELCPIOJD@VK_F8?$AA@ 10098ff0     imgui.obj
 0002:00004ff8       ??_C@_05FCDELPNC@VK_F9?$AA@ 10098ff8     imgui.obj
 0002:00005000       ??_C@_06LJNKOAAM@VK_F10?$AA@ 10099000     imgui.obj
 0002:00005008       ??_C@_06KAMBNBEN@VK_F11?$AA@ 10099008     imgui.obj
 0002:00005010       ??_C@_06ILOMICIO@VK_F12?$AA@ 10099010     imgui.obj
 0002:00005018       ??_C@_06JCPHLDMP@VK_F13?$AA@ 10099018     imgui.obj
 0002:00005020       ??_C@_06NNLGCFAI@VK_F14?$AA@ 10099020     imgui.obj
 0002:00005028       ??_C@_06MEKNBEEJ@VK_F15?$AA@ 10099028     imgui.obj
 0002:00005030       ??_C@_06OPIAEHIK@VK_F16?$AA@ 10099030     imgui.obj
 0002:00005038       ??_C@_06PGJLHGML@VK_F17?$AA@ 10099038     imgui.obj
 0002:00005040       ??_C@_06HBADGKAE@VK_F18?$AA@ 10099040     imgui.obj
 0002:00005048       ??_C@_06GIBIFLEF@VK_F19?$AA@ 10099048     imgui.obj
 0002:00005050       ??_C@_06LLJMFOFF@VK_F20?$AA@ 10099050     imgui.obj
 0002:00005058       ??_C@_06KCIHGPBE@VK_F21?$AA@ 10099058     imgui.obj
 0002:00005060       ??_C@_06IJKKDMNH@VK_F22?$AA@ 10099060     imgui.obj
 0002:00005068       ??_C@_06JALBANJG@VK_F23?$AA@ 10099068     imgui.obj
 0002:00005070       ??_C@_06NPPAJLFB@VK_F24?$AA@ 10099070     imgui.obj
 0002:00005078       ??_C@_0L@ONLHMIN@VK_NUMLOCK?$AA@ 10099078     imgui.obj
 0002:00005084       ??_C@_09EHKHDGLD@VK_SCROLL?$AA@ 10099084     imgui.obj
 0002:00005090       ??_C@_0BB@GKNKAJKJ@VK_OEM_NEC_EQUAL?$AA@ 10099090     imgui.obj
 0002:000050a4       ??_C@_0BC@BOIHNEME@VK_OEM_FJ_MASSHOU?$AA@ 100990a4     imgui.obj
 0002:000050b8       ??_C@_0BC@FMKLNPFB@VK_OEM_FJ_TOUROKU?$AA@ 100990b8     imgui.obj
 0002:000050cc       ??_C@_0P@KBFJLADM@VK_OEM_FJ_LOYA?$AA@ 100990cc     imgui.obj
 0002:000050dc       ??_C@_0P@HOIJJJNP@VK_OEM_FJ_ROYA?$AA@ 100990dc     imgui.obj
 0002:000050ec       ??_C@_09FFFABFHP@VK_LSHIFT?$AA@ 100990ec     imgui.obj
 0002:000050f8       ??_C@_09GCLBPCOM@VK_RSHIFT?$AA@ 100990f8     imgui.obj
 0002:00005104       ??_C@_0M@HJCCLKFF@VK_LCONTROL?$AA@ 10099104     imgui.obj
 0002:00005110       ??_C@_0M@BNCACDLG@VK_RCONTROL?$AA@ 10099110     imgui.obj
 0002:0000511c       ??_C@_08HACPGDHD@VK_LMENU?$AA@ 1009911c     imgui.obj
 0002:00005128       ??_C@_08EJPDAAJI@VK_RMENU?$AA@ 10099128     imgui.obj
 0002:00005134       ??_C@_0O@LAKLKJLE@?$DMPress?5a?5key?$DO?$AA@ 10099134     imgui.obj
 0002:00005144       __real@1e3ce508            10099144     imgui.obj
 0002:00005148       __real@38d1b717            10099148     imgui.obj
 0002:0000514c       __real@3a83126f            1009914c     imgui.obj
 0002:00005150       __real@3e2aaaab            10099150     imgui.obj
 0002:00005154       __real@3e800000            10099154     imgui.obj
 0002:00005158       __real@3e9d2f1b            10099158     imgui.obj
 0002:0000515c       __real@3ecccccd            1009915c     imgui.obj
 0002:00005160       __real@3f266666            10099160     imgui.obj
 0002:00005164       __real@3f350481            10099164     imgui.obj
 0002:00005168       __real@3f4ccccd            10099168     imgui.obj
 0002:0000516c       __real@3f5db22d            1009916c     imgui.obj
 0002:00005170       __real@3f733333            10099170     imgui.obj
 0002:00005174       __real@3f7fff58            10099174     imgui.obj
 0002:00005178       __real@3f800054            10099178     imgui.obj
 0002:0000517c       __real@3f99999a            1009917c     imgui.obj
 0002:00005180       __real@3faccccd            10099180     imgui.obj
 0002:00005188       __real@3ff0000000000000    10099188     imgui.obj
 0002:00005190       __real@3ff3333340000000    10099190     imgui.obj
 0002:00005198       __real@40200000            10099198     imgui.obj
 0002:000051a0       __real@4024000000000000    100991a0     imgui.obj
 0002:000051a8       __real@40a00000            100991a8     imgui.obj
 0002:000051ac       __real@40c90fdb            100991ac     imgui.obj
 0002:000051b0       __real@40eccccd            100991b0     imgui.obj
 0002:000051b4       __real@41000000            100991b4     imgui.obj
 0002:000051b8       __real@41100000            100991b8     imgui.obj
 0002:000051bc       __real@41800000            100991bc     imgui.obj
 0002:000051c0       __real@42f00000            100991c0     imgui.obj
 0002:000051c4       __real@461c3c00            100991c4     imgui.obj
 0002:000051c8       __real@7f7fffff            100991c8     imgui.obj
 0002:000051cc       __real@beaaaaab            100991cc     imgui.obj
 0002:000051d0       __real@bf000000            100991d0     imgui.obj
 0002:000051d4       __real@bf5db22d            100991d4     imgui.obj
 0002:000051d8       __real@ff7fffff            100991d8     imgui.obj
 0002:000051e0       __xmm@3e4ccccd3f4ccccd3ecccccd3ecccccd 100991e0     imgui.obj
 0002:000051f0       __xmm@3e99999a3f4ccccd3ecccccd3ecccccd 100991f0     imgui.obj
 0002:00005200       __xmm@3e99999a3f4ccccd3f4ccccd3f4ccccd 10099200     imgui.obj
 0002:00005210       __xmm@3e99999a3f8000003f8000003f800000 10099210     imgui.obj
 0002:00005220       __xmm@3eb333333f8000000000000000000000 10099220     imgui.obj
 0002:00005230       __xmm@3ecccccd3f0000003f0000003f4ccccd 10099230     imgui.obj
 0002:00005240       __xmm@3ecccccd3f4ccccd3ecccccd3ecccccd 10099240     imgui.obj
 0002:00005250       __xmm@3ecccccd3f4ccccd3f4ccccd3f666666 10099250     imgui.obj
 0002:00005260       __xmm@3ee666663f2666663f2666663f666666 10099260     imgui.obj
 0002:00005270       __xmm@3ee666663f6666663ecccccd3ecccccd 10099270     imgui.obj
 0002:00005280       __xmm@3f0000003f6666663f0000003f000000 10099280     imgui.obj
 0002:00005290       __xmm@3f0000003f6666663f6666663f666666 10099290     imgui.obj
 0002:000052a0       __xmm@3f19999a3e99999a3e8000003e4ccccd 100992a0     imgui.obj
 0002:000052b0       __xmm@3f19999a3ecccccd3ecccccd3f2b851f 100992b0     imgui.obj
 0002:000052c0       __xmm@3f19999a3f6666663f3333333f333333 100992c0     imgui.obj
 0002:000052d0       __xmm@3f19999a3f8000003f8000003f800000 100992d0     imgui.obj
 0002:000052e0       __xmm@3f2666663f3333333f3333333f333333 100992e0     imgui.obj
 0002:000052f0       __xmm@3f333333000000000000000000000000 100992f0     imgui.obj
 0002:00005300       __xmm@3f4ccccd3f0ccccd3ecccccd3ecccccd 10099300     imgui.obj
 0002:00005310       __xmm@3f4ccccd3f5eb8523f07ae143f07ae14 10099310     imgui.obj
 0002:00005320       __xmm@3f4ccccd3f6666663ee666663ee66666 10099320     imgui.obj
 0002:00005330       __xmm@3f547ae13f0a3d713e8a3d713e8a3d71 10099330     imgui.obj
 0002:00005340       __xmm@3f5eb8523f2147ae3ea3d70a3ea3d70a 10099340     imgui.obj
 0002:00005350       __xmm@3f6666663dcccccd3d4ccccd3d4ccccd 10099350     imgui.obj
 0002:00005360       __xmm@3f6666663f8000003f8000003f800000 10099360     imgui.obj
 0002:00005370       __xmm@3f7d70a43e4ccccd3e4ccccd3e4ccccd 10099370     imgui.obj
 0002:00005380       __xmm@3f800000000000003f19999a3f800000 10099380     imgui.obj
 0002:00005390       __xmm@3f800000000000003f3333333f666666 10099390     imgui.obj
 0002:000053a0       __xmm@3f8000003e99999a3e8000003e4ccccd 100993a0     imgui.obj
 0002:000053b0       __xmm@3f8000003ecccccd3ecccccd3f2b851f 100993b0     imgui.obj
 0002:000053c0       __xmm@3f8000003f0000003f0000003f000000 100993c0     imgui.obj
 0002:000053d0       __xmm@3f8000003f0000003f0000003f4ccccd 100993d0     imgui.obj
 0002:000053e0       __xmm@3f8000003f19999a3f19999a3f19999a 100993e0     imgui.obj
 0002:000053f0       __xmm@3f8000003f19999a3f19999a3f333333 100993f0     imgui.obj
 0002:00005400       __xmm@3f8000003f3333333f3333333f333333 10099400     imgui.obj
 0002:00005410       __xmm@3f8000003f3333333f3333333f666666 10099410     imgui.obj
 0002:00005420       __xmm@3f8000003f6666663f6666663f666666 10099420     imgui.obj
 0002:00005430       __xmm@3f8000003f8000003f30a3d73f000000 10099430     imgui.obj
 0002:00005440       __xmm@7f7fffff7f7fffffff7fffffff7fffff 10099440     imgui.obj
 0002:00005450       __xmm@7fffffff7fffffff7fffffff7fffffff 10099450     imgui.obj
 0002:00005460       __xmm@ff7fffffff7fffff7f7fffff7f7fffff 10099460     imgui.obj
 0002:00005470       __xmm@ffffffffffffffffffffffffffffffff 10099470     imgui.obj
 0002:00008350       ??_C@_04EICJPCEA@cmap?$AA@ 1009c350     imgui_draw.obj
 0002:00008358       ??_C@_04DACNFKGE@loca?$AA@ 1009c358     imgui_draw.obj
 0002:00008360       ??_C@_04NEODDMOL@head?$AA@ 1009c360     imgui_draw.obj
 0002:00008368       ??_C@_04LLIHEPK@glyf?$AA@  1009c368     imgui_draw.obj
 0002:00008370       ??_C@_04FMPHLIKP@hhea?$AA@ 1009c370     imgui_draw.obj
 0002:00008378       ??_C@_04ONMNCIMC@hmtx?$AA@ 1009c378     imgui_draw.obj
 0002:00008380       ??_C@_04HHMMLDJI@kern?$AA@ 1009c380     imgui_draw.obj
 0002:00008388       ??_C@_04HJGCPIEK@CFF?5?$AA@ 1009c388     imgui_draw.obj
 0002:00008390       ??_C@_04KODIGLGG@maxp?$AA@ 1009c390     imgui_draw.obj
 0002:00008398       ??_C@_0BG@MBFHAHKJ@ProggyClean?4ttf?0?513px?$AA@ 1009c398     imgui_draw.obj
 0002:000083b0       ??_C@_0L@EPCGLJHG@?$CFs?0?5?$CF?40fpx?$AA@ 1009c3b0     imgui_draw.obj
 0002:000083c0       ??_C@_0JHP@BPFIGAMH@?4?4?9?5?5?5?5?5?5?5?5?5?9XXXXXXX?9?5?5?5?5X?5?5?5?5?9?5@ 1009c3c0     imgui_draw.obj
 0002:00008d48       __real@37800000            1009cd48     imgui_draw.obj
 0002:00008d4c       __real@38800000            1009cd4c     imgui_draw.obj
 0002:00008d50       __real@3eb33333            1009cd50     imgui_draw.obj
 0002:00008d54       __real@3ffeb852            1009cd54     imgui_draw.obj
 0002:00008d58       __real@41500000            1009cd58     imgui_draw.obj
 0002:00008d5c       __real@41880000            1009cd5c     imgui_draw.obj
 0002:00008d60       __real@41900000            1009cd60     imgui_draw.obj
 0002:00008d64       __real@41980000            1009cd64     imgui_draw.obj
 0002:00008d68       __real@41a80000            1009cd68     imgui_draw.obj
 0002:00008d6c       __real@41b80000            1009cd6c     imgui_draw.obj
 0002:00008d70       __real@41f80000            1009cd70     imgui_draw.obj
 0002:00008d74       __real@425c0000            1009cd74     imgui_draw.obj
 0002:00008d78       __real@42920000            1009cd78     imgui_draw.obj
 0002:00008d7c       __real@42b60000            1009cd7c     imgui_draw.obj
 0002:00008d80       __xmm@00000003000000020000000100000000 1009cd80     imgui_draw.obj
 0002:00008d90       __xmm@00000008000000080000000800000008 1009cd90     imgui_draw.obj
 0002:00008da0       __xmm@40000000400000004000000040000000 1009cda0     imgui_draw.obj
 0002:00008db0       __xmm@40490fdb40490fdb40490fdb40490fdb 1009cdb0     imgui_draw.obj
 0002:00008dc0       __xmm@41400000414000004140000041400000 1009cdc0     imgui_draw.obj
 0002:00008dd0       ??_C@_0BA@OBHPCBFP@CreateInterface?$AA@ 1009cdd0     Interfaces.obj
 0002:00008de0       ??_C@_1BG@HGOJCJMF@?$AAe?$AAn?$AAg?$AAi?$AAn?$AAe?$AA?4?$AAd?$AAl?$AAl?$AA?$AA@ 1009cde0     Interfaces.obj
 0002:00008df8       ??_C@_1CG@NFNABGLJ@?$AAv?$AAg?$AAu?$AAi?$AAm?$AAa?$AAt?$AAs?$AAu?$AAr?$AAf?$AAa?$AAc?$AAe?$AA?4?$AAd?$AAl?$AAl?$AA?$AA@ 1009cdf8     Interfaces.obj
 0002:00008e20       ??_C@_1BE@MJHLMMOO@?$AAv?$AAg?$AAu?$AAi?$AA2?$AA?4?$AAd?$AAl?$AAl?$AA?$AA@ 1009ce20     Interfaces.obj
 0002:00008e34       ??_C@_1CG@GOPMJEA@?$AAm?$AAa?$AAt?$AAe?$AAr?$AAi?$AAa?$AAl?$AAs?$AAy?$AAs?$AAt?$AAe?$AAm?$AA?4?$AAd?$AAl?$AAl?$AA?$AA@ 1009ce34     Interfaces.obj
 0002:00008e5c       ??_C@_1BK@IKFCGDJB@?$AAv?$AAp?$AAh?$AAy?$AAs?$AAi?$AAc?$AAs?$AA?4?$AAd?$AAl?$AAl?$AA?$AA@ 1009ce5c     Interfaces.obj
 0002:00008e78       ??_C@_1BI@IHACCDEG@?$AAv?$AAs?$AAt?$AAd?$AAl?$AAi?$AAb?$AA?4?$AAd?$AAl?$AAl?$AA?$AA@ 1009ce78     Interfaces.obj
 0002:00008e90       ??_C@_1BM@IJCPLDEC@?$AAd?$AAa?$AAt?$AAa?$AAc?$AAa?$AAc?$AAh?$AAe?$AA?4?$AAd?$AAl?$AAl?$AA?$AA@ 1009ce90     Interfaces.obj
 0002:00008eac       ??_C@_0L@CBDCKMGN@VClient018?$AA@ 1009ceac     Interfaces.obj
 0002:00008eb8       ??_C@_0BB@CJDLPJJP@VEngineClient014?$AA@ 1009ceb8     Interfaces.obj
 0002:00008ecc       ??_C@_0O@BLBEAEJG@VGUI_Panel009?$AA@ 1009cecc     Interfaces.obj
 0002:00008edc       ??_C@_0BA@NFOMELFH@VGUI_Surface031?$AA@ 1009cedc     Interfaces.obj
 0002:00008eec       ??_C@_0BF@LEBMDKCJ@VClientEntityList003?$AA@ 1009ceec     Interfaces.obj
 0002:00008f04       ??_C@_0BB@JEBHNJKE@VDebugOverlay004?$AA@ 1009cf04     Interfaces.obj
 0002:00008f18       ??_C@_0BF@PFHNDOKD@VClientPrediction001?$AA@ 1009cf18     Interfaces.obj
 0002:00008f30       ??_C@_0BD@ECOBDDLG@VMaterialSystem080?$AA@ 1009cf30     Interfaces.obj
 0002:00008f44       ??_C@_0BF@IHMEMAKJ@VEngineRenderView014?$AA@ 1009cf44     Interfaces.obj
 0002:00008f5c       ??_C@_0BA@MECLCOIH@VEngineModel016?$AA@ 1009cf5c     Interfaces.obj
 0002:00008f6c       ??_C@_0BE@BJBBILIH@VModelInfoClient004?$AA@ 1009cf6c     Interfaces.obj
 0002:00008f80       ??_C@_0BF@JEJONENL@EngineTraceClient004?$AA@ 1009cf80     Interfaces.obj
 0002:00008f98       ??_C@_0BI@ENHKJIPO@VPhysicsSurfaceProps001?$AA@ 1009cf98     Interfaces.obj
 0002:00008fb0       ??_C@_0P@DHJOKMPC@VEngineCvar007?$AA@ 1009cfb0     Interfaces.obj
 0002:00008fc0       ??_C@_0BC@EHNLKLCF@VEngineEffects001?$AA@ 1009cfc0     Interfaces.obj
 0002:00008fd4       ??_C@_0BA@CNGPLDEL@GameMovement001?$AA@ 1009cfd4     Interfaces.obj
 0002:00008fe4       ??_C@_0L@OJEIPPLD@xx?$DP?$DP?$DP?$DPxxxx?$AA@ 1009cfe4     Interfaces.obj
 0002:00008ff0       ??_C@_0L@OODIEBAN@?$IL?$AN?$AA?$AA?$AA?$AA?$ILF?$AIh?$AA@ 1009cff0     Interfaces.obj
 0002:00008ffc       ??_C@_0BF@KOIHLKCK@GAMEEVENTSMANAGER002?$AA@ 1009cffc     Interfaces.obj
 0002:00009014       ??_C@_0P@HEGCEOJI@GameConsole004?$AA@ 1009d014     Interfaces.obj
 0002:00009024       ??_C@_0BH@PNNOCMJE@x?$DP?$DP?$DP?$DPx?$DP?$DP?$DP?$DPxx?$DP?$DP?$DP?$DP?$DP?$DP?$DP?$DPxx?$AA@ 1009d024     Interfaces.obj
 0002:0000903c       ??_C@_0BH@DGLNPGJL@?$KB?$AA?$AA?$AA?$AA?$LJ?$AA?$AA?$AA?$AA?G?$AF?$AA?$AA?$AA?$AA?$AA?$AA?$AA?$AA?$PP?$BA?$AA@ 1009d03c     Interfaces.obj
 0002:00009054       ??_C@_0BB@DDJDFANP@xx?$DP?$DP?$DP?$DPxxxx?$DP?$DP?$DP?$DPxx?$AA@ 1009d054     Interfaces.obj
 0002:00009068       ??_C@_0BB@EKDBOMAM@?$IL?$DN?$AA?$AA?$AA?$AA?$IF?$PP?$AP?$IE?$AA?$AA?$AA?$AA?$IB?G?$AA@ 1009d068     Interfaces.obj
 0002:0000907c       ??_C@_0BF@BAHMGGHB@x?$DP?$DP?$DP?$DPxx?$DP?$DP?$DP?$DPxxx?$DP?$DP?$DP?$DPxx?$AA@ 1009d07c     Interfaces.obj
 0002:00009094       ??_C@_0BF@BFBIOINK@?$KB?$AA?$AA?$AA?$AA?$IL?$AN?$AA?$AA?$AA?$AAj?$AAh?$AA?$AA?$AA?$AA?F?$IA?$AA@ 1009d094     Interfaces.obj
 0002:000090ac       ??_C@_0M@FDOOFAJO@MDLCache004?$AA@ 1009d0ac     Interfaces.obj
 0002:000090b8       ??_C@_08MKCDFPJL@CHudChat?$AA@ 1009d0b8     Interfaces.obj
 0002:000090c4       ??_C@_0DE@HIHJNMPD@0F?511?505?5?$DP?5?$DP?5?$DP?5?$DP?583?5C8?501?5C7?505?5@ 1009d0c4     Interfaces.obj
 0002:000090f8       ??_C@_0CB@MECFBAID@B9?5?$DP?5?$DP?5?$DP?5?$DP?5E8?5?$DP?5?$DP?5?$DP?5?$DP?583?57D?5F8?5?$DP@ 1009d0f8     Interfaces.obj
 0002:0000911c       ??_C@_0DA@LEJGJDNJ@55?58B?5EC?553?58B?55D?508?556?557?58B?5F9@ 1009d11c     Interfaces.obj
 0002:0000914c       __real@40490fdb            1009d14c     LagComp.obj
 0002:00009150       ??_C@_0O@BINGBKKN@m_iShotsFired?$AA@ 1009d150     LegitBot.obj
 0002:00009160       ??_C@_0M@MPLEGCP@RandomFloat?$AA@ 1009d160     LegitBot.obj
 0002:0000916c       ??_C@_0M@EINGCJHB@vstdlib?4dll?$AA@ 1009d16c     LegitBot.obj
 0002:00009178       ??_C@_0L@LPNNIEAF@RandomSeed?$AA@ 1009d178     LegitBot.obj
 0002:00009184       __real@34000000            1009d184     LegitBot.obj
 0002:00009188       __real@404a800000000000    1009d188     LegitBot.obj
 0002:00009190       __real@41f0000000000000    1009d190     LegitBot.obj
 0002:00009198       __real@42652ee1            1009d198     LegitBot.obj
 0002:0000919c       __real@43160000            1009d19c     LegitBot.obj
 0002:000091a0       __real@46000000            1009d1a0     LegitBot.obj
 0002:000091b0       __xmm@00000004000000060000000100000000 1009d1b0     LegitBot.obj
 0002:000091c0       __real@3f91df46a2529d39    1009d1c0     MathFunctions.obj
 0002:000091c8       __real@404ca5dc20000000    1009d1c8     MathFunctions.obj
 0002:000091d0       __real@4333ffff            1009d1d0     MathFunctions.obj
 0002:000091d4       __real@c333ffff            1009d1d4     MathFunctions.obj
 0002:000091d8       ??_C@_07MOJIPLHI@m_Local?$AA@ 1009d1d8     memesets.obj
 0002:000091e0       ??_C@_0O@KNDKHNCF@DT_BasePlayer?$AA@ 1009d1e0     memesets.obj
 0002:000091f0       ??_C@_0BA@NAOFJBDJ@m_aimPunchAngle?$AA@ 1009d1f0     memesets.obj
 0002:00009200       ??_C@_0BD@PKLCAOHN@m_aimPunchAngleVel?$AA@ 1009d200     memesets.obj
 0002:00009214       ??_C@_0BB@FDCJDEOM@m_viewPunchAngle?$AA@ 1009d214     memesets.obj
 0002:00009228       ??_C@_0BD@BBEIOPED@m_vecViewOffset?$FL0?$FN?$AA@ 1009d228     memesets.obj
 0002:0000923c       ??_C@_0M@MBFMJJPI@m_nTickBase?$AA@ 1009d23c     memesets.obj
 0002:00009248       ??_C@_0BB@CHJEEOLK@m_vecVelocity?$FL0?$FN?$AA@ 1009d248     memesets.obj
 0002:0000925c       ??_C@_09FOIALPOM@m_iHealth?$AA@ 1009d25c     memesets.obj
 0002:00009268       ??_C@_0N@IHGIGPNN@m_iMaxHealth?$AA@ 1009d268     memesets.obj
 0002:00009278       ??_C@_0M@GDCAJHLF@m_lifeState?$AA@ 1009d278     memesets.obj
 0002:00009284       ??_C@_08JPGJABNM@m_fFlags?$AA@ 1009d284     memesets.obj
 0002:00009290       ??_C@_0BA@GKDDFKAC@m_iObserverMode?$AA@ 1009d290     memesets.obj
 0002:000092a0       ??_C@_0BC@JPEKIGDH@m_hObserverTarget?$AA@ 1009d2a0     memesets.obj
 0002:000092b4       ??_C@_0BA@FDOKDFE@m_hViewModel?$FL0?$FN?$AA@ 1009d2b4     memesets.obj
 0002:000092c4       ??_C@_0BC@PDFDGCOF@m_szLastPlaceName?$AA@ 1009d2c4     memesets.obj
 0002:000092d8       ??_C@_0N@PBPFNIMJ@m_flAnimTime?$AA@ 1009d2d8     memesets.obj
 0002:000092e8       ??_C@_0O@NDBNDAKG@DT_BaseEntity?$AA@ 1009d2e8     memesets.obj
 0002:000092f8       ??_C@_0BD@IDNCLOOB@m_flSimulationTime?$AA@ 1009d2f8     memesets.obj
 0002:0000930c       ??_C@_0M@BAFECOKC@m_vecOrigin?$AA@ 1009d30c     memesets.obj
 0002:00009318       ??_C@_0O@MFJONOMM@m_angRotation?$AA@ 1009d318     memesets.obj
 0002:00009328       ??_C@_0O@CGPADDIF@m_nRenderMode?$AA@ 1009d328     memesets.obj
 0002:00009338       ??_C@_0L@OEKNBODE@m_iTeamNum?$AA@ 1009d338     memesets.obj
 0002:00009344       ??_C@_0M@ILMGKKBH@m_Collision?$AA@ 1009d344     memesets.obj
 0002:00009350       ??_C@_08LNJFHIKD@m_hOwner?$AA@ 1009d350     memesets.obj
 0002:0000935c       ??_C@_0L@FMFDKOOG@m_bSpotted?$AA@ 1009d35c     memesets.obj
 0002:00009368       ??_C@_09IEAPICB@m_vecMins?$AA@ 1009d368     memesets.obj
 0002:00009374       ??_C@_09NFFPAPAM@m_vecMaxs?$AA@ 1009d374     memesets.obj
 0002:00009380       ??_C@_0N@LJDAIIAB@m_nSolidType?$AA@ 1009d380     memesets.obj
 0002:00009390       ??_C@_0P@JHOFHJMK@m_usSolidFlags?$AA@ 1009d390     memesets.obj
 0002:000093a0       ??_C@_0BA@FKBKEPGE@m_nSurroundType?$AA@ 1009d3a0     memesets.obj
 0002:000093b0       ??_C@_0BA@MIGFFMNM@m_hActiveWeapon?$AA@ 1009d3b0     memesets.obj
 0002:000093c0       ??_C@_0BH@EFEKCINC@DT_BaseCombatCharacter?$AA@ 1009d3c0     memesets.obj
 0002:000093d8       ??_C@_0N@LDOBMGCE@m_hMyWeapons?$AA@ 1009d3d8     memesets.obj
 0002:000093e8       ??_C@_0P@KJPOMMKN@m_hMyWearables?$AA@ 1009d3e8     memesets.obj
 0002:000093f8       ??_C@_07DNJNDODI@m_iPing?$AA@ 1009d3f8     memesets.obj
 0002:00009400       ??_C@_0BC@IFPHJDLO@DT_PlayerResource?$AA@ 1009d400     memesets.obj
 0002:00009414       ??_C@_08ODGANKKH@m_iKills?$AA@ 1009d414     memesets.obj
 0002:00009420       ??_C@_0L@LIKEPIEL@m_iAssists?$AA@ 1009d420     memesets.obj
 0002:0000942c       ??_C@_09LAIHDLGG@m_iDeaths?$AA@ 1009d42c     memesets.obj
 0002:00009438       ??_C@_0N@DKMHJNOJ@m_bConnected?$AA@ 1009d438     memesets.obj
 0002:00009448       ??_C@_07HDHIIIPH@m_iTeam?$AA@ 1009d448     memesets.obj
 0002:00009450       ??_C@_0P@OEENIJDK@m_iPendingTeam?$AA@ 1009d450     memesets.obj
 0002:00009460       ??_C@_08LCOLEBAI@m_bAlive?$AA@ 1009d460     memesets.obj
 0002:0000946c       ??_C@_0M@FJILONLA@m_iPlayerC4?$AA@ 1009d46c     memesets.obj
 0002:00009478       ??_C@_0BE@GCJLEPHJ@DT_CSPlayerResource?$AA@ 1009d478     memesets.obj
 0002:0000948c       ??_C@_0N@EKGNDJJL@m_iPlayerVIP?$AA@ 1009d48c     memesets.obj
 0002:0000949c       ??_C@_0BA@GPGBJIPL@m_bHostageAlive?$AA@ 1009d49c     memesets.obj
 0002:000094ac       ??_C@_0BM@GLADDJBN@m_isHostageFollowingSomeone?$AA@ 1009d4ac     memesets.obj
 0002:000094c8       ??_C@_0BE@GLLCGJA@m_iHostageEntityIDs?$AA@ 1009d4c8     memesets.obj
 0002:000094dc       ??_C@_0BC@LFCHEEPJ@m_bombsiteCenterB?$AA@ 1009d4dc     memesets.obj
 0002:000094f0       ??_C@_0BB@CPNHLEFC@m_hostageRescueX?$AA@ 1009d4f0     memesets.obj
 0002:00009504       ??_C@_0BB@DGMMIFBD@m_hostageRescueY?$AA@ 1009d504     memesets.obj
 0002:00009518       ??_C@_0BB@BNOBNGNA@m_hostageRescueZ?$AA@ 1009d518     memesets.obj
 0002:0000952c       ??_C@_07NPOJKDD@m_iMVPs?$AA@ 1009d52c     memesets.obj
 0002:00009534       ??_C@_08PGCKLHCP@m_iArmor?$AA@ 1009d534     memesets.obj
 0002:00009540       ??_C@_0N@KELFAIEF@m_bHasHelmet?$AA@ 1009d540     memesets.obj
 0002:00009550       ??_C@_0O@NFCJDAAN@m_bHasDefuser?$AA@ 1009d550     memesets.obj
 0002:00009560       ??_C@_08FOMANGLD@m_iScore?$AA@ 1009d560     memesets.obj
 0002:0000956c       ??_C@_0BG@KANNKOGA@m_iCompetitiveRanking?$AA@ 1009d56c     memesets.obj
 0002:00009584       ??_C@_0BD@HFFFAAPP@m_iCompetitiveWins?$AA@ 1009d584     memesets.obj
 0002:00009598       ??_C@_0BF@JMNDALEG@m_iCompTeammateColor?$AA@ 1009d598     memesets.obj
 0002:000095b0       ??_C@_0BC@OJNAAJJM@m_bControllingBot?$AA@ 1009d5b0     memesets.obj
 0002:000095c4       ??_C@_0BE@GACGIDEJ@m_iControlledPlayer?$AA@ 1009d5c4     memesets.obj
 0002:000095d8       ??_C@_0BG@MPPMBNPI@m_iControlledByPlayer?$AA@ 1009d5d8     memesets.obj
 0002:000095f0       ??_C@_0BB@IELLMEAA@m_iBotDifficulty?$AA@ 1009d5f0     memesets.obj
 0002:00009604       ??_C@_08JDCNAFMF@m_szClan?$AA@ 1009d604     memesets.obj
 0002:00009610       ??_C@_0BC@HLMKIJMC@m_iTotalCashSpent?$AA@ 1009d610     memesets.obj
 0002:00009624       ??_C@_0BG@LBGMJPMF@m_iCashSpentThisRound?$AA@ 1009d624     memesets.obj
 0002:0000963c       ??_C@_0BI@COCFGAEB@m_nEndMatchNextMapVotes?$AA@ 1009d63c     memesets.obj
 0002:00009654       ??_C@_0BL@BGCGOEKE@m_bEndMatchNextMapAllVoted?$AA@ 1009d654     memesets.obj
 0002:00009670       ??_C@_0BC@LDIMCMFD@m_nActiveCoinRank?$AA@ 1009d670     memesets.obj
 0002:00009684       ??_C@_0L@EBHDEJP@m_nMusicID?$AA@ 1009d684     memesets.obj
 0002:00009690       ??_C@_0BK@NDAGNIMG@m_nPersonaDataPublicLevel?$AA@ 1009d690     memesets.obj
 0002:000096ac       ??_C@_0CD@DFIANLDO@m_nPersonaDataPublicCommendsLead@ 1009d6ac     memesets.obj
 0002:000096d0       ??_C@_0CE@CKCABNKC@m_nPersonaDataPublicCommendsTeac@ 1009d6d0     memesets.obj
 0002:000096f4       ??_C@_0CF@PGLFMDGG@m_nPersonaDataPublicCommendsFrie@ 1009d6f4     memesets.obj
 0002:0000971c       ??_C@_0P@EBMPNKJL@m_bBombTicking?$AA@ 1009d71c     memesets.obj
 0002:0000972c       ??_C@_0N@CBNMHOGE@DT_PlantedC4?$AA@ 1009d72c     memesets.obj
 0002:0000973c       ??_C@_0L@HFCEAPNC@m_flC4Blow?$AA@ 1009d73c     memesets.obj
 0002:00009748       ??_C@_0P@GNBFDCEN@m_bBombDefused?$AA@ 1009d748     memesets.obj
 0002:00009758       ??_C@_0P@ELNCOBLM@m_hBombDefuser?$AA@ 1009d758     memesets.obj
 0002:00009768       ??_C@_0BE@GMKOIPKK@m_flDefuseCountDown?$AA@ 1009d768     memesets.obj
 0002:0000977c       ??_C@_0BC@ELHPMMNM@m_angEyeAngles?$FL0?$FN?$AA@ 1009d77c     memesets.obj
 0002:00009790       ??_C@_0BC@EKLNKGOL@m_angEyeAngles?$FL1?$FN?$AA@ 1009d790     memesets.obj
 0002:000097a4       ??_C@_0L@CIHHHMAD@m_iAccount?$AA@ 1009d7a4     memesets.obj
 0002:000097b0       ??_C@_0BE@EEFKMNFD@m_totalHitsOnServer?$AA@ 1009d7b0     memesets.obj
 0002:000097c4       ??_C@_0N@IIBEIILJ@m_ArmorValue?$AA@ 1009d7c4     memesets.obj
 0002:000097d4       ??_C@_0O@HHNOFAMN@m_bIsDefusing?$AA@ 1009d7d4     memesets.obj
 0002:000097e4       ??_C@_0BF@HMCMCOMC@m_bIsGrabbingHostage?$AA@ 1009d7e4     memesets.obj
 0002:000097fc       ??_C@_0M@PPOAODEA@m_bIsScoped?$AA@ 1009d7fc     memesets.obj
 0002:00009808       ??_C@_0BD@IHDNKCCD@m_bGunGameImmunity?$AA@ 1009d808     memesets.obj
 0002:0000981c       ??_C@_0O@MHCNMMHJ@m_bIsRescuing?$AA@ 1009d81c     memesets.obj
 0002:0000982c       ??_C@_0BH@GJAPHBOD@m_flLowerBodyYawTarget?$AA@ 1009d82c     memesets.obj
 0002:00009844       ??_C@_0BB@NKFLGFCN@m_bHasHeavyArmor?$AA@ 1009d844     memesets.obj
 0002:00009858       ??_C@_0CB@DLDOLANK@m_iGunGameProgressiveWeaponIndex@ 1009d858     memesets.obj
 0002:0000987c       ??_C@_0BH@BLPCDECE@m_iItemDefinitionIndex?$AA@ 1009d87c     memesets.obj
 0002:00009894       ??_C@_0BI@KDIKOMBE@DT_BaseAttributableItem?$AA@ 1009d894     memesets.obj
 0002:000098ac       ??_C@_0N@JJMAHKON@m_iAccountID?$AA@ 1009d8ac     memesets.obj
 0002:000098bc       ??_C@_0BB@OIFBPKHJ@m_iEntityQuality?$AA@ 1009d8bc     memesets.obj
 0002:000098d0       ??_C@_0P@GFHGANFM@m_szCustomName?$AA@ 1009d8d0     memesets.obj
 0002:000098e0       ??_C@_0BE@HFEMCGPD@m_nFallbackPaintKit?$AA@ 1009d8e0     memesets.obj
 0002:000098f4       ??_C@_0BA@LONLNMG@m_nFallbackSeed?$AA@ 1009d8f4     memesets.obj
 0002:00009904       ??_C@_0BB@IMPAFKGK@m_flFallbackWear?$AA@ 1009d904     memesets.obj
 0002:00009918       ??_C@_0BE@GGJDINOK@m_nFallbackStatTrak?$AA@ 1009d918     memesets.obj
 0002:0000992c       ??_C@_0BH@FOJBBMAP@m_OriginalOwnerXuidLow?$AA@ 1009d92c     memesets.obj
 0002:00009944       ??_C@_0BI@PBAIDHEO@m_OriginalOwnerXuidHigh?$AA@ 1009d944     memesets.obj
 0002:0000995c       ??_C@_09FPFKFAGF@m_hWeapon?$AA@ 1009d95c     memesets.obj
 0002:00009968       ??_C@_0BD@LCOIAPKE@m_fAccuracyPenalty?$AA@ 1009d968     memesets.obj
 0002:0000997c       ??_C@_0BA@GJLMCNFJ@DT_WeaponCSBase?$AA@ 1009d97c     memesets.obj
 0002:0000998c       ??_C@_0BK@KKEKOEGH@m_flPostponeFireReadyTime?$AA@ 1009d98c     memesets.obj
 0002:000099a8       ??_C@_0BB@JJMGBPAD@m_bStartedArming?$AA@ 1009d9a8     memesets.obj
 0002:000099bc       ??_C@_0M@JGIBKOEO@DT_WeaponC4?$AA@ 1009d9bc     memesets.obj
 0002:000099c8       ??_C@_0BG@IBOJPCLN@m_flNextPrimaryAttack?$AA@ 1009d9c8     memesets.obj
 0002:000099e0       ??_C@_0BE@OBECLDDP@DT_BaseCombatWeapon?$AA@ 1009d9e0     memesets.obj
 0002:000099f4       ??_C@_0BC@NCIEGBIJ@m_iViewModelIndex?$AA@ 1009d9f4     memesets.obj
 0002:00009a08       ??_C@_0BD@GFBBMJBP@m_iWorldModelIndex?$AA@ 1009da08     memesets.obj
 0002:00009a1c       ??_C@_08CHHOFABL@m_iClip1?$AA@ 1009da1c     memesets.obj
 0002:00009a28       ??_C@_0BL@GKAMNBOO@m_iPrimaryReserveAmmoCount?$AA@ 1009da28     memesets.obj
 0002:00009a44       ??_C@_0BE@JINCONAD@m_hWeaponWorldModel?$AA@ 1009da44     memesets.obj
 0002:00009a58       ??_C@_09GPNFKAOD@m_bRedraw?$AA@ 1009da58     memesets.obj
 0002:00009a64       ??_C@_0BB@BDMKEGJH@DT_BaseCSGrenade?$AA@ 1009da64     memesets.obj
 0002:00009a78       ??_C@_0BC@LPCCHHOO@m_bIsHeldByPlayer?$AA@ 1009da78     memesets.obj
 0002:00009a8c       ??_C@_0N@GJDDOKLN@m_bPinPulled?$AA@ 1009da8c     memesets.obj
 0002:00009a9c       ??_C@_0N@EOAKBOFO@m_fThrowTime?$AA@ 1009da9c     memesets.obj
 0002:00009aac       ??_C@_0BH@JPEBIMEL@m_bLoopingSoundPlaying?$AA@ 1009daac     memesets.obj
 0002:00009ac4       ??_C@_0BC@CGLBMEHH@m_flThrowStrength?$AA@ 1009dac4     memesets.obj
 0002:00009ad8       ??_C@_0O@NMFDIDKK@m_bShouldGlow?$AA@ 1009dad8     memesets.obj
 0002:00009ae8       ??_C@_0P@EPLJGIG@DT_DynamicProp?$AA@ 1009dae8     memesets.obj
 0002:00009af8       ??_C@_0P@JHJOOGNN@m_bBombPlanted?$AA@ 1009daf8     memesets.obj
 0002:00009b08       ??_C@_0BE@IPKPBPLB@DT_CSGameRulesProxy?$AA@ 1009db08     memesets.obj
 0002:00009b1c       ??_C@_0N@JFDHBEH@m_bIsValveDS?$AA@ 1009db1c     memesets.obj
 0002:00009b2c       ??_C@_0BA@FGPFAKFO@m_bFreezePeriod?$AA@ 1009db2c     memesets.obj
 0002:00009b3c       ??_C@_0BJ@OBKKCMDK@m_bMatchWaitingForResume?$AA@ 1009db3c     memesets.obj
 0002:00009b58       ??_C@_0BA@DLBKCLCP@m_bWarmupPeriod?$AA@ 1009db58     memesets.obj
 0002:00009b68       ??_C@_0BD@CEBJMCLM@m_fWarmupPeriodEnd?$AA@ 1009db68     memesets.obj
 0002:00009b7c       ??_C@_0BF@OJDNPIGK@m_fWarmupPeriodStart?$AA@ 1009db7c     memesets.obj
 0002:00009b94       ??_C@_0BK@HIJBNGMF@m_bTerroristTimeOutActive?$AA@ 1009db94     memesets.obj
 0002:00009bb0       ??_C@_0BD@MDNEANN@m_bCTTimeOutActive?$AA@ 1009dbb0     memesets.obj
 0002:00009bc4       ??_C@_0BO@ENMHFLDL@m_flTerroristTimeOutRemaining?$AA@ 1009dbc4     memesets.obj
 0002:00009be4       ??_C@_0BH@FPKHMPDF@m_flCTTimeOutRemaining?$AA@ 1009dbe4     memesets.obj
 0002:00009bfc       ??_C@_0BF@GDBAEODN@m_nTerroristTimeOuts?$AA@ 1009dbfc     memesets.obj
 0002:00009c14       ??_C@_0O@IGEFBAGN@m_nCTTimeOuts?$AA@ 1009dc14     memesets.obj
 0002:00009c24       ??_C@_0N@JNHNIFIO@m_iRoundTime?$AA@ 1009dc24     memesets.obj
 0002:00009c34       ??_C@_0M@FLLJMMKE@m_gamePhase?$AA@ 1009dc34     memesets.obj
 0002:00009c40       ??_C@_0BE@KEKHEGNF@m_totalRoundsPlayed?$AA@ 1009dc40     memesets.obj
 0002:00009c54       ??_C@_0BD@EBJNNNMG@m_nOvertimePlaying?$AA@ 1009dc54     memesets.obj
 0002:00009c68       ??_C@_0BL@NKJDDBCF@m_timeUntilNextPhaseStarts?$AA@ 1009dc68     memesets.obj
 0002:00009c84       ??_C@_0BP@GCOKGIFP@m_flCMMItemDropRevealStartTime?$AA@ 1009dc84     memesets.obj
 0002:00009ca4       ??_C@_0BN@NMPCBPAB@m_flCMMItemDropRevealEndTime?$AA@ 1009dca4     memesets.obj
 0002:00009cc4       ??_C@_0BC@MLHDHAAA@m_fRoundStartTime?$AA@ 1009dcc4     memesets.obj
 0002:00009cd8       ??_C@_0P@LOLFLJBG@m_bGameRestart?$AA@ 1009dcd8     memesets.obj
 0002:00009ce8       ??_C@_0BF@PMKBOBOP@m_flRestartRoundTime?$AA@ 1009dce8     memesets.obj
 0002:00009d00       ??_C@_0BC@NGDEGODG@m_flGameStartTime?$AA@ 1009dd00     memesets.obj
 0002:00009d14       ??_C@_0BF@FECDGLAF@m_iHostagesRemaining?$AA@ 1009dd14     memesets.obj
 0002:00009d2c       ??_C@_0BF@IPONGFOO@m_bAnyHostageReached?$AA@ 1009dd2c     memesets.obj
 0002:00009d44       ??_C@_0BE@BPNNCPCI@m_bMapHasBombTarget?$AA@ 1009dd44     memesets.obj
 0002:00009d58       ??_C@_0BE@JHHDBCLC@m_bMapHasRescueZone?$AA@ 1009dd58     memesets.obj
 0002:00009d6c       ??_C@_0BB@NDEMODOB@m_bMapHasBuyZone?$AA@ 1009dd6c     memesets.obj
 0002:00009d80       ??_C@_0BH@CLEBKBOP@m_bIsQueuedMatchmaking?$AA@ 1009dd80     memesets.obj
 0002:00009d98       ??_C@_0BD@CJGEJGLF@m_bIsQuestEligible?$AA@ 1009dd98     memesets.obj
 0002:00009dac       ??_C@_0L@DHLJINBK@m_bLogoMap?$AA@ 1009ddac     memesets.obj
 0002:00009db8       ??_C@_0CC@DPFLLPLD@m_iNumGunGameProgressiveWeaponsC@ 1009ddb8     memesets.obj
 0002:00009ddc       ??_C@_0CB@IHDMHPNN@m_iNumGunGameProgressiveWeaponsT@ 1009dddc     memesets.obj
 0002:00009e00       ??_C@_0BG@EFCJOAAA@m_iSpectatorSlotCount?$AA@ 1009de00     memesets.obj
 0002:00009e18       ??_C@_0P@DCDGOBFL@m_bBombDropped?$AA@ 1009de18     memesets.obj
 0002:00009e28       ??_C@_0BC@GEAIMNEJ@m_iRoundWinStatus?$AA@ 1009de28     memesets.obj
 0002:00009e3c       ??_C@_0BC@NONNLGAI@m_eRoundWinReason?$AA@ 1009de3c     memesets.obj
 0002:00009e50       ??_C@_0BF@JEODADEL@m_flDMBonusStartTime?$AA@ 1009de50     memesets.obj
 0002:00009e68       ??_C@_0BG@LDEMIEEH@m_flDMBonusTimeLength?$AA@ 1009de68     memesets.obj
 0002:00009e80       ??_C@_0BN@NPLPPDPK@m_unDMBonusWeaponLoadoutSlot?$AA@ 1009de80     memesets.obj
 0002:00009ea0       ??_C@_0BB@HPNDDBEJ@m_bDMBonusActive?$AA@ 1009dea0     memesets.obj
 0002:00009eb4       ??_C@_0M@KJIOLGL@m_bTCantBuy?$AA@ 1009deb4     memesets.obj
 0002:00009ec0       ??_C@_0N@IMJFBHMI@m_bCTCantBuy?$AA@ 1009dec0     memesets.obj
 0002:00009ed0       ??_C@_0BJ@HMEDHELN@m_flGuardianBuyUntilTime?$AA@ 1009ded0     memesets.obj
 0002:00009eec       ??_C@_0BL@EKABNMBF@m_iMatchStats_RoundResults?$AA@ 1009deec     memesets.obj
 0002:00009f08       ??_C@_0BN@OCOGDPCE@m_iMatchStats_PlayersAlive_T?$AA@ 1009df08     memesets.obj
 0002:00009f28       ??_C@_0BO@PLFPCPEL@m_iMatchStats_PlayersAlive_CT?$AA@ 1009df28     memesets.obj
 0002:00009f48       ??_C@_0BM@PMNFKLMA@m_GGProgressiveWeaponOrderC?$AA@ 1009df48     memesets.obj
 0002:00009f64       ??_C@_0BM@PJFGCPFG@m_GGProgressiveWeaponOrderT?$AA@ 1009df64     memesets.obj
 0002:00009f80       ??_C@_0CI@EOJFCPDI@m_GGProgressiveWeaponKillUpgrade@ 1009df80     memesets.obj
 0002:00009fa8       ??_C@_0CH@PICJHNJJ@m_GGProgressiveWeaponKillUpgrade@ 1009dfa8     memesets.obj
 0002:00009fd0       ??_C@_0O@BHJHMPJL@m_MatchDevice?$AA@ 1009dfd0     memesets.obj
 0002:00009fe0       ??_C@_0BD@HOFMIBII@m_bHasMatchStarted?$AA@ 1009dfe0     memesets.obj
 0002:00009ff4       ??_C@_0BH@CNMPJIGA@m_TeamRespawnWaveTimes?$AA@ 1009dff4     memesets.obj
 0002:0000a00c       ??_C@_0BE@PNOPPDEM@m_flNextRespawnWave?$AA@ 1009e00c     memesets.obj
 0002:0000a020       ??_C@_0BF@BDPNFLGD@m_nNextMapInMapgroup?$AA@ 1009e020     memesets.obj
 0002:0000a038       ??_C@_0BP@LDLODINM@m_nEndMatchMapGroupVoteOptions?$AA@ 1009e038     memesets.obj
 0002:0000a058       ??_C@_0BD@JPLMDBEN@m_bIsDroppingItems?$AA@ 1009e058     memesets.obj
 0002:0000a06c       ??_C@_0CG@PMFADGGM@m_iActiveAssassinationTargetMiss@ 1009e06c     memesets.obj
 0002:0000a094       ??_C@_0BC@FJCBDDPO@m_fMatchStartTime?$AA@ 1009e094     memesets.obj
 0002:0000a0a8       ??_C@_0BI@IIHPCNMB@m_szTournamentEventName?$AA@ 1009e0a8     memesets.obj
 0002:0000a0c0       ??_C@_0BJ@KKHLHAII@m_szTournamentEventStage?$AA@ 1009e0c0     memesets.obj
 0002:0000a0dc       ??_C@_0BN@GOFKHDOE@m_szTournamentPredictionsTxt?$AA@ 1009e0dc     memesets.obj
 0002:0000a0fc       ??_C@_0BM@PBOMOIKP@m_nTournamentPredictionsPct?$AA@ 1009e0fc     memesets.obj
 0002:0000a118       ??_C@_0BB@LNONGHAF@m_szMatchStatTxt?$AA@ 1009e118     memesets.obj
 0002:0000a12c       ??_C@_0BK@GIDOPPJD@m_nGuardianModeWaveNumber?$AA@ 1009e12c     memesets.obj
 0002:0000a148       ??_C@_0CF@FCBJMBOD@m_nGuardianModeSpecialKillsRemai@ 1009e148     memesets.obj
 0002:0000a170       ??_C@_0CD@OCIFPPFA@m_nGuardianModeSpecialWeaponNeed@ 1009e170     memesets.obj
 0002:0000a194       ??_C@_0BJ@GGGKAAEI@m_nHalloweenMaskListSeed?$AA@ 1009e194     memesets.obj
 0002:0000a1b0       ??_C@_0BG@GDKBNHJD@m_numGlobalGiftsGiven?$AA@ 1009e1b0     memesets.obj
 0002:0000a1c8       ??_C@_0BD@OEOIEEKB@m_numGlobalGifters?$AA@ 1009e1c8     memesets.obj
 0002:0000a1dc       ??_C@_0BO@LKDNLPIA@m_numGlobalGiftsPeriodSeconds?$AA@ 1009e1dc     memesets.obj
 0002:0000a1fc       ??_C@_0BN@PDKAKIJA@m_arrFeaturedGiftersAccounts?$AA@ 1009e1fc     memesets.obj
 0002:0000a21c       ??_C@_0BK@HJLIHIAP@m_arrFeaturedGiftersGifts?$AA@ 1009e21c     memesets.obj
 0002:0000a238       ??_C@_0CE@MBPJGGJ@m_arrTournamentActiveCasterAccou@ 1009e238     memesets.obj
 0002:0000a25c       ??_C@_0N@FAHAMKOH@m_nHitboxSet?$AA@ 1009e25c     memesets.obj
 0002:0000a26c       ??_C@_0BB@POPPCPOC@DT_BaseAnimating?$AA@ 1009e26c     memesets.obj
 0002:0000a280       ??_C@_09CPPOEBIG@xxxxxxxxx?$AA@ 1009e280     Misc.obj
 0002:0000a28c       ??_C@_09JNDMODPH@SVW?$IL?Z?$IL?y?$PP?$BF?$AA@ 1009e28c     Misc.obj
 0002:0000a298       ??_C@_02JOGGLHBA@?2n?$AA@  1009e298     Misc.obj
 0002:0000a29c       ??_C@_02COELENML@?2t?$AA@  1009e29c     Misc.obj
 0002:0000a2a0       ??_C@_01GPOEFGEJ@?7?$AA@   1009e2a0     Misc.obj
 0002:0000a2a4       ??_C@_09FEPHBBFA@yung?4life?$AA@ 1009e2a4     Misc.obj
 0002:0000a2b0       ??_C@_03IKGEINEE@?$CFs?5?$AA@ 1009e2b0     Misc.obj
 0002:0000a2b4       ??_C@_0BB@OKHOGIP@sv_airaccelerate?$AA@ 1009e2b4     Misc.obj
 0002:0000a2c8       ??_C@_0M@NAINEIIC@sv_maxspeed?$AA@ 1009e2c8     Misc.obj
 0002:0000a2d8       __real@3f1921fb60000000    1009e2d8     Misc.obj
 0002:0000a2e0       __real@3fb999999999999a    1009e2e0     Misc.obj
 0002:0000a2e8       __real@3fd54fdf3b645a1d    1009e2e8     Misc.obj
 0002:0000a2f0       __real@3fd921fb60000000    1009e2f0     Misc.obj
 0002:0000a2f8       __real@3fe921fb60000000    1009e2f8     Misc.obj
 0002:0000a300       __real@3ff2d97c88000000    1009e300     Misc.obj
 0002:0000a308       __real@3ff921fb60000000    1009e308     Misc.obj
 0002:0000a310       __real@4004000000000000    1009e310     Misc.obj
 0002:0000a318       __real@400921fb60000000    1009e318     Misc.obj
 0002:0000a320       __real@403e000000000000    1009e320     Misc.obj
 0002:0000a328       __real@3fc6571840000000    1009e328     RageBot.obj
 0002:0000a330       __real@3fe0c15240000000    1009e330     RageBot.obj
 0002:0000a338       __real@406bcfc0659b6018    1009e338     RageBot.obj
 0002:0000a340       __real@4076800000000000    1009e340     RageBot.obj
 0002:0000a348       __real@42960000            1009e348     RageBot.obj
 0002:0000a34c       __real@42d20000            1009e34c     RageBot.obj
 0002:0000a350       __real@42dc0000            1009e350     RageBot.obj
 0002:0000a354       __real@42ec0000            1009e354     RageBot.obj
 0002:0000a358       __real@42fa0000            1009e358     RageBot.obj
 0002:0000a35c       __real@43070000            1009e35c     RageBot.obj
 0002:0000a360       __real@43110000            1009e360     RageBot.obj
 0002:0000a364       __real@431b0000            1009e364     RageBot.obj
 0002:0000a370       __xmm@00000003000000040000000600000007 1009e370     RageBot.obj
 0002:0000a380       __xmm@00000008000000090000001000000012 1009e380     RageBot.obj
 0002:0000a390       __xmm@0000000c0000000d0000000e0000000f 1009e390     RageBot.obj
 0002:0000a3a0       __xmm@00000011000000130000000a0000000b 1009e3a0     RageBot.obj
 0002:0000a3b0       ??_C@_0N@DCGJBAGD@Verdana?5Bold?$AA@ 1009e3b0     Render.obj
 0002:0000a3c0       ??_C@_06IAEPOIJG@Tahoma?$AA@ 1009e3c0     Render.obj
 0002:0000a3c8       ??_C@_0BB@FAJJLNMN@Smallest?5Pixel?97?$AA@ 1009e3c8     Render.obj
 0002:0000a3dc       ??_C@_07EHHHOIHI@Verdana?$AA@ 1009e3dc     Render.obj
 0002:0000a3e8       __real@3f50624dd2f1a9fc    1009e3e8     Render.obj
 0002:0000a3f0       ??_C@_0L@ODBCCLKK@xxxxxxxxxx?$AA@ 1009e3f0     MiscFunctions.obj
 0002:0000a3fc       ??_C@_0L@FLCBOCJD@U?$IL?l?$ID?l0?s?$AP?$BAu?$AA@ 1009e3fc     MiscFunctions.obj
 0002:0000a40c       ??_7ios_base@std@@6B@      1009e40c     Utilities.obj
 0002:0000a414       ??_7?$basic_ios@DU?$char_traits@D@std@@@std@@6B@ 1009e414     Utilities.obj
 0002:0000a41c       ??_7?$basic_ostream@DU?$char_traits@D@std@@@std@@6B@ 1009e41c     Utilities.obj
 0002:0000a420       ??_8?$basic_ostream@DU?$char_traits@D@std@@@std@@7B@ 1009e420     Utilities.obj
 0002:0000a42c       ??_7?$basic_streambuf@DU?$char_traits@D@std@@@std@@6B@ 1009e42c     Utilities.obj
 0002:0000a46c       ??_7?$basic_filebuf@DU?$char_traits@D@std@@@std@@6B@ 1009e46c     Utilities.obj
 0002:0000a4ac       ??_7?$basic_ofstream@DU?$char_traits@D@std@@@std@@6B@ 1009e4ac     Utilities.obj
 0002:0000a4b0       ??_8?$basic_ofstream@DU?$char_traits@D@std@@@std@@7B@ 1009e4b0     Utilities.obj
 0002:0000a4b8       ??_C@_0BA@ELKIONDK@bad?5locale?5name?$AA@ 1009e4b8     Utilities.obj
 0002:0000a4cc       ??_7_Facet_base@std@@6B@   1009e4cc     Utilities.obj
 0002:0000a4dc       ??_7?$ctype@D@std@@6B@     1009e4dc     Utilities.obj
 0002:0000a50c       ??_7_System_error@std@@6B@ 1009e50c     Utilities.obj
 0002:0000a514       ??_C@_02LMMGGCAJ@?3?5?$AA@ 1009e514     Utilities.obj
 0002:0000a51c       ??_7system_error@std@@6B@  1009e51c     Utilities.obj
 0002:0000a528       ??_7_Iostream_error_category@std@@6B@ 1009e528     Utilities.obj
 0002:0000a540       ??_C@_08LLGCOLLL@iostream?$AA@ 1009e540     Utilities.obj
 0002:0000a54c       ??_C@_0BG@PADBLCHM@iostream?5stream?5error?$AA@ 1009e54c     Utilities.obj
 0002:0000a568       ??_7failure@ios_base@std@@6B@ 1009e568     Utilities.obj
 0002:0000a570       ??_C@_0BF@PHHKMMFD@ios_base?3?3badbit?5set?$AA@ 1009e570     Utilities.obj
 0002:0000a588       ??_C@_0BG@FMKFHCIL@ios_base?3?3failbit?5set?$AA@ 1009e588     Utilities.obj
 0002:0000a5a0       ??_C@_0BF@OOHOMBOF@ios_base?3?3eofbit?5set?$AA@ 1009e5a0     Utilities.obj
 0002:0000a5bc       ??_7?$codecvt@DDU_Mbstatet@@@std@@6B@ 1009e5bc     Utilities.obj
 0002:0000a5e8       ??_7type_info@@6B@         1009e5e8     LIBCMT:std_type_info_static.obj
 0002:0000a5f0       ??_C@_1EC@JIJBPKFM@?$AAa?$AAp?$AAi?$AA?9?$AAm?$AAs?$AA?9?$AAw?$AAi?$AAn?$AA?9?$AAc?$AAo?$AAr?$AAe?$AA?9?$AAs?$AAy?$AAn?$AAc?$AAh?$AA?9?$AAl?$AA1?$AA?9?$AA2?$AA?9?$AA0?$AA?4?$AAd?$AAl?$AAl@ 1009e5f0     LIBCMT:thread_safe_statics.obj
 0002:0000a634       ??_C@_1BK@MGMFAEKH@?$AAk?$AAe?$AAr?$AAn?$AAe?$AAl?$AA3?$AA2?$AA?4?$AAd?$AAl?$AAl?$AA?$AA@ 1009e634     LIBCMT:thread_safe_statics.obj
 0002:0000a650       ??_C@_0BM@HLJJNPAH@InitializeConditionVariable?$AA@ 1009e650     LIBCMT:thread_safe_statics.obj
 0002:0000a66c       ??_C@_0BJ@JEBJOJFJ@SleepConditionVariableCS?$AA@ 1009e66c     LIBCMT:thread_safe_statics.obj
 0002:0000a688       ??_C@_0BJ@PGPPEPCC@WakeAllConditionVariable?$AA@ 1009e688     LIBCMT:thread_safe_statics.obj
 0002:0000a73c       __pRawDllMain              1009e73c     LIBCMT:dll_dllmain.obj
 0002:0000a73c       __pDefaultRawDllMain       1009e73c     LIBCMT:dll_dllmain.obj
 0002:0000a744       ??_7bad_alloc@std@@6B@     1009e744     LIBCMT:throw_bad_alloc.obj
 0002:0000a74c       ??_C@_0P@GHFPNOJB@bad?5allocation?$AA@ 1009e74c     LIBCMT:throw_bad_alloc.obj
 0002:0000a760       ??_7bad_array_new_length@std@@6B@ 1009e760     LIBCMT:throw_bad_alloc.obj
 0002:0000a768       ??_C@_0BF@KINCDENJ@bad?5array?5new?5length?$AA@ 1009e768     LIBCMT:throw_bad_alloc.obj
 0002:0000a784       ??_7logic_error@std@@6B@   1009e784     libcpmt:xthrow.obj
 0002:0000a790       ??_7invalid_argument@std@@6B@ 1009e790     libcpmt:xthrow.obj
 0002:0000a79c       ??_7length_error@std@@6B@  1009e79c     libcpmt:xthrow.obj
 0002:0000a7a8       ??_7out_of_range@std@@6B@  1009e7a8     libcpmt:xthrow.obj
 0002:0000a7b0       ??_C@_0BM@EEBBMCOD@invalid?5random_device?5value?$AA@ 1009e7b0     libcpmt:xrngdev.obj
 0002:0000a7d0       ?_BADOFF@std@@3_JB         1009e7d0     libcpmt:ios.obj
 0002:0000a7dc       ??_7_Locimp@locale@std@@6B@ 1009e7dc     libcpmt:locale0.obj
 0002:0000a7e8       ??_C@_01NBENCBCI@?$CK?$AA@ 1009e7e8     libcpmt:locale0.obj
 0002:0000a7ec       ??_C@_0O@BFJCFAAK@unknown?5error?$AA@ 1009e7ec     libcpmt:xonce.obj
 0002:0000acc0       ??_C@_0BN@LKKBCCDB@address?5family?5not?5supported?$AA@ 1009ecc0     libcpmt:syserror.obj
 0002:0000ace0       ??_C@_0P@LDMLAFHI@address?5in?5use?$AA@ 1009ece0     libcpmt:syserror.obj
 0002:0000acf0       ??_C@_0BG@DHPCNBJB@address?5not?5available?$AA@ 1009ecf0     libcpmt:syserror.obj
 0002:0000ad08       ??_C@_0BC@DFIBIBIL@already?5connected?$AA@ 1009ed08     libcpmt:syserror.obj
 0002:0000ad1c       ??_C@_0BH@CAKOHOMI@argument?5list?5too?5long?$AA@ 1009ed1c     libcpmt:syserror.obj
 0002:0000ad34       ??_C@_0BH@CGIMPKIM@argument?5out?5of?5domain?$AA@ 1009ed34     libcpmt:syserror.obj
 0002:0000ad4c       ??_C@_0M@KGHGGJGL@bad?5address?$AA@ 1009ed4c     libcpmt:syserror.obj
 0002:0000ad58       ??_C@_0BE@MPJPGCEO@bad?5file?5descriptor?$AA@ 1009ed58     libcpmt:syserror.obj
 0002:0000ad6c       ??_C@_0M@PMMIEFCP@bad?5message?$AA@ 1009ed6c     libcpmt:syserror.obj
 0002:0000ad78       ??_C@_0M@KPHOFDBE@broken?5pipe?$AA@ 1009ed78     libcpmt:syserror.obj
 0002:0000ad84       ??_C@_0BD@MGNDDEGM@connection?5aborted?$AA@ 1009ed84     libcpmt:syserror.obj
 0002:0000ad98       ??_C@_0BP@KAIHPOGN@connection?5already?5in?5progress?$AA@ 1009ed98     libcpmt:syserror.obj
 0002:0000adb8       ??_C@_0BD@PJLIIJEL@connection?5refused?$AA@ 1009edb8     libcpmt:syserror.obj
 0002:0000adcc       ??_C@_0BB@IECNJNOI@connection?5reset?$AA@ 1009edcc     libcpmt:syserror.obj
 0002:0000ade0       ??_C@_0BC@PPHBOELF@cross?5device?5link?$AA@ 1009ede0     libcpmt:syserror.obj
 0002:0000adf4       ??_C@_0BN@KDMIFEIP@destination?5address?5required?$AA@ 1009edf4     libcpmt:syserror.obj
 0002:0000ae14       ??_C@_0BI@NGCEHDD@device?5or?5resource?5busy?$AA@ 1009ee14     libcpmt:syserror.obj
 0002:0000ae2c       ??_C@_0BE@JIDOCPHM@directory?5not?5empty?$AA@ 1009ee2c     libcpmt:syserror.obj
 0002:0000ae40       ??_C@_0BI@BNCLIGPB@executable?5format?5error?$AA@ 1009ee40     libcpmt:syserror.obj
 0002:0000ae58       ??_C@_0M@MIDIAGJP@file?5exists?$AA@ 1009ee58     libcpmt:syserror.obj
 0002:0000ae64       ??_C@_0P@DNAJLBJK@file?5too?5large?$AA@ 1009ee64     libcpmt:syserror.obj
 0002:0000ae74       ??_C@_0BC@EJHOMAAK@filename?5too?5long?$AA@ 1009ee74     libcpmt:syserror.obj
 0002:0000ae88       ??_C@_0BH@KEFGLDAF@function?5not?5supported?$AA@ 1009ee88     libcpmt:syserror.obj
 0002:0000aea0       ??_C@_0BB@DHFDFGDM@host?5unreachable?$AA@ 1009eea0     libcpmt:syserror.obj
 0002:0000aeb4       ??_C@_0BD@JPHBMONG@identifier?5removed?$AA@ 1009eeb4     libcpmt:syserror.obj
 0002:0000aec8       ??_C@_0BG@CDNPAGJK@illegal?5byte?5sequence?$AA@ 1009eec8     libcpmt:syserror.obj
 0002:0000aee0       ??_C@_0CD@BNPLBMNA@inappropriate?5io?5control?5operati@ 1009eee0     libcpmt:syserror.obj
 0002:0000af04       ??_C@_0M@EGEKIIMP@interrupted?$AA@ 1009ef04     libcpmt:syserror.obj
 0002:0000af10       ??_C@_0BB@FCMFBGOM@invalid?5argument?$AA@ 1009ef10     libcpmt:syserror.obj
 0002:0000af24       ??_C@_0N@OHAFKDEK@invalid?5seek?$AA@ 1009ef24     libcpmt:syserror.obj
 0002:0000af34       ??_C@_08GLNPIFBN@io?5error?$AA@ 1009ef34     libcpmt:syserror.obj
 0002:0000af40       ??_C@_0P@FLLDBIDK@is?5a?5directory?$AA@ 1009ef40     libcpmt:syserror.obj
 0002:0000af50       ??_C@_0N@IFLPBIOP@message?5size?$AA@ 1009ef50     libcpmt:syserror.obj
 0002:0000af60       ??_C@_0N@KIIEAAIO@network?5down?$AA@ 1009ef60     libcpmt:syserror.obj
 0002:0000af70       ??_C@_0O@FNPDBHEE@network?5reset?$AA@ 1009ef70     libcpmt:syserror.obj
 0002:0000af80       ??_C@_0BE@IFNCKGE@network?5unreachable?$AA@ 1009ef80     libcpmt:syserror.obj
 0002:0000af94       ??_C@_0BA@PFFCAOFK@no?5buffer?5space?$AA@ 1009ef94     libcpmt:syserror.obj
 0002:0000afa4       ??_C@_0BB@IEPBLJHK@no?5child?5process?$AA@ 1009efa4     libcpmt:syserror.obj
 0002:0000afb8       ??_C@_07PLECNNKG@no?5link?$AA@ 1009efb8     libcpmt:syserror.obj
 0002:0000afc0       ??_C@_0BC@NJECKMKE@no?5lock?5available?$AA@ 1009efc0     libcpmt:syserror.obj
 0002:0000afd4       ??_C@_0BF@PBGGPKKE@no?5message?5available?$AA@ 1009efd4     libcpmt:syserror.obj
 0002:0000afec       ??_C@_0L@EDOLMPAK@no?5message?$AA@ 1009efec     libcpmt:syserror.obj
 0002:0000aff8       ??_C@_0BD@EAMBFIDF@no?5protocol?5option?$AA@ 1009eff8     libcpmt:syserror.obj
 0002:0000b00c       ??_C@_0BD@IJDJKDEA@no?5space?5on?5device?$AA@ 1009f00c     libcpmt:syserror.obj
 0002:0000b020       ??_C@_0BE@MKFDAFMP@no?5stream?5resources?$AA@ 1009f020     libcpmt:syserror.obj
 0002:0000b034       ??_C@_0BK@IMCPHCBI@no?5such?5device?5or?5address?$AA@ 1009f034     libcpmt:syserror.obj
 0002:0000b050       ??_C@_0P@FDINDDOK@no?5such?5device?$AA@ 1009f050     libcpmt:syserror.obj
 0002:0000b060       ??_C@_0BK@NDOCBPGE@no?5such?5file?5or?5directory?$AA@ 1009f060     libcpmt:syserror.obj
 0002:0000b07c       ??_C@_0BA@ENLPPKBN@no?5such?5process?$AA@ 1009f07c     libcpmt:syserror.obj
 0002:0000b08c       ??_C@_0BA@DOCPFFJG@not?5a?5directory?$AA@ 1009f08c     libcpmt:syserror.obj
 0002:0000b09c       ??_C@_0N@POEIPGGF@not?5a?5socket?$AA@ 1009f09c     libcpmt:syserror.obj
 0002:0000b0ac       ??_C@_0N@LGAPMMPI@not?5a?5stream?$AA@ 1009f0ac     libcpmt:syserror.obj
 0002:0000b0bc       ??_C@_0O@GLMIBBEG@not?5connected?$AA@ 1009f0bc     libcpmt:syserror.obj
 0002:0000b0cc       ??_C@_0BC@ENOOLCNF@not?5enough?5memory?$AA@ 1009f0cc     libcpmt:syserror.obj
 0002:0000b0e0       ??_C@_0O@NHEDABJP@not?5supported?$AA@ 1009f0e0     libcpmt:syserror.obj
 0002:0000b0f0       ??_C@_0BD@MOLBPMEA@operation?5canceled?$AA@ 1009f0f0     libcpmt:syserror.obj
 0002:0000b104       ??_C@_0BG@KDKHOPCO@operation?5in?5progress?$AA@ 1009f104     libcpmt:syserror.obj
 0002:0000b11c       ??_C@_0BI@OHIEJAAB@operation?5not?5permitted?$AA@ 1009f11c     libcpmt:syserror.obj
 0002:0000b134       ??_C@_0BI@LNEGIFLN@operation?5not?5supported?$AA@ 1009f134     libcpmt:syserror.obj
 0002:0000b14c       ??_C@_0BG@OEMDKMEE@operation?5would?5block?$AA@ 1009f14c     libcpmt:syserror.obj
 0002:0000b164       ??_C@_0L@BLPOFLNJ@owner?5dead?$AA@ 1009f164     libcpmt:syserror.obj
 0002:0000b170       ??_C@_0BC@CIJDGCDI@permission?5denied?$AA@ 1009f170     libcpmt:syserror.obj
 0002:0000b184       ??_C@_0P@FNPOCJBE@protocol?5error?$AA@ 1009f184     libcpmt:syserror.obj
 0002:0000b194       ??_C@_0BH@JPPPLHJB@protocol?5not?5supported?$AA@ 1009f194     libcpmt:syserror.obj
 0002:0000b1ac       ??_C@_0BG@EICBIHDP@read?5only?5file?5system?$AA@ 1009f1ac     libcpmt:syserror.obj
 0002:0000b1c4       ??_C@_0BO@BJBOMOEJ@resource?5deadlock?5would?5occur?$AA@ 1009f1c4     libcpmt:syserror.obj
 0002:0000b1e4       ??_C@_0BP@LKNGHENJ@resource?5unavailable?5try?5again?$AA@ 1009f1e4     libcpmt:syserror.obj
 0002:0000b204       ??_C@_0BE@GOIPJJHG@result?5out?5of?5range?$AA@ 1009f204     libcpmt:syserror.obj
 0002:0000b218       ??_C@_0BG@MPLKFPAE@state?5not?5recoverable?$AA@ 1009f218     libcpmt:syserror.obj
 0002:0000b230       ??_C@_0P@DIIFGFCG@stream?5timeout?$AA@ 1009f230     libcpmt:syserror.obj
 0002:0000b240       ??_C@_0P@IPFDMIFL@text?5file?5busy?$AA@ 1009f240     libcpmt:syserror.obj
 0002:0000b250       ??_C@_09KJPPMAOI@timed?5out?$AA@ 1009f250     libcpmt:syserror.obj
 0002:0000b25c       ??_C@_0BO@HACHBEKI@too?5many?5files?5open?5in?5system?$AA@ 1009f25c     libcpmt:syserror.obj
 0002:0000b27c       ??_C@_0BE@GHAFMPAH@too?5many?5files?5open?$AA@ 1009f27c     libcpmt:syserror.obj
 0002:0000b290       ??_C@_0P@HCOMKFCC@too?5many?5links?$AA@ 1009f290     libcpmt:syserror.obj
 0002:0000b2a0       ??_C@_0BO@EFGOJEF@too?5many?5symbolic?5link?5levels?$AA@ 1009f2a0     libcpmt:syserror.obj
 0002:0000b2c0       ??_C@_0BA@KGKGOOJA@value?5too?5large?$AA@ 1009f2c0     libcpmt:syserror.obj
 0002:0000b2d0       ??_C@_0BE@MIEJDDNH@wrong?5protocol?5type?$AA@ 1009f2d0     libcpmt:syserror.obj
 0002:0000b2e4       ??_C@_08KNHFBNJ@FlsAlloc?$AA@ 1009f2e4     libcpmt:winapisupp.obj
 0002:0000b2f0       ??_C@_07PEJMOBNF@FlsFree?$AA@ 1009f2f0     libcpmt:winapisupp.obj
 0002:0000b2f8       ??_C@_0M@GDNOONDI@FlsGetValue?$AA@ 1009f2f8     libcpmt:winapisupp.obj
 0002:0000b304       ??_C@_0M@JCPCPOEF@FlsSetValue?$AA@ 1009f304     libcpmt:winapisupp.obj
 0002:0000b310       ??_C@_0BM@HCFOFFN@InitializeCriticalSectionEx?$AA@ 1009f310     libcpmt:winapisupp.obj
 0002:0000b32c       ??_C@_0BE@GPLMMCMH@InitOnceExecuteOnce?$AA@ 1009f32c     libcpmt:winapisupp.obj
 0002:0000b340       ??_C@_0P@DLHPPCNH@CreateEventExW?$AA@ 1009f340     libcpmt:winapisupp.obj
 0002:0000b350       ??_C@_0BB@MEFPJLHN@CreateSemaphoreW?$AA@ 1009f350     libcpmt:winapisupp.obj
 0002:0000b364       ??_C@_0BD@KIEEOEEH@CreateSemaphoreExW?$AA@ 1009f364     libcpmt:winapisupp.obj
 0002:0000b378       ??_C@_0BG@OGFAJCKC@CreateThreadpoolTimer?$AA@ 1009f378     libcpmt:winapisupp.obj
 0002:0000b390       ??_C@_0BD@LPLEMMDI@SetThreadpoolTimer?$AA@ 1009f390     libcpmt:winapisupp.obj
 0002:0000b3a4       ??_C@_0CA@FMNJENH@WaitForThreadpoolTimerCallbacks?$AA@ 1009f3a4     libcpmt:winapisupp.obj
 0002:0000b3c4       ??_C@_0BF@DCFCCNOC@CloseThreadpoolTimer?$AA@ 1009f3c4     libcpmt:winapisupp.obj
 0002:0000b3dc       ??_C@_0BF@FLABGKKM@CreateThreadpoolWait?$AA@ 1009f3dc     libcpmt:winapisupp.obj
 0002:0000b3f4       ??_C@_0BC@MGCOHNA@SetThreadpoolWait?$AA@ 1009f3f4     libcpmt:winapisupp.obj
 0002:0000b408       ??_C@_0BE@OCIOMIMP@CloseThreadpoolWait?$AA@ 1009f408     libcpmt:winapisupp.obj
 0002:0000b41c       ??_C@_0BJ@LKGHFHBO@FlushProcessWriteBuffers?$AA@ 1009f41c     libcpmt:winapisupp.obj
 0002:0000b438       ??_C@_0BP@KALKKPMO@FreeLibraryWhenCallbackReturns?$AA@ 1009f438     libcpmt:winapisupp.obj
 0002:0000b458       ??_C@_0BK@DFNBACLA@GetCurrentProcessorNumber?$AA@ 1009f458     libcpmt:winapisupp.obj
 0002:0000b474       ??_C@_0BE@FKKLLFLM@CreateSymbolicLinkW?$AA@ 1009f474     libcpmt:winapisupp.obj
 0002:0000b488       ??_C@_0BE@JOGNEJCI@GetCurrentPackageId?$AA@ 1009f488     libcpmt:winapisupp.obj
 0002:0000b49c       ??_C@_0P@CDHHOHKP@GetTickCount64?$AA@ 1009f49c     libcpmt:winapisupp.obj
 0002:0000b4ac       ??_C@_0BN@NEEHBBPO@GetFileInformationByHandleEx?$AA@ 1009f4ac     libcpmt:winapisupp.obj
 0002:0000b4cc       ??_C@_0BL@KBBHGKCM@SetFileInformationByHandle?$AA@ 1009f4cc     libcpmt:winapisupp.obj
 0002:0000b4e8       ??_C@_0BP@FPNJPEJC@GetSystemTimePreciseAsFileTime?$AA@ 1009f4e8     libcpmt:winapisupp.obj
 0002:0000b508       ??_C@_0BG@BFNILBLN@WakeConditionVariable?$AA@ 1009f508     libcpmt:winapisupp.obj
 0002:0000b520       ??_C@_0BC@MMLHEBPB@InitializeSRWLock?$AA@ 1009f520     libcpmt:winapisupp.obj
 0002:0000b534       ??_C@_0BI@OMNLIJDB@AcquireSRWLockExclusive?$AA@ 1009f534     libcpmt:winapisupp.obj
 0002:0000b54c       ??_C@_0BL@OGHFEMNA@TryAcquireSRWLockExclusive?$AA@ 1009f54c     libcpmt:winapisupp.obj
 0002:0000b568       ??_C@_0BI@HMIEPCNJ@ReleaseSRWLockExclusive?$AA@ 1009f568     libcpmt:winapisupp.obj
 0002:0000b580       ??_C@_0BK@LGACAGIC@SleepConditionVariableSRW?$AA@ 1009f580     libcpmt:winapisupp.obj
 0002:0000b59c       ??_C@_0BF@GGPHFPJA@CreateThreadpoolWork?$AA@ 1009f59c     libcpmt:winapisupp.obj
 0002:0000b5b4       ??_C@_0BF@NHDAIMMO@SubmitThreadpoolWork?$AA@ 1009f5b4     libcpmt:winapisupp.obj
 0002:0000b5cc       ??_C@_0BE@NPHIPNPD@CloseThreadpoolWork?$AA@ 1009f5cc     libcpmt:winapisupp.obj
 0002:0000b5e0       ??_C@_0BA@IHGNDAEB@CompareStringEx?$AA@ 1009f5e0     libcpmt:winapisupp.obj
 0002:0000b5f0       ??_C@_0BA@ONOKGCMP@GetLocaleInfoEx?$AA@ 1009f5f0     libcpmt:winapisupp.obj
 0002:0000b600       ??_C@_0O@KKBNKAPF@LCMapStringEx?$AA@ 1009f600     libcpmt:winapisupp.obj
 0002:0000b610       ??_C@_1BG@JLBENFOE@?$AAs?$AAr?$AA?9?$AAb?$AAa?$AA?9?$AAl?$AAa?$AAt?$AAn?$AA?$AA@ 1009f610     libcpmt:winapinls.obj
 0002:0000b628       ??_C@_1BG@KODPNHE@?$AAs?$AAr?$AA?9?$AAs?$AAp?$AA?9?$AAc?$AAy?$AAr?$AAl?$AA?$AA@ 1009f628     libcpmt:winapinls.obj
 0002:0000b640       ??_C@_1BG@CIOGKHPB@?$AAs?$AAr?$AA?9?$AAs?$AAp?$AA?9?$AAl?$AAa?$AAt?$AAn?$AA?$AA@ 1009f640     libcpmt:winapinls.obj
 0002:0000b658       ??_C@_1M@NGFJLMAC@?$AAs?$AAv?$AA?9?$AAf?$AAi?$AA?$AA@ 1009f658     libcpmt:winapinls.obj
 0002:0000b664       ??_C@_1M@MPJEJAJC@?$AAs?$AAv?$AA?9?$AAs?$AAe?$AA?$AA@ 1009f664     libcpmt:winapinls.obj
 0002:0000b670       ??_C@_1M@MPNDHLFK@?$AAs?$AAw?$AA?9?$AAk?$AAe?$AA?$AA@ 1009f670     libcpmt:winapinls.obj
 0002:0000b67c       ??_C@_1O@KOHBJJI@?$AAs?$AAy?$AAr?$AA?9?$AAs?$AAy?$AA?$AA@ 1009f67c     libcpmt:winapinls.obj
 0002:0000b68c       ??_C@_1M@LDCEFHA@?$AAt?$AAa?$AA?9?$AAi?$AAn?$AA?$AA@ 1009f68c     libcpmt:winapinls.obj
 0002:0000b698       ??_C@_1M@CNJOFAK@?$AAt?$AAe?$AA?9?$AAi?$AAn?$AA?$AA@ 1009f698     libcpmt:winapinls.obj
 0002:0000b6a4       ??_C@_1M@GNAECACD@?$AAt?$AAh?$AA?9?$AAt?$AAh?$AA?$AA@ 1009f6a4     libcpmt:winapinls.obj
 0002:0000b6b0       ??_C@_1M@CHBIHOJO@?$AAt?$AAn?$AA?9?$AAz?$AAa?$AA?$AA@ 1009f6b0     libcpmt:winapinls.obj
 0002:0000b6bc       ??_C@_1M@GCCMIGPJ@?$AAt?$AAr?$AA?9?$AAt?$AAr?$AA?$AA@ 1009f6bc     libcpmt:winapinls.obj
 0002:0000b6c8       ??_C@_1M@CELMCNBK@?$AAt?$AAt?$AA?9?$AAr?$AAu?$AA?$AA@ 1009f6c8     libcpmt:winapinls.obj
 0002:0000b6d4       ??_C@_1M@KLMCELGA@?$AAu?$AAk?$AA?9?$AAu?$AAa?$AA?$AA@ 1009f6d4     libcpmt:winapinls.obj
 0002:0000b6e0       ??_C@_1M@EPAJJAJF@?$AAu?$AAr?$AA?9?$AAp?$AAk?$AA?$AA@ 1009f6e0     libcpmt:winapinls.obj
 0002:0000b6ec       ??_C@_1BG@GEGPMCDJ@?$AAu?$AAz?$AA?9?$AAu?$AAz?$AA?9?$AAc?$AAy?$AAr?$AAl?$AA?$AA@ 1009f6ec     libcpmt:winapinls.obj
 0002:0000b704       ??_C@_1BG@EGGKJILM@?$AAu?$AAz?$AA?9?$AAu?$AAz?$AA?9?$AAl?$AAa?$AAt?$AAn?$AA?$AA@ 1009f704     libcpmt:winapinls.obj
 0002:0000b71c       ??_C@_1M@GFOCLFF@?$AAv?$AAi?$AA?9?$AAv?$AAn?$AA?$AA@ 1009f71c     libcpmt:winapinls.obj
 0002:0000b728       ??_C@_1M@CPAMEDFI@?$AAx?$AAh?$AA?9?$AAz?$AAa?$AA?$AA@ 1009f728     libcpmt:winapinls.obj
 0002:0000b734       ??_C@_1O@EBKIFIGN@?$AAz?$AAh?$AA?9?$AAc?$AAh?$AAs?$AA?$AA@ 1009f734     libcpmt:winapinls.obj
 0002:0000b744       ??_C@_1O@NMHPGANE@?$AAz?$AAh?$AA?9?$AAc?$AAh?$AAt?$AA?$AA@ 1009f744     libcpmt:winapinls.obj
 0002:0000b754       ??_C@_1M@LPINJOMC@?$AAz?$AAh?$AA?9?$AAc?$AAn?$AA?$AA@ 1009f754     libcpmt:winapinls.obj
 0002:0000b760       ??_C@_1M@OCJEJODD@?$AAz?$AAh?$AA?9?$AAh?$AAk?$AA?$AA@ 1009f760     libcpmt:winapinls.obj
 0002:0000b76c       ??_C@_1M@DNDLJINH@?$AAz?$AAh?$AA?9?$AAm?$AAo?$AA?$AA@ 1009f76c     libcpmt:winapinls.obj
 0002:0000b778       ??_C@_1M@MBFDNDND@?$AAz?$AAh?$AA?9?$AAs?$AAg?$AA?$AA@ 1009f778     libcpmt:winapinls.obj
 0002:0000b784       ??_C@_1M@IMEPLEPE@?$AAz?$AAh?$AA?9?$AAt?$AAw?$AA?$AA@ 1009f784     libcpmt:winapinls.obj
 0002:0000b790       ??_C@_1M@BBGHNHJP@?$AAz?$AAu?$AA?9?$AAz?$AAa?$AA?$AA@ 1009f790     libcpmt:winapinls.obj
 0002:0000c5e0       ??_C@_15EMKDOKLE@?$AAa?$AAr?$AA?$AA@ 100a05e0     libcpmt:winapinls.obj
 0002:0000c5e8       ??_C@_15KNPADPLH@?$AAb?$AAg?$AA?$AA@ 100a05e8     libcpmt:winapinls.obj
 0002:0000c5f0       ??_C@_15EDMHLDMO@?$AAc?$AAa?$AA?$AA@ 100a05f0     libcpmt:winapinls.obj
 0002:0000c5f8       ??_C@_1O@BPEAJADD@?$AAz?$AAh?$AA?9?$AAC?$AAH?$AAS?$AA?$AA@ 100a05f8     libcpmt:winapinls.obj
 0002:0000c608       ??_C@_15LJNHCMNK@?$AAc?$AAs?$AA?$AA@ 100a0608     libcpmt:winapinls.obj
 0002:0000c610       ??_C@_15FOMCIDHG@?$AAd?$AAa?$AA?$AA@ 100a0610     libcpmt:winapinls.obj
 0002:0000c618       ??_C@_15NBKABECB@?$AAd?$AAe?$AA?$AA@ 100a0618     libcpmt:winapinls.obj
 0002:0000c620       ??_C@_15GHPEIIAO@?$AAe?$AAl?$AA?$AA@ 100a0620     libcpmt:winapinls.obj
 0002:0000c628       ??_C@_15MNPNEAIF@?$AAe?$AAn?$AA?$AA@ 100a0628     libcpmt:winapinls.obj
 0002:0000c630       ??_C@_15GPIOMPMH@?$AAe?$AAs?$AA?$AA@ 100a0630     libcpmt:winapinls.obj
 0002:0000c638       ??_C@_15NGLOAKJC@?$AAf?$AAi?$AA?$AA@ 100a0638     libcpmt:winapinls.obj
 0002:0000c640       ??_C@_15FBKGNKAM@?$AAf?$AAr?$AA?$AA@ 100a0640     libcpmt:winapinls.obj
 0002:0000c648       ??_C@_15KGGCNEFK@?$AAh?$AAe?$AA?$AA@ 100a0648     libcpmt:winapinls.obj
 0002:0000c650       ??_C@_15PGHLIDMF@?$AAh?$AAu?$AA?$AA@ 100a0650     libcpmt:winapinls.obj
 0002:0000c658       ??_C@_15BIEMAPLM@?$AAi?$AAs?$AA?$AA@ 100a0658     libcpmt:winapinls.obj
 0002:0000c660       ??_C@_15IFJLDHAF@?$AAi?$AAt?$AA?$AA@ 100a0660     libcpmt:winapinls.obj
 0002:0000c668       ??_C@_15GEMIOCAG@?$AAj?$AAa?$AA?$AA@ 100a0668     libcpmt:winapinls.obj
 0002:0000c670       ??_C@_15EPELEGJA@?$AAk?$AAo?$AA?$AA@ 100a0670     libcpmt:winapinls.obj
 0002:0000c678       ??_C@_15NDDHIMN@?$AAn?$AAl?$AA?$AA@ 100a0678     libcpmt:winapinls.obj
 0002:0000c680       ??_C@_15BPIGNHCD@?$AAn?$AAo?$AA?$AA@ 100a0680     libcpmt:winapinls.obj
 0002:0000c688       ??_C@_15DEOPBLCG@?$AAp?$AAl?$AA?$AA@ 100a0688     libcpmt:winapinls.obj
 0002:0000c690       ??_C@_15KBECGEFG@?$AAp?$AAt?$AA?$AA@ 100a0690     libcpmt:winapinls.obj
 0002:0000c698       ??_C@_15GLJCBFMD@?$AAr?$AAo?$AA?$AA@ 100a0698     libcpmt:winapinls.obj
 0002:0000c6a0       ??_C@_15FEDGKCDI@?$AAr?$AAu?$AA?$AA@ 100a06a0     libcpmt:winapinls.obj
 0002:0000c6a8       ??_C@_15GLKMLLHM@?$AAh?$AAr?$AA?$AA@ 100a06a8     libcpmt:winapinls.obj
 0002:0000c6b0       ??_C@_15CPKMFBDB@?$AAs?$AAk?$AA?$AA@ 100a06b0     libcpmt:winapinls.obj
 0002:0000c6b8       ??_C@_15BAAIOGMK@?$AAs?$AAq?$AA?$AA@ 100a06b8     libcpmt:winapinls.obj
 0002:0000c6c0       ??_C@_15INNPNOHD@?$AAs?$AAv?$AA?$AA@ 100a06c0     libcpmt:winapinls.obj
 0002:0000c6c8       ??_C@_15CABMMOGH@?$AAt?$AAh?$AA?$AA@ 100a06c8     libcpmt:winapinls.obj
 0002:0000c6d0       ??_C@_15BPLIHJJM@?$AAt?$AAr?$AA?$AA@ 100a06d0     libcpmt:winapinls.obj
 0002:0000c6d8       ??_C@_15NEOEKKDJ@?$AAu?$AAr?$AA?$AA@ 100a06d8     libcpmt:winapinls.obj
 0002:0000c6e0       ??_C@_15NFICGAJK@?$AAi?$AAd?$AA?$AA@ 100a06e0     libcpmt:winapinls.obj
 0002:0000c6e8       ??_C@_15PJPFLCCM@?$AAu?$AAk?$AA?$AA@ 100a06e8     libcpmt:winapinls.obj
 0002:0000c6f0       ??_C@_15HPJPHDM@?$AAb?$AAe?$AA?$AA@ 100a06f0     libcpmt:winapinls.obj
 0002:0000c6f8       ??_C@_15LCHLGJII@?$AAs?$AAl?$AA?$AA@ 100a06f8     libcpmt:winapinls.obj
 0002:0000c700       ??_C@_15PCFJPHHO@?$AAe?$AAt?$AA?$AA@ 100a0700     libcpmt:winapinls.obj
 0002:0000c708       ??_C@_15HPFPGODN@?$AAl?$AAv?$AA?$AA@ 100a0708     libcpmt:winapinls.obj
 0002:0000c710       ??_C@_15NFFGKGLG@?$AAl?$AAt?$AA?$AA@ 100a0710     libcpmt:winapinls.obj
 0002:0000c718       ??_C@_15BDAKCCHN@?$AAf?$AAa?$AA?$AA@ 100a0718     libcpmt:winapinls.obj
 0002:0000c720       ??_C@_15NFGIAIAJ@?$AAv?$AAi?$AA?$AA@ 100a0720     libcpmt:winapinls.obj
 0002:0000c728       ??_C@_15LMKNDMHN@?$AAh?$AAy?$AA?$AA@ 100a0728     libcpmt:winapinls.obj
 0002:0000c730       ??_C@_15IJBHMCFL@?$AAa?$AAz?$AA?$AA@ 100a0730     libcpmt:winapinls.obj
 0002:0000c738       ??_C@_15EKOFJABL@?$AAe?$AAu?$AA?$AA@ 100a0738     libcpmt:winapinls.obj
 0002:0000c740       ??_C@_15BGHADCNK@?$AAm?$AAk?$AA?$AA@ 100a0740     libcpmt:winapinls.obj
 0002:0000c748       ??_C@_15JDNICKHM@?$AAa?$AAf?$AA?$AA@ 100a0748     libcpmt:winapinls.obj
 0002:0000c750       ??_C@_15KPJEDBKD@?$AAk?$AAa?$AA?$AA@ 100a0750     libcpmt:winapinls.obj
 0002:0000c758       ??_C@_15PDNFFFEO@?$AAf?$AAo?$AA?$AA@ 100a0758     libcpmt:winapinls.obj
 0002:0000c760       ??_C@_15OMLEGLOC@?$AAh?$AAi?$AA?$AA@ 100a0760     libcpmt:winapinls.obj
 0002:0000c768       ??_C@_15IDNNENKK@?$AAm?$AAs?$AA?$AA@ 100a0768     libcpmt:winapinls.obj
 0002:0000c770       ??_C@_15MACJNBMH@?$AAk?$AAk?$AA?$AA@ 100a0770     libcpmt:winapinls.obj
 0002:0000c778       ??_C@_15DKDJEOND@?$AAk?$AAy?$AA?$AA@ 100a0778     libcpmt:winapinls.obj
 0002:0000c780       ??_C@_15DFGDLJBG@?$AAs?$AAw?$AA?$AA@ 100a0780     libcpmt:winapinls.obj
 0002:0000c788       ??_C@_15BBFAICNG@?$AAu?$AAz?$AA?$AA@ 100a0788     libcpmt:winapinls.obj
 0002:0000c790       ??_C@_15DKNDCGEA@?$AAt?$AAt?$AA?$AA@ 100a0790     libcpmt:winapinls.obj
 0002:0000c798       ??_C@_15MGIFMDPL@?$AAp?$AAa?$AA?$AA@ 100a0798     libcpmt:winapinls.obj
 0002:0000c7a0       ??_C@_15HCNDBBA@?$AAg?$AAu?$AA?$AA@ 100a07a0     libcpmt:winapinls.obj
 0002:0000c7a8       ??_C@_15FNBEIBON@?$AAt?$AAa?$AA?$AA@ 100a07a8     libcpmt:winapinls.obj
 0002:0000c7b0       ??_C@_15NCHGBGLK@?$AAt?$AAe?$AA?$AA@ 100a07b0     libcpmt:winapinls.obj
 0002:0000c7b8       ??_C@_15PHPHCBPF@?$AAk?$AAn?$AA?$AA@ 100a07b8     libcpmt:winapinls.obj
 0002:0000c7c0       ??_C@_15DLGBCKMP@?$AAm?$AAr?$AA?$AA@ 100a07c0     libcpmt:winapinls.obj
 0002:0000c7c8       ??_C@_15EABBLBFF@?$AAs?$AAa?$AA?$AA@ 100a07c8     libcpmt:winapinls.obj
 0002:0000c7d0       ??_C@_15CBKOMCOI@?$AAm?$AAn?$AA?$AA@ 100a07d0     libcpmt:winapinls.obj
 0002:0000c7d8       ??_C@_15CKDMCJAF@?$AAg?$AAl?$AA?$AA@ 100a07d8     libcpmt:winapinls.obj
 0002:0000c7e0       ??_C@_17CNJFBPG@?$AAk?$AAo?$AAk?$AA?$AA@ 100a07e0     libcpmt:winapinls.obj
 0002:0000c7e8       ??_C@_17FFBJICPL@?$AAs?$AAy?$AAr?$AA?$AA@ 100a07e8     libcpmt:winapinls.obj
 0002:0000c7f0       ??_C@_17KPNDCPAF@?$AAd?$AAi?$AAv?$AA?$AA@ 100a07f0     libcpmt:winapinls.obj
 0002:0000c7f8       ??_C@_11LOCGONAA@?$AA?$AA@ 100a07f8     libcpmt:winapinls.obj
 0002:0000c7fc       ??_C@_1M@OKAHONE@?$AAa?$AAr?$AA?9?$AAS?$AAA?$AA?$AA@ 100a07fc     libcpmt:winapinls.obj
 0002:0000c808       ??_C@_1M@FFFIGIGK@?$AAb?$AAg?$AA?9?$AAB?$AAG?$AA?$AA@ 100a0808     libcpmt:winapinls.obj
 0002:0000c814       ??_C@_1M@BJNKEDC@?$AAc?$AAa?$AA?9?$AAE?$AAS?$AA?$AA@ 100a0814     libcpmt:winapinls.obj
 0002:0000c820       ??_C@_1M@CLNBBOPM@?$AAz?$AAh?$AA?9?$AAT?$AAW?$AA?$AA@ 100a0820     libcpmt:winapinls.obj
 0002:0000c82c       ??_C@_1M@IJJHFJHA@?$AAc?$AAs?$AA?9?$AAC?$AAZ?$AA?$AA@ 100a082c     libcpmt:winapinls.obj
 0002:0000c838       ??_C@_1M@CLPEOBGI@?$AAd?$AAa?$AA?9?$AAD?$AAK?$AA?$AA@ 100a0838     libcpmt:winapinls.obj
 0002:0000c844       ??_C@_1M@MCMADGCB@?$AAd?$AAe?$AA?9?$AAD?$AAE?$AA?$AA@ 100a0844     libcpmt:winapinls.obj
 0002:0000c850       ??_C@_1M@OOCKEMAM@?$AAe?$AAl?$AA?9?$AAG?$AAR?$AA?$AA@ 100a0850     libcpmt:winapinls.obj
 0002:0000c85c       ??_C@_1M@BMHNFIME@?$AAe?$AAn?$AA?9?$AAU?$AAS?$AA?$AA@ 100a085c     libcpmt:winapinls.obj
 0002:0000c868       ??_C@_1M@DDNJFGID@?$AAf?$AAi?$AA?9?$AAF?$AAI?$AA?$AA@ 100a0868     libcpmt:winapinls.obj
 0002:0000c874       ??_C@_1M@GLIPPMAC@?$AAf?$AAr?$AA?9?$AAF?$AAR?$AA?$AA@ 100a0874     libcpmt:winapinls.obj
 0002:0000c880       ??_C@_1M@GFMCHPE@?$AAh?$AAe?$AA?9?$AAI?$AAL?$AA?$AA@ 100a0880     libcpmt:winapinls.obj
 0002:0000c88c       ??_C@_1M@MHLPGNKM@?$AAh?$AAu?$AA?9?$AAH?$AAU?$AA?$AA@ 100a088c     libcpmt:winapinls.obj
 0002:0000c898       ??_C@_1M@LPDDNNPN@?$AAi?$AAs?$AA?9?$AAI?$AAS?$AA?$AA@ 100a0898     libcpmt:winapinls.obj
 0002:0000c8a4       ??_C@_1M@MADIPODN@?$AAi?$AAt?$AA?9?$AAI?$AAT?$AA?$AA@ 100a08a4     libcpmt:winapinls.obj
 0002:0000c8b0       ??_C@_1M@HPNHIDJI@?$AAj?$AAa?$AA?9?$AAJ?$AAP?$AA?$AA@ 100a08b0     libcpmt:winapinls.obj
 0002:0000c8bc       ??_C@_1M@JLOOOEGK@?$AAk?$AAo?$AA?9?$AAK?$AAR?$AA?$AA@ 100a08bc     libcpmt:winapinls.obj
 0002:0000c8c8       ??_C@_1M@IHBJJGG@?$AAn?$AAl?$AA?9?$AAN?$AAL?$AA?$AA@ 100a08c8     libcpmt:winapinls.obj
 0002:0000c8d4       ??_C@_1M@EANAGDL@?$AAn?$AAb?$AA?9?$AAN?$AAO?$AA?$AA@ 100a08d4     libcpmt:winapinls.obj
 0002:0000c8e0       ??_C@_1M@NEIEMEGP@?$AAp?$AAl?$AA?9?$AAP?$AAL?$AA?$AA@ 100a08e0     libcpmt:winapinls.obj
 0002:0000c8ec       ??_C@_1M@BOCFIGEP@?$AAp?$AAt?$AA?9?$AAB?$AAR?$AA?$AA@ 100a08ec     libcpmt:winapinls.obj
 0002:0000c8f8       ??_C@_1M@IMPFOPBG@?$AAr?$AAo?$AA?9?$AAR?$AAO?$AA?$AA@ 100a08f8     libcpmt:winapinls.obj
 0002:0000c904       ??_C@_1M@IDNNEJMM@?$AAr?$AAu?$AA?9?$AAR?$AAU?$AA?$AA@ 100a0904     libcpmt:winapinls.obj
 0002:0000c910       ??_C@_1M@LILEEOGM@?$AAh?$AAr?$AA?9?$AAH?$AAR?$AA?$AA@ 100a0910     libcpmt:winapinls.obj
 0002:0000c91c       ??_C@_1M@FKIFEHPB@?$AAs?$AAk?$AA?9?$AAS?$AAK?$AA?$AA@ 100a091c     libcpmt:winapinls.obj
 0002:0000c928       ??_C@_1M@LJMAMNPJ@?$AAs?$AAq?$AA?9?$AAA?$AAL?$AA?$AA@ 100a0928     libcpmt:winapinls.obj
 0002:0000c934       ??_C@_1M@GIAKDKJK@?$AAs?$AAv?$AA?9?$AAS?$AAE?$AA?$AA@ 100a0934     libcpmt:winapinls.obj
 0002:0000c940       ??_C@_1M@MKJKIKCL@?$AAt?$AAh?$AA?9?$AAT?$AAH?$AA?$AA@ 100a0940     libcpmt:winapinls.obj
 0002:0000c94c       ??_C@_1M@MFLCCMPB@?$AAt?$AAr?$AA?9?$AAT?$AAR?$AA?$AA@ 100a094c     libcpmt:winapinls.obj
 0002:0000c958       ??_C@_1M@OIJHDKJN@?$AAu?$AAr?$AA?9?$AAP?$AAK?$AA?$AA@ 100a0958     libcpmt:winapinls.obj
 0002:0000c964       ??_C@_1M@LHIPCIEK@?$AAi?$AAd?$AA?9?$AAI?$AAD?$AA?$AA@ 100a0964     libcpmt:winapinls.obj
 0002:0000c970       ??_C@_1M@MFMOBGI@?$AAu?$AAk?$AA?9?$AAU?$AAA?$AA?$AA@ 100a0970     libcpmt:winapinls.obj
 0002:0000c97c       ??_C@_1M@OBGLJIPL@?$AAb?$AAe?$AA?9?$AAB?$AAY?$AA?$AA@ 100a097c     libcpmt:winapinls.obj
 0002:0000c988       ??_C@_1M@BCFAJEAD@?$AAs?$AAl?$AA?9?$AAS?$AAI?$AA?$AA@ 100a0988     libcpmt:winapinls.obj
 0002:0000c994       ??_C@_1M@FKFFEDDN@?$AAe?$AAt?$AA?9?$AAE?$AAE?$AA?$AA@ 100a0994     libcpmt:winapinls.obj
 0002:0000c9a0       ??_C@_1M@KGKKAACI@?$AAl?$AAv?$AA?9?$AAL?$AAV?$AA?$AA@ 100a09a0     libcpmt:winapinls.obj
 0002:0000c9ac       ??_C@_1M@IFGBIJO@?$AAl?$AAt?$AA?9?$AAL?$AAT?$AA?$AA@ 100a09ac     libcpmt:winapinls.obj
 0002:0000c9b8       ??_C@_1M@FGEAHEDM@?$AAf?$AAa?$AA?9?$AAI?$AAR?$AA?$AA@ 100a09b8     libcpmt:winapinls.obj
 0002:0000c9c4       ??_C@_1M@KBMAIBFN@?$AAv?$AAi?$AA?9?$AAV?$AAN?$AA?$AA@ 100a09c4     libcpmt:winapinls.obj
 0002:0000c9d0       ??_C@_1M@GPCBKDJK@?$AAh?$AAy?$AA?9?$AAA?$AAM?$AA?$AA@ 100a09d0     libcpmt:winapinls.obj
 0002:0000c9dc       ??_C@_1BG@BECMDDJB@?$AAa?$AAz?$AA?9?$AAA?$AAZ?$AA?9?$AAL?$AAa?$AAt?$AAn?$AA?$AA@ 100a09dc     libcpmt:winapinls.obj
 0002:0000c9f4       ??_C@_1M@MAOFCAEA@?$AAe?$AAu?$AA?9?$AAE?$AAS?$AA?$AA@ 100a09f4     libcpmt:winapinls.obj
 0002:0000ca00       ??_C@_1M@IGHABKPI@?$AAm?$AAk?$AA?9?$AAM?$AAK?$AA?$AA@ 100a0a00     libcpmt:winapinls.obj
 0002:0000ca0c       ??_C@_1M@IAIGNEJG@?$AAt?$AAn?$AA?9?$AAZ?$AAA?$AA?$AA@ 100a0a0c     libcpmt:winapinls.obj
 0002:0000ca18       ??_C@_1M@IIJCOJFA@?$AAx?$AAh?$AA?9?$AAZ?$AAA?$AA?$AA@ 100a0a18     libcpmt:winapinls.obj
 0002:0000ca24       ??_C@_1M@LGPJHNJH@?$AAz?$AAu?$AA?9?$AAZ?$AAA?$AA?$AA@ 100a0a24     libcpmt:winapinls.obj
 0002:0000ca30       ??_C@_1M@HOKAOIO@?$AAa?$AAf?$AA?9?$AAZ?$AAA?$AA?$AA@ 100a0a30     libcpmt:winapinls.obj
 0002:0000ca3c       ??_C@_1M@DPCLHLIE@?$AAk?$AAa?$AA?9?$AAG?$AAE?$AA?$AA@ 100a0a3c     libcpmt:winapinls.obj
 0002:0000ca48       ??_C@_1M@BLKMHJBI@?$AAf?$AAo?$AA?9?$AAF?$AAO?$AA?$AA@ 100a0a48     libcpmt:winapinls.obj
 0002:0000ca54       ??_C@_1M@LGGJAPPB@?$AAh?$AAi?$AA?9?$AAI?$AAN?$AA?$AA@ 100a0a54     libcpmt:winapinls.obj
 0002:0000ca60       ??_C@_1M@FIKPIHFE@?$AAm?$AAt?$AA?9?$AAM?$AAT?$AA?$AA@ 100a0a60     libcpmt:winapinls.obj
 0002:0000ca6c       ??_C@_1M@HEGGPBFA@?$AAs?$AAe?$AA?9?$AAN?$AAO?$AA?$AA@ 100a0a6c     libcpmt:winapinls.obj
 0002:0000ca78       ??_C@_1M@EIBJEEPA@?$AAm?$AAs?$AA?9?$AAM?$AAY?$AA?$AA@ 100a0a78     libcpmt:winapinls.obj
 0002:0000ca84       ??_C@_1M@FHLBGMPP@?$AAk?$AAk?$AA?9?$AAK?$AAZ?$AA?$AA@ 100a0a84     libcpmt:winapinls.obj
 0002:0000ca90       ??_C@_1M@NGJJLCGI@?$AAk?$AAy?$AA?9?$AAK?$AAG?$AA?$AA@ 100a0a90     libcpmt:winapinls.obj
 0002:0000ca9c       ??_C@_1M@GIENNBFC@?$AAs?$AAw?$AA?9?$AAK?$AAE?$AA?$AA@ 100a0a9c     libcpmt:winapinls.obj
 0002:0000caa8       ??_C@_1BG@NDGMJIMJ@?$AAu?$AAz?$AA?9?$AAU?$AAZ?$AA?9?$AAL?$AAa?$AAt?$AAn?$AA?$AA@ 100a0aa8     libcpmt:winapinls.obj
 0002:0000cac0       ??_C@_1M@IDCCIHBC@?$AAt?$AAt?$AA?9?$AAR?$AAU?$AA?$AA@ 100a0ac0     libcpmt:winapinls.obj
 0002:0000cacc       ??_C@_1M@LOICPMOJ@?$AAb?$AAn?$AA?9?$AAI?$AAN?$AA?$AA@ 100a0acc     libcpmt:winapinls.obj
 0002:0000cad8       ??_C@_1M@KPKKNEAH@?$AAp?$AAa?$AA?9?$AAI?$AAN?$AA?$AA@ 100a0ad8     libcpmt:winapinls.obj
 0002:0000cae4       ??_C@_1M@PJGPPBOG@?$AAg?$AAu?$AA?9?$AAI?$AAN?$AA?$AA@ 100a0ae4     libcpmt:winapinls.obj
 0002:0000caf0       ??_C@_1M@KMKMOPHI@?$AAt?$AAa?$AA?9?$AAI?$AAN?$AA?$AA@ 100a0af0     libcpmt:winapinls.obj
 0002:0000cafc       ??_C@_1M@KFEHEPAC@?$AAt?$AAe?$AA?9?$AAI?$AAN?$AA?$AA@ 100a0afc     libcpmt:winapinls.obj
 0002:0000cb08       ??_C@_1M@CDCLMGHI@?$AAk?$AAn?$AA?9?$AAI?$AAN?$AA?$AA@ 100a0b08     libcpmt:winapinls.obj
 0002:0000cb14       ??_C@_1M@MIODLDKF@?$AAm?$AAl?$AA?9?$AAI?$AAN?$AA?$AA@ 100a0b14     libcpmt:winapinls.obj
 0002:0000cb20       ??_C@_1M@PBIEACPO@?$AAm?$AAr?$AA?9?$AAI?$AAN?$AA?$AA@ 100a0b20     libcpmt:winapinls.obj
 0002:0000cb2c       ??_C@_1M@NIDEAGPH@?$AAs?$AAa?$AA?9?$AAI?$AAN?$AA?$AA@ 100a0b2c     libcpmt:winapinls.obj
 0002:0000cb38       ??_C@_1M@FHIHCBIO@?$AAm?$AAn?$AA?9?$AAM?$AAN?$AA?$AA@ 100a0b38     libcpmt:winapinls.obj
 0002:0000cb44       ??_C@_1M@JAIJPENP@?$AAc?$AAy?$AA?9?$AAG?$AAB?$AA?$AA@ 100a0b44     libcpmt:winapinls.obj
 0002:0000cb50       ??_C@_1M@PHGFBEPN@?$AAg?$AAl?$AA?9?$AAE?$AAS?$AA?$AA@ 100a0b50     libcpmt:winapinls.obj
 0002:0000cb5c       ??_C@_1O@KPIPDNCP@?$AAk?$AAo?$AAk?$AA?9?$AAI?$AAN?$AA?$AA@ 100a0b5c     libcpmt:winapinls.obj
 0002:0000cb6c       ??_C@_1O@KNHJLDJA@?$AAs?$AAy?$AAr?$AA?9?$AAS?$AAY?$AA?$AA@ 100a0b6c     libcpmt:winapinls.obj
 0002:0000cb7c       ??_C@_1O@MKEKBLAH@?$AAd?$AAi?$AAv?$AA?9?$AAM?$AAV?$AA?$AA@ 100a0b7c     libcpmt:winapinls.obj
 0002:0000cb8c       ??_C@_1O@OHDCKDDF@?$AAq?$AAu?$AAz?$AA?9?$AAB?$AAO?$AA?$AA@ 100a0b8c     libcpmt:winapinls.obj
 0002:0000cb9c       ??_C@_1M@LEPJNLFD@?$AAn?$AAs?$AA?9?$AAZ?$AAA?$AA?$AA@ 100a0b9c     libcpmt:winapinls.obj
 0002:0000cba8       ??_C@_1M@OMLEIIJB@?$AAm?$AAi?$AA?9?$AAN?$AAZ?$AA?$AA@ 100a0ba8     libcpmt:winapinls.obj
 0002:0000cbb4       ??_C@_1M@PMPEAILG@?$AAa?$AAr?$AA?9?$AAI?$AAQ?$AA?$AA@ 100a0bb4     libcpmt:winapinls.obj
 0002:0000cbc0       ??_C@_1M@BIBDDEMK@?$AAz?$AAh?$AA?9?$AAC?$AAN?$AA?$AA@ 100a0bc0     libcpmt:winapinls.obj
 0002:0000cbcc       ??_C@_1M@CNKPNOEE@?$AAd?$AAe?$AA?9?$AAC?$AAH?$AA?$AA@ 100a0bcc     libcpmt:winapinls.obj
 0002:0000cbd8       ??_C@_1M@LKMGMLKO@?$AAe?$AAn?$AA?9?$AAG?$AAB?$AA?$AA@ 100a0bd8     libcpmt:winapinls.obj
 0002:0000cbe4       ??_C@_1M@PGKJFFGL@?$AAe?$AAs?$AA?9?$AAM?$AAX?$AA?$AA@ 100a0be4     libcpmt:winapinls.obj
 0002:0000cbf0       ??_C@_1M@DNNANBDC@?$AAf?$AAr?$AA?9?$AAB?$AAE?$AA?$AA@ 100a0bf0     libcpmt:winapinls.obj
 0002:0000cbfc       ??_C@_1M@HLGMDFHM@?$AAi?$AAt?$AA?9?$AAC?$AAH?$AA?$AA@ 100a0bfc     libcpmt:winapinls.obj
 0002:0000cc08       ??_C@_1M@CLLBGJH@?$AAn?$AAl?$AA?9?$AAB?$AAE?$AA?$AA@ 100a0c08     libcpmt:winapinls.obj
 0002:0000cc14       ??_C@_1M@BODBOGLF@?$AAn?$AAn?$AA?9?$AAN?$AAO?$AA?$AA@ 100a0c14     libcpmt:winapinls.obj
 0002:0000cc20       ??_C@_1M@HFFAHKAD@?$AAp?$AAt?$AA?9?$AAP?$AAT?$AA?$AA@ 100a0c20     libcpmt:winapinls.obj
 0002:0000cc2c       ??_C@_1BG@LNOAKHIE@?$AAs?$AAr?$AA?9?$AAS?$AAP?$AA?9?$AAL?$AAa?$AAt?$AAn?$AA?$AA@ 100a0c2c     libcpmt:winapinls.obj
 0002:0000cc44       ??_C@_1M@HBMHBGAK@?$AAs?$AAv?$AA?9?$AAF?$AAI?$AA?$AA@ 100a0c44     libcpmt:winapinls.obj
 0002:0000cc50       ??_C@_1BG@DGCJGJBE@?$AAa?$AAz?$AA?9?$AAA?$AAZ?$AA?9?$AAC?$AAy?$AAr?$AAl?$AA?$AA@ 100a0c50     libcpmt:winapinls.obj
 0002:0000cc68       ??_C@_1M@KEJDAAHB@?$AAs?$AAe?$AA?9?$AAS?$AAE?$AA?$AA@ 100a0c68     libcpmt:winapinls.obj
 0002:0000cc74       ??_C@_1M@HEIBJJAD@?$AAm?$AAs?$AA?9?$AAB?$AAN?$AA?$AA@ 100a0c74     libcpmt:winapinls.obj
 0002:0000cc80       ??_C@_1BG@PBGJMCEM@?$AAu?$AAz?$AA?9?$AAU?$AAZ?$AA?9?$AAC?$AAy?$AAr?$AAl?$AA?$AA@ 100a0c80     libcpmt:winapinls.obj
 0002:0000cc98       ??_C@_1O@LAOBCMDF@?$AAq?$AAu?$AAz?$AA?9?$AAE?$AAC?$AA?$AA@ 100a0c98     libcpmt:winapinls.obj
 0002:0000cca8       ??_C@_1M@POEEMAIO@?$AAa?$AAr?$AA?9?$AAE?$AAG?$AA?$AA@ 100a0ca8     libcpmt:winapinls.obj
 0002:0000ccb4       ??_C@_1M@EFAKDEDL@?$AAz?$AAh?$AA?9?$AAH?$AAK?$AA?$AA@ 100a0cb4     libcpmt:winapinls.obj
 0002:0000ccc0       ??_C@_1M@HKKIJHGI@?$AAd?$AAe?$AA?9?$AAA?$AAT?$AA?$AA@ 100a0cc0     libcpmt:winapinls.obj
 0002:0000cccc       ??_C@_1M@KBFBEHJF@?$AAe?$AAn?$AA?9?$AAA?$AAU?$AA?$AA@ 100a0ccc     libcpmt:winapinls.obj
 0002:0000ccd8       ??_C@_1M@MNPLFAAH@?$AAe?$AAs?$AA?9?$AAE?$AAS?$AA?$AA@ 100a0cd8     libcpmt:winapinls.obj
 0002:0000cce4       ??_C@_1M@HJOOJFMA@?$AAf?$AAr?$AA?9?$AAC?$AAA?$AA?$AA@ 100a0ce4     libcpmt:winapinls.obj
 0002:0000ccf0       ??_C@_1BG@JPOFPNAB@?$AAs?$AAr?$AA?9?$AAS?$AAP?$AA?9?$AAC?$AAy?$AAr?$AAl?$AA?$AA@ 100a0cf0     libcpmt:winapinls.obj
 0002:0000cd08       ??_C@_1M@LNFOCMOB@?$AAs?$AAe?$AA?9?$AAF?$AAI?$AA?$AA@ 100a0d08     libcpmt:winapinls.obj
 0002:0000cd14       ??_C@_1O@MGJBOAMB@?$AAq?$AAu?$AAz?$AA?9?$AAP?$AAE?$AA?$AA@ 100a0d14     libcpmt:winapinls.obj
 0002:0000cd24       ??_C@_1M@GJINLBOK@?$AAa?$AAr?$AA?9?$AAL?$AAY?$AA?$AA@ 100a0d24     libcpmt:winapinls.obj
 0002:0000cd30       ??_C@_1M@GGMNHJNL@?$AAz?$AAh?$AA?9?$AAS?$AAG?$AA?$AA@ 100a0d30     libcpmt:winapinls.obj
 0002:0000cd3c       ??_C@_1M@HOIKODND@?$AAd?$AAe?$AA?9?$AAL?$AAU?$AA?$AA@ 100a0d3c     libcpmt:winapinls.obj
 0002:0000cd48       ??_C@_1M@DDOCCGFG@?$AAe?$AAn?$AA?9?$AAC?$AAA?$AA?$AA@ 100a0d48     libcpmt:winapinls.obj
 0002:0000cd54       ??_C@_1M@BNOEMJLF@?$AAe?$AAs?$AA?9?$AAG?$AAT?$AA?$AA@ 100a0d54     libcpmt:winapinls.obj
 0002:0000cd60       ??_C@_1M@EOGNKEK@?$AAf?$AAr?$AA?9?$AAC?$AAH?$AA?$AA@ 100a0d60     libcpmt:winapinls.obj
 0002:0000cd6c       ??_C@_1M@FLIDJFHL@?$AAh?$AAr?$AA?9?$AAB?$AAA?$AA?$AA@ 100a0d6c     libcpmt:winapinls.obj
 0002:0000cd78       ??_C@_1O@FMCELNAJ@?$AAs?$AAm?$AAj?$AA?9?$AAN?$AAO?$AA?$AA@ 100a0d78     libcpmt:winapinls.obj
 0002:0000cd88       ??_C@_1M@JHGLJMGJ@?$AAa?$AAr?$AA?9?$AAD?$AAZ?$AA?$AA@ 100a0d88     libcpmt:winapinls.obj
 0002:0000cd94       ??_C@_1M@JKKFDCNP@?$AAz?$AAh?$AA?9?$AAM?$AAO?$AA?$AA@ 100a0d94     libcpmt:winapinls.obj
 0002:0000cda0       ??_C@_1M@GEEFALPE@?$AAd?$AAe?$AA?9?$AAL?$AAI?$AA?$AA@ 100a0da0     libcpmt:winapinls.obj
 0002:0000cdac       ??_C@_1M@IGEOFBG@?$AAe?$AAn?$AA?9?$AAN?$AAZ?$AA?$AA@ 100a0dac     libcpmt:winapinls.obj
 0002:0000cdb8       ??_C@_1M@KDBONEHP@?$AAe?$AAs?$AA?9?$AAC?$AAR?$AA?$AA@ 100a0db8     libcpmt:winapinls.obj
 0002:0000cdc4       ??_C@_1M@FHMDOHNN@?$AAf?$AAr?$AA?9?$AAL?$AAU?$AA?$AA@ 100a0dc4     libcpmt:winapinls.obj
 0002:0000cdd0       ??_C@_1BG@NFKKMAFG@?$AAb?$AAs?$AA?9?$AAB?$AAA?$AA?9?$AAL?$AAa?$AAt?$AAn?$AA?$AA@ 100a0dd0     libcpmt:winapinls.obj
 0002:0000cde8       ??_C@_1O@IMNBEMCI@?$AAs?$AAm?$AAj?$AA?9?$AAS?$AAE?$AA?$AA@ 100a0de8     libcpmt:winapinls.obj
 0002:0000cdf8       ??_C@_1M@DHHMBNDP@?$AAa?$AAr?$AA?9?$AAM?$AAA?$AA?$AA@ 100a0df8     libcpmt:winapinls.obj
 0002:0000ce04       ??_C@_1M@BNBLJCGH@?$AAe?$AAn?$AA?9?$AAI?$AAE?$AA?$AA@ 100a0e04     libcpmt:winapinls.obj
 0002:0000ce10       ??_C@_1M@GEPAFMDL@?$AAe?$AAs?$AA?9?$AAP?$AAA?$AA?$AA@ 100a0e10     libcpmt:winapinls.obj
 0002:0000ce1c       ??_C@_1M@OJONDMDL@?$AAf?$AAr?$AA?9?$AAM?$AAC?$AA?$AA@ 100a0e1c     libcpmt:winapinls.obj
 0002:0000ce28       ??_C@_1BG@OBCNFJB@?$AAs?$AAr?$AA?9?$AAB?$AAA?$AA?9?$AAL?$AAa?$AAt?$AAn?$AA?$AA@ 100a0e28     libcpmt:winapinls.obj
 0002:0000ce40       ??_C@_1O@KEMEEGPO@?$AAs?$AAm?$AAa?$AA?9?$AAN?$AAO?$AA?$AA@ 100a0e40     libcpmt:winapinls.obj
 0002:0000ce50       ??_C@_1M@ELMGFODK@?$AAa?$AAr?$AA?9?$AAT?$AAN?$AA?$AA@ 100a0e50     libcpmt:winapinls.obj
 0002:0000ce5c       ??_C@_1M@BHDLHFAF@?$AAe?$AAn?$AA?9?$AAZ?$AAA?$AA?$AA@ 100a0e5c     libcpmt:winapinls.obj
 0002:0000ce68       ??_C@_1M@BMGIGLIF@?$AAe?$AAs?$AA?9?$AAD?$AAO?$AA?$AA@ 100a0e68     libcpmt:winapinls.obj
 0002:0000ce74       ??_C@_1BG@CMBHIPBE@?$AAs?$AAr?$AA?9?$AAB?$AAA?$AA?9?$AAC?$AAy?$AAr?$AAl?$AA?$AA@ 100a0e74     libcpmt:winapinls.obj
 0002:0000ce8c       ??_C@_1O@HEDBLHNP@?$AAs?$AAm?$AAa?$AA?9?$AAS?$AAE?$AA?$AA@ 100a0e8c     libcpmt:winapinls.obj
 0002:0000ce9c       ??_C@_1M@DAGCADIM@?$AAa?$AAr?$AA?9?$AAO?$AAM?$AA?$AA@ 100a0e9c     libcpmt:winapinls.obj
 0002:0000cea8       ??_C@_1M@FODLMICG@?$AAe?$AAn?$AA?9?$AAJ?$AAM?$AA?$AA@ 100a0ea8     libcpmt:winapinls.obj
 0002:0000ceb4       ??_C@_1M@DNMLCIHB@?$AAe?$AAs?$AA?9?$AAV?$AAE?$AA?$AA@ 100a0eb4     libcpmt:winapinls.obj
 0002:0000cec0       ??_C@_1O@EOKHMKJK@?$AAs?$AAm?$AAs?$AA?9?$AAF?$AAI?$AA?$AA@ 100a0ec0     libcpmt:winapinls.obj
 0002:0000ced0       ??_C@_1M@CAFJMKOF@?$AAa?$AAr?$AA?9?$AAY?$AAE?$AA?$AA@ 100a0ed0     libcpmt:winapinls.obj
 0002:0000cedc       ??_C@_1M@CBFHIJLI@?$AAe?$AAn?$AA?9?$AAC?$AAB?$AA?$AA@ 100a0edc     libcpmt:winapinls.obj
 0002:0000cee8       ??_C@_1M@BGNFLDN@?$AAe?$AAs?$AA?9?$AAC?$AAO?$AA?$AA@ 100a0ee8     libcpmt:winapinls.obj
 0002:0000cef4       ??_C@_1O@JMPHMAMC@?$AAs?$AAm?$AAn?$AA?9?$AAF?$AAI?$AA?$AA@ 100a0ef4     libcpmt:winapinls.obj
 0002:0000cf04       ??_C@_1M@JLANABKE@?$AAa?$AAr?$AA?9?$AAS?$AAY?$AA?$AA@ 100a0f04     libcpmt:winapinls.obj
 0002:0000cf10       ??_C@_1M@HPKGCFGN@?$AAe?$AAn?$AA?9?$AAB?$AAZ?$AA?$AA@ 100a0f10     libcpmt:winapinls.obj
 0002:0000cf1c       ??_C@_1M@OLJCMLGM@?$AAe?$AAs?$AA?9?$AAP?$AAE?$AA?$AA@ 100a0f1c     libcpmt:winapinls.obj
 0002:0000cf28       ??_C@_1M@MKKGFKLE@?$AAa?$AAr?$AA?9?$AAJ?$AAO?$AA?$AA@ 100a0f28     libcpmt:winapinls.obj
 0002:0000cf34       ??_C@_1M@EKPGLDNI@?$AAe?$AAn?$AA?9?$AAT?$AAT?$AA?$AA@ 100a0f34     libcpmt:winapinls.obj
 0002:0000cf40       ??_C@_1M@OONGHFHE@?$AAe?$AAs?$AA?9?$AAA?$AAR?$AA?$AA@ 100a0f40     libcpmt:winapinls.obj
 0002:0000cf4c       ??_C@_1M@OOJFGBHE@?$AAa?$AAr?$AA?9?$AAL?$AAB?$AA?$AA@ 100a0f4c     libcpmt:winapinls.obj
 0002:0000cf58       ??_C@_1M@GCEJHNEG@?$AAe?$AAn?$AA?9?$AAZ?$AAW?$AA?$AA@ 100a0f58     libcpmt:winapinls.obj
 0002:0000cf64       ??_C@_1M@JNOCAHJI@?$AAe?$AAs?$AA?9?$AAE?$AAC?$AA?$AA@ 100a0f64     libcpmt:winapinls.obj
 0002:0000cf70       ??_C@_1M@JEFHPGGB@?$AAa?$AAr?$AA?9?$AAK?$AAW?$AA?$AA@ 100a0f70     libcpmt:winapinls.obj
 0002:0000cf7c       ??_C@_1M@MLKIBJOJ@?$AAe?$AAn?$AA?9?$AAP?$AAH?$AA?$AA@ 100a0f7c     libcpmt:winapinls.obj
 0002:0000cf88       ??_C@_1M@BDNIPEND@?$AAe?$AAs?$AA?9?$AAC?$AAL?$AA?$AA@ 100a0f88     libcpmt:winapinls.obj
 0002:0000cf94       ??_C@_1M@MPNMEKBD@?$AAa?$AAr?$AA?9?$AAA?$AAE?$AA?$AA@ 100a0f94     libcpmt:winapinls.obj
 0002:0000cfa0       ??_C@_1M@KBJALCPI@?$AAe?$AAs?$AA?9?$AAU?$AAY?$AA?$AA@ 100a0fa0     libcpmt:winapinls.obj
 0002:0000cfac       ??_C@_1M@LLCCOAGA@?$AAa?$AAr?$AA?9?$AAB?$AAH?$AA?$AA@ 100a0fac     libcpmt:winapinls.obj
 0002:0000cfb8       ??_C@_1M@PBFNCDEL@?$AAe?$AAs?$AA?9?$AAP?$AAY?$AA?$AA@ 100a0fb8     libcpmt:winapinls.obj
 0002:0000cfc4       ??_C@_1M@EDGINPNP@?$AAa?$AAr?$AA?9?$AAQ?$AAA?$AA?$AA@ 100a0fc4     libcpmt:winapinls.obj
 0002:0000cfd0       ??_C@_1M@MKDBIIJI@?$AAe?$AAs?$AA?9?$AAB?$AAO?$AA?$AA@ 100a0fd0     libcpmt:winapinls.obj
 0002:0000cfdc       ??_C@_1M@CPKKEBLD@?$AAe?$AAs?$AA?9?$AAS?$AAV?$AA?$AA@ 100a0fdc     libcpmt:winapinls.obj
 0002:0000cfe8       ??_C@_1M@NDBGMMJL@?$AAe?$AAs?$AA?9?$AAH?$AAN?$AA?$AA@ 100a0fe8     libcpmt:winapinls.obj
 0002:0000cff4       ??_C@_1M@JIJIBHDP@?$AAe?$AAs?$AA?9?$AAN?$AAI?$AA?$AA@ 100a0ff4     libcpmt:winapinls.obj
 0002:0000d000       ??_C@_1M@CGFMKEEK@?$AAe?$AAs?$AA?9?$AAP?$AAR?$AA?$AA@ 100a1000     libcpmt:winapinls.obj
 0002:0000d00c       ??_C@_1O@ICJHKIIK@?$AAz?$AAh?$AA?9?$AAC?$AAH?$AAT?$AA?$AA@ 100a100c     libcpmt:winapinls.obj
 0002:0000d01c       ??_C@_15CLNEJCE@?$AAs?$AAr?$AA?$AA@ 100a101c     libcpmt:winapinls.obj
 0002:0000d024       ??_C@_1M@KAHEKEIG@?$AAa?$AAf?$AA?9?$AAz?$AAa?$AA?$AA@ 100a1024     libcpmt:winapinls.obj
 0002:0000d030       ??_C@_1M@GIECOABL@?$AAa?$AAr?$AA?9?$AAa?$AAe?$AA?$AA@ 100a1030     libcpmt:winapinls.obj
 0002:0000d03c       ??_C@_1M@BMLMEKGI@?$AAa?$AAr?$AA?9?$AAb?$AAh?$AA?$AA@ 100a103c     libcpmt:winapinls.obj
 0002:0000d048       ??_C@_1M@DAPFDGGB@?$AAa?$AAr?$AA?9?$AAd?$AAz?$AA?$AA@ 100a1048     libcpmt:winapinls.obj
 0002:0000d054       ??_C@_1M@FJNKGKIG@?$AAa?$AAr?$AA?9?$AAe?$AAg?$AA?$AA@ 100a1054     libcpmt:winapinls.obj
 0002:0000d060       ??_C@_1M@FLGKKCLO@?$AAa?$AAr?$AA?9?$AAi?$AAq?$AA?$AA@ 100a1060     libcpmt:winapinls.obj
 0002:0000d06c       ??_C@_1M@GNDIPALM@?$AAa?$AAr?$AA?9?$AAj?$AAo?$AA?$AA@ 100a106c     libcpmt:winapinls.obj
 0002:0000d078       ??_C@_1M@DDMJFMGJ@?$AAa?$AAr?$AA?9?$AAk?$AAw?$AA?$AA@ 100a1078     libcpmt:winapinls.obj
 0002:0000d084       ??_C@_1M@EJALMLHM@?$AAa?$AAr?$AA?9?$AAl?$AAb?$AA?$AA@ 100a1084     libcpmt:winapinls.obj
 0002:0000d090       ??_C@_1M@MOBDBLOC@?$AAa?$AAr?$AA?9?$AAl?$AAy?$AA?$AA@ 100a1090     libcpmt:winapinls.obj
 0002:0000d09c       ??_C@_1M@JAOCLHDH@?$AAa?$AAr?$AA?9?$AAm?$AAa?$AA?$AA@ 100a109c     libcpmt:winapinls.obj
 0002:0000d0a8       ??_C@_1M@JHPMKJIE@?$AAa?$AAr?$AA?9?$AAo?$AAm?$AA?$AA@ 100a10a8     libcpmt:winapinls.obj
 0002:0000d0b4       ??_C@_1M@OEPGHFNH@?$AAa?$AAr?$AA?9?$AAq?$AAa?$AA?$AA@ 100a10b4     libcpmt:winapinls.obj
 0002:0000d0c0       ??_C@_1M@KJDONENM@?$AAa?$AAr?$AA?9?$AAs?$AAa?$AA?$AA@ 100a10c0     libcpmt:winapinls.obj
 0002:0000d0cc       ??_C@_1M@DMJDKLKM@?$AAa?$AAr?$AA?9?$AAs?$AAy?$AA?$AA@ 100a10cc     libcpmt:winapinls.obj
 0002:0000d0d8       ??_C@_1M@OMFIPEDC@?$AAa?$AAr?$AA?9?$AAt?$AAn?$AA?$AA@ 100a10d8     libcpmt:winapinls.obj
 0002:0000d0e4       ??_C@_1M@IHMHGAON@?$AAa?$AAr?$AA?9?$AAy?$AAe?$AA?$AA@ 100a10e4     libcpmt:winapinls.obj
 0002:0000d0f0       ??_C@_1BG@KDCPGJGB@?$AAa?$AAz?$AA?9?$AAa?$AAz?$AA?9?$AAc?$AAy?$AAr?$AAl?$AA?$AA@ 100a10f0     libcpmt:winapinls.obj
 0002:0000d108       ??_C@_1BG@IBCKDDOE@?$AAa?$AAz?$AA?9?$AAa?$AAz?$AA?9?$AAl?$AAa?$AAt?$AAn?$AA?$AA@ 100a1108     libcpmt:winapinls.obj
 0002:0000d120       ??_C@_1M@EGPFDCPD@?$AAb?$AAe?$AA?9?$AAb?$AAy?$AA?$AA@ 100a1120     libcpmt:winapinls.obj
 0002:0000d12c       ??_C@_1M@PCMGMCGC@?$AAb?$AAg?$AA?9?$AAb?$AAg?$AA?$AA@ 100a112c     libcpmt:winapinls.obj
 0002:0000d138       ??_C@_1M@BJBMFGOB@?$AAb?$AAn?$AA?9?$AAi?$AAn?$AA?$AA@ 100a1138     libcpmt:winapinls.obj
 0002:0000d144       ??_C@_1BG@EAKMMACD@?$AAb?$AAs?$AA?9?$AAb?$AAa?$AA?9?$AAl?$AAa?$AAt?$AAn?$AA?$AA@ 100a1144     libcpmt:winapinls.obj
 0002:0000d15c       ??_C@_1M@KGADAODK@?$AAc?$AAa?$AA?9?$AAe?$AAs?$AA?$AA@ 100a115c     libcpmt:winapinls.obj
 0002:0000d168       ??_C@_1M@COAJPDHI@?$AAc?$AAs?$AA?9?$AAc?$AAz?$AA?$AA@ 100a1168     libcpmt:winapinls.obj
 0002:0000d174       ??_C@_1M@DHBHFONH@?$AAc?$AAy?$AA?9?$AAg?$AAb?$AA?$AA@ 100a1174     libcpmt:winapinls.obj
 0002:0000d180       ??_C@_1M@IMGKELGA@?$AAd?$AAa?$AA?9?$AAd?$AAk?$AA?$AA@ 100a1180     libcpmt:winapinls.obj
 0002:0000d18c       ??_C@_1M@NNDGDNGA@?$AAd?$AAe?$AA?9?$AAa?$AAt?$AA?$AA@ 100a118c     libcpmt:winapinls.obj
 0002:0000d198       ??_C@_1M@IKDBHEEM@?$AAd?$AAe?$AA?9?$AAc?$AAh?$AA?$AA@ 100a1198     libcpmt:winapinls.obj
 0002:0000d1a4       ??_C@_1M@GFFOJMCJ@?$AAd?$AAe?$AA?9?$AAd?$AAe?$AA?$AA@ 100a11a4     libcpmt:winapinls.obj
 0002:0000d1b0       ??_C@_1M@MDNLKBPM@?$AAd?$AAe?$AA?9?$AAl?$AAi?$AA?$AA@ 100a11b0     libcpmt:winapinls.obj
 0002:0000d1bc       ??_C@_1M@NJBEEJNL@?$AAd?$AAe?$AA?9?$AAl?$AAu?$AA?$AA@ 100a11bc     libcpmt:winapinls.obj
 0002:0000d1c8       ??_C@_1O@GNNELBAP@?$AAd?$AAi?$AAv?$AA?9?$AAm?$AAv?$AA?$AA@ 100a11c8     libcpmt:winapinls.obj
 0002:0000d1d8       ??_C@_1M@EJLEOGAE@?$AAe?$AAl?$AA?9?$AAg?$AAr?$AA?$AA@ 100a11d8     libcpmt:winapinls.obj
 0002:0000d1e4       ??_C@_1M@GMPONJN@?$AAe?$AAn?$AA?9?$AAa?$AAu?$AA?$AA@ 100a11e4     libcpmt:winapinls.obj
 0002:0000d1f0       ??_C@_1M@NIDIIPGF@?$AAe?$AAn?$AA?9?$AAb?$AAz?$AA?$AA@ 100a11f0     libcpmt:winapinls.obj
 0002:0000d1fc       ??_C@_1M@JEHMIMFO@?$AAe?$AAn?$AA?9?$AAc?$AAa?$AA?$AA@ 100a11fc     libcpmt:winapinls.obj
 0002:0000d208       ??_C@_1M@IGMJCDLA@?$AAe?$AAn?$AA?9?$AAc?$AAb?$AA?$AA@ 100a1208     libcpmt:winapinls.obj
 0002:0000d214       ??_C@_1M@BNFIGBKG@?$AAe?$AAn?$AA?9?$AAg?$AAb?$AA?$AA@ 100a1214     libcpmt:winapinls.obj
 0002:0000d220       ??_C@_1M@LKIFDIGP@?$AAe?$AAn?$AA?9?$AAi?$AAe?$AA?$AA@ 100a1220     libcpmt:winapinls.obj
 0002:0000d22c       ??_C@_1M@PJKFGCCO@?$AAe?$AAn?$AA?9?$AAj?$AAm?$AA?$AA@ 100a122c     libcpmt:winapinls.obj
 0002:0000d238       ??_C@_1M@KPPKEPBO@?$AAe?$AAn?$AA?9?$AAn?$AAz?$AA?$AA@ 100a1238     libcpmt:winapinls.obj
 0002:0000d244       ??_C@_1M@GMDGLDOB@?$AAe?$AAn?$AA?9?$AAp?$AAh?$AA?$AA@ 100a1244     libcpmt:winapinls.obj
 0002:0000d250       ??_C@_1M@ONGIBJNA@?$AAe?$AAn?$AA?9?$AAt?$AAt?$AA?$AA@ 100a1250     libcpmt:winapinls.obj
 0002:0000d25c       ??_C@_1M@LLODPCMM@?$AAe?$AAn?$AA?9?$AAu?$AAs?$AA?$AA@ 100a125c     libcpmt:winapinls.obj
 0002:0000d268       ??_C@_1M@LAKFNPAN@?$AAe?$AAn?$AA?9?$AAz?$AAa?$AA?$AA@ 100a1268     libcpmt:winapinls.obj
 0002:0000d274       ??_C@_1M@MFNHNHEO@?$AAe?$AAn?$AA?9?$AAz?$AAw?$AA?$AA@ 100a1274     libcpmt:winapinls.obj
 0002:0000d280       ??_C@_1M@EJEINPHM@?$AAe?$AAs?$AA?9?$AAa?$AAr?$AA?$AA@ 100a1280     libcpmt:winapinls.obj
 0002:0000d28c       ??_C@_1M@GNKPCCJA@?$AAe?$AAs?$AA?9?$AAb?$AAo?$AA?$AA@ 100a128c     libcpmt:winapinls.obj
 0002:0000d298       ??_C@_1M@LEEGFONL@?$AAe?$AAs?$AA?9?$AAc?$AAl?$AA?$AA@ 100a1298     libcpmt:winapinls.obj
 0002:0000d2a4       ??_C@_1M@KGPDPBDF@?$AAe?$AAs?$AA?9?$AAc?$AAo?$AA?$AA@ 100a12a4     libcpmt:winapinls.obj
 0002:0000d2b0       ??_C@_1M@EIAHOHH@?$AAe?$AAs?$AA?9?$AAc?$AAr?$AA?$AA@ 100a12b0     libcpmt:winapinls.obj
 0002:0000d2bc       ??_C@_1M@LLPGMBIN@?$AAe?$AAs?$AA?9?$AAd?$AAo?$AA?$AA@ 100a12bc     libcpmt:winapinls.obj
 0002:0000d2c8       ??_C@_1M@DKHMKNJA@?$AAe?$AAs?$AA?9?$AAe?$AAc?$AA?$AA@ 100a12c8     libcpmt:winapinls.obj
 0002:0000d2d4       ??_C@_1M@GKGFPKAP@?$AAe?$AAs?$AA?9?$AAe?$AAs?$AA?$AA@ 100a12d4     libcpmt:winapinls.obj
 0002:0000d2e0       ??_C@_1M@LKHKGDLN@?$AAe?$AAs?$AA?9?$AAg?$AAt?$AA?$AA@ 100a12e0     libcpmt:winapinls.obj
 0002:0000d2ec       ??_C@_1M@HEIIGGJD@?$AAe?$AAs?$AA?9?$AAh?$AAn?$AA?$AA@ 100a12ec     libcpmt:winapinls.obj
 0002:0000d2f8       ??_C@_1M@FBDHPPGD@?$AAe?$AAs?$AA?9?$AAm?$AAx?$AA?$AA@ 100a12f8     libcpmt:winapinls.obj
 0002:0000d304       ??_C@_1M@DPAGLNDH@?$AAe?$AAs?$AA?9?$AAn?$AAi?$AA?$AA@ 100a1304     libcpmt:winapinls.obj
 0002:0000d310       ??_C@_1M@MDGOPGDD@?$AAe?$AAs?$AA?9?$AAp?$AAa?$AA?$AA@ 100a1310     libcpmt:winapinls.obj
 0002:0000d31c       ??_C@_1M@EMAMGBGE@?$AAe?$AAs?$AA?9?$AAp?$AAe?$AA?$AA@ 100a131c     libcpmt:winapinls.obj
 0002:0000d328       ??_C@_1M@IBMCAOEC@?$AAe?$AAs?$AA?9?$AAp?$AAr?$AA?$AA@ 100a1328     libcpmt:winapinls.obj
 0002:0000d334       ??_C@_1M@FGMDIJED@?$AAe?$AAs?$AA?9?$AAp?$AAy?$AA?$AA@ 100a1334     libcpmt:winapinls.obj
 0002:0000d340       ??_C@_1M@IIDEOLLL@?$AAe?$AAs?$AA?9?$AAs?$AAv?$AA?$AA@ 100a1340     libcpmt:winapinls.obj
 0002:0000d34c       ??_C@_1M@GAOBIPA@?$AAe?$AAs?$AA?9?$AAu?$AAy?$AA?$AA@ 100a134c     libcpmt:winapinls.obj
 0002:0000d358       ??_C@_1M@JKFFICHJ@?$AAe?$AAs?$AA?9?$AAv?$AAe?$AA?$AA@ 100a1358     libcpmt:winapinls.obj
 0002:0000d364       ??_C@_1M@PNMLOJDF@?$AAe?$AAt?$AA?9?$AAe?$AAe?$AA?$AA@ 100a1364     libcpmt:winapinls.obj
 0002:0000d370       ??_C@_1M@GHHLIKEI@?$AAe?$AAu?$AA?9?$AAe?$AAs?$AA?$AA@ 100a1370     libcpmt:winapinls.obj
 0002:0000d37c       ??_C@_1M@PBNONODE@?$AAf?$AAa?$AA?9?$AAi?$AAr?$AA?$AA@ 100a137c     libcpmt:winapinls.obj
 0002:0000d388       ??_C@_1M@JEEHPMIL@?$AAf?$AAi?$AA?9?$AAf?$AAi?$AA?$AA@ 100a1388     libcpmt:winapinls.obj
 0002:0000d394       ??_C@_1M@LMDCNDBA@?$AAf?$AAo?$AA?9?$AAf?$AAo?$AA?$AA@ 100a1394     libcpmt:winapinls.obj
 0002:0000d3a0       ??_C@_1M@JKEOHLDK@?$AAf?$AAr?$AA?9?$AAb?$AAe?$AA?$AA@ 100a13a0     libcpmt:winapinls.obj
 0002:0000d3ac       ??_C@_1M@NOHADPMI@?$AAf?$AAr?$AA?9?$AAc?$AAa?$AA?$AA@ 100a13ac     libcpmt:winapinls.obj
 0002:0000d3b8       ??_C@_1M@KDHIHAEC@?$AAf?$AAr?$AA?9?$AAc?$AAh?$AA?$AA@ 100a13b8     libcpmt:winapinls.obj
 0002:0000d3c4       ??_C@_1M@MMBBFGAK@?$AAf?$AAr?$AA?9?$AAf?$AAr?$AA?$AA@ 100a13c4     libcpmt:winapinls.obj
 0002:0000d3d0       ??_C@_1M@PAFNENNF@?$AAf?$AAr?$AA?9?$AAl?$AAu?$AA?$AA@ 100a13d0     libcpmt:winapinls.obj
 0002:0000d3dc       ??_C@_1M@EOHDJGDD@?$AAf?$AAr?$AA?9?$AAm?$AAc?$AA?$AA@ 100a13dc     libcpmt:winapinls.obj
 0002:0000d3e8       ??_C@_1M@FAPLLOPF@?$AAg?$AAl?$AA?9?$AAe?$AAs?$AA?$AA@ 100a13e8     libcpmt:winapinls.obj
 0002:0000d3f4       ??_C@_1M@FOPBFLOO@?$AAg?$AAu?$AA?9?$AAi?$AAn?$AA?$AA@ 100a13f4     libcpmt:winapinls.obj
 0002:0000d400       ??_C@_1M@KBMCINPM@?$AAh?$AAe?$AA?9?$AAi?$AAl?$AA?$AA@ 100a1400     libcpmt:winapinls.obj
 0002:0000d40c       ??_C@_1M@BBPHKFPJ@?$AAh?$AAi?$AA?9?$AAi?$AAn?$AA?$AA@ 100a140c     libcpmt:winapinls.obj
 0002:0000d418       ??_C@_1M@PMBNDPHD@?$AAh?$AAr?$AA?9?$AAb?$AAa?$AA?$AA@ 100a1418     libcpmt:winapinls.obj
 0002:0000d424       ??_C@_1M@BPCKOEGE@?$AAh?$AAr?$AA?9?$AAh?$AAr?$AA?$AA@ 100a1424     libcpmt:winapinls.obj
 0002:0000d430       ??_C@_1M@GACBMHKE@?$AAh?$AAu?$AA?9?$AAh?$AAu?$AA?$AA@ 100a1430     libcpmt:winapinls.obj
 0002:0000d43c       ??_C@_1M@MILPAJJC@?$AAh?$AAy?$AA?9?$AAa?$AAm?$AA?$AA@ 100a143c     libcpmt:winapinls.obj
 0002:0000d448       ??_C@_1M@BABBICEC@?$AAi?$AAd?$AA?9?$AAi?$AAd?$AA?$AA@ 100a1448     libcpmt:winapinls.obj
 0002:0000d454       ??_C@_1M@BIKNHHPF@?$AAi?$AAs?$AA?9?$AAi?$AAs?$AA?$AA@ 100a1454     libcpmt:winapinls.obj
 0002:0000d460       ??_C@_1M@NMPCJPHE@?$AAi?$AAt?$AA?9?$AAc?$AAh?$AA?$AA@ 100a1460     libcpmt:winapinls.obj
 0002:0000d46c       ??_C@_1M@GHKGFEDF@?$AAi?$AAt?$AA?9?$AAi?$AAt?$AA?$AA@ 100a146c     libcpmt:winapinls.obj
 0002:0000d478       ??_C@_1M@NIEJCJJA@?$AAj?$AAa?$AA?9?$AAj?$AAp?$AA?$AA@ 100a1478     libcpmt:winapinls.obj
 0002:0000d484       ??_C@_1M@JILFNBIM@?$AAk?$AAa?$AA?9?$AAg?$AAe?$AA?$AA@ 100a1484     libcpmt:winapinls.obj
 0002:0000d490       ??_C@_1M@PACPMGPH@?$AAk?$AAk?$AA?9?$AAk?$AAz?$AA?$AA@ 100a1490     libcpmt:winapinls.obj
 0002:0000d49c       ??_C@_1M@IELFGMHA@?$AAk?$AAn?$AA?9?$AAi?$AAn?$AA?$AA@ 100a149c     libcpmt:winapinls.obj
 0002:0000d4a8       ??_C@_1M@DMHAEOGC@?$AAk?$AAo?$AA?9?$AAk?$AAr?$AA?$AA@ 100a14a8     libcpmt:winapinls.obj
 0002:0000d4b4       ??_C@_1O@IBBJHCH@?$AAk?$AAo?$AAk?$AA?9?$AAi?$AAn?$AA?$AA@ 100a14b4     libcpmt:winapinls.obj
 0002:0000d4c4       ??_C@_1M@HBAHBIGA@?$AAk?$AAy?$AA?9?$AAk?$AAg?$AA?$AA@ 100a14c4     libcpmt:winapinls.obj
 0002:0000d4d0       ??_C@_1M@KPMILCJG@?$AAl?$AAt?$AA?9?$AAl?$AAt?$AA?$AA@ 100a14d0     libcpmt:winapinls.obj
 0002:0000d4dc       ??_C@_1M@BDEKKCA@?$AAl?$AAv?$AA?9?$AAl?$AAv?$AA?$AA@ 100a14dc     libcpmt:winapinls.obj
 0002:0000d4e8       ??_C@_1M@ELCKCCJJ@?$AAm?$AAi?$AA?9?$AAn?$AAz?$AA?$AA@ 100a14e8     libcpmt:winapinls.obj
 0002:0000d4f4       ??_C@_1M@CBOOLAPA@?$AAm?$AAk?$AA?9?$AAm?$AAk?$AA?$AA@ 100a14f4     libcpmt:winapinls.obj
 0002:0000d500       ??_C@_1M@GPHNBJKN@?$AAm?$AAl?$AA?9?$AAi?$AAn?$AA?$AA@ 100a1500     libcpmt:winapinls.obj
 0002:0000d50c       ??_C@_1M@PABJILIG@?$AAm?$AAn?$AA?9?$AAm?$AAn?$AA?$AA@ 100a150c     libcpmt:winapinls.obj
 0002:0000d518       ??_C@_1M@FGBKKIPG@?$AAm?$AAr?$AA?9?$AAi?$AAn?$AA?$AA@ 100a1518     libcpmt:winapinls.obj
 0002:0000d524       ??_C@_1M@NDBPDDAL@?$AAm?$AAs?$AA?9?$AAb?$AAn?$AA?$AA@ 100a1524     libcpmt:winapinls.obj
 0002:0000d530       ??_C@_1M@OPIHOOPI@?$AAm?$AAs?$AA?9?$AAm?$AAy?$AA?$AA@ 100a1530     libcpmt:winapinls.obj
 0002:0000d53c       ??_C@_1M@PPDBCNFM@?$AAm?$AAt?$AA?9?$AAm?$AAt?$AA?$AA@ 100a153c     libcpmt:winapinls.obj
 0002:0000d548       ??_C@_1M@KDJDKMDD@?$AAn?$AAb?$AA?9?$AAn?$AAo?$AA?$AA@ 100a1548     libcpmt:winapinls.obj
 0002:0000d554       ??_C@_1M@KFCFLMJP@?$AAn?$AAl?$AA?9?$AAb?$AAe?$AA?$AA@ 100a1554     libcpmt:winapinls.obj
 0002:0000d560       ??_C@_1M@KPOPDDGO@?$AAn?$AAl?$AA?9?$AAn?$AAl?$AA?$AA@ 100a1560     libcpmt:winapinls.obj
 0002:0000d56c       ??_C@_1M@LJKPEMLN@?$AAn?$AAn?$AA?9?$AAn?$AAo?$AA?$AA@ 100a156c     libcpmt:winapinls.obj
 0002:0000d578       ??_C@_1M@BDGHHBFL@?$AAn?$AAs?$AA?9?$AAz?$AAa?$AA?$AA@ 100a1578     libcpmt:winapinls.obj
 0002:0000d584       ??_C@_1M@IDEHOAP@?$AAp?$AAa?$AA?9?$AAi?$AAn?$AA?$AA@ 100a1584     libcpmt:winapinls.obj
 0002:0000d590       ??_C@_1M@HDBKGOGH@?$AAp?$AAl?$AA?9?$AAp?$AAl?$AA?$AA@ 100a1590     libcpmt:winapinls.obj
 0002:0000d59c       ??_C@_1M@LJLLCMEH@?$AAp?$AAt?$AA?9?$AAb?$AAr?$AA?$AA@ 100a159c     libcpmt:winapinls.obj
 0002:0000d5a8       ??_C@_1M@NCMONAAL@?$AAp?$AAt?$AA?9?$AAp?$AAt?$AA?$AA@ 100a15a8     libcpmt:winapinls.obj
 0002:0000d5b4       ??_C@_1O@EAKMAJDN@?$AAq?$AAu?$AAz?$AA?9?$AAb?$AAo?$AA?$AA@ 100a15b4     libcpmt:winapinls.obj
 0002:0000d5c4       ??_C@_1O@BHHPIGDN@?$AAq?$AAu?$AAz?$AA?9?$AAe?$AAc?$AA?$AA@ 100a15c4     libcpmt:winapinls.obj
 0002:0000d5d4       ??_C@_1O@GBAPEKMJ@?$AAq?$AAu?$AAz?$AA?9?$AAp?$AAe?$AA?$AA@ 100a15d4     libcpmt:winapinls.obj
 0002:0000d5e4       ??_C@_1M@CLGLEFBO@?$AAr?$AAo?$AA?9?$AAr?$AAo?$AA?$AA@ 100a15e4     libcpmt:winapinls.obj
 0002:0000d5f0       ??_C@_1M@CEEDODME@?$AAr?$AAu?$AA?9?$AAr?$AAu?$AA?$AA@ 100a15f0     libcpmt:winapinls.obj
 0002:0000d5fc       ??_C@_1M@HPKKKMPP@?$AAs?$AAa?$AA?9?$AAi?$AAn?$AA?$AA@ 100a15fc     libcpmt:winapinls.obj
 0002:0000d608       ??_C@_1M@BKMAIGOJ@?$AAs?$AAe?$AA?9?$AAf?$AAi?$AA?$AA@ 100a1608     libcpmt:winapinls.obj
 0002:0000d614       ??_C@_1M@NDPIFLFI@?$AAs?$AAe?$AA?9?$AAn?$AAo?$AA?$AA@ 100a1614     libcpmt:winapinls.obj
 0002:0000d620       ??_C@_1M@DANKKHJ@?$AAs?$AAe?$AA?9?$AAs?$AAe?$AA?$AA@ 100a1620     libcpmt:winapinls.obj
 0002:0000d62c       ??_C@_1M@PNBLONPJ@?$AAs?$AAk?$AA?9?$AAs?$AAk?$AA?$AA@ 100a162c     libcpmt:winapinls.obj
 0002:0000d638       ??_C@_1M@LFMODOAL@?$AAs?$AAl?$AA?9?$AAs?$AAi?$AA?$AA@ 100a1638     libcpmt:winapinls.obj
 0002:0000d644       ??_C@_1O@DFKOMPG@?$AAs?$AAm?$AAa?$AA?9?$AAn?$AAo?$AA?$AA@ 100a1644     libcpmt:winapinls.obj
 0002:0000d654       ??_C@_1O@NDKPBNNH@?$AAs?$AAm?$AAa?$AA?9?$AAs?$AAe?$AA?$AA@ 100a1654     libcpmt:winapinls.obj
 0002:0000d664       ??_C@_1O@PLLKBHAB@?$AAs?$AAm?$AAj?$AA?9?$AAn?$AAo?$AA?$AA@ 100a1664     libcpmt:winapinls.obj
 0002:0000d674       ??_C@_1O@CLEPOGCA@?$AAs?$AAm?$AAj?$AA?9?$AAs?$AAe?$AA?$AA@ 100a1674     libcpmt:winapinls.obj
 0002:0000d684       ??_C@_1O@DLGJGKMK@?$AAs?$AAm?$AAn?$AA?9?$AAf?$AAi?$AA?$AA@ 100a1684     libcpmt:winapinls.obj
 0002:0000d694       ??_C@_1O@OJDJGAJC@?$AAs?$AAm?$AAs?$AA?9?$AAf?$AAi?$AA?$AA@ 100a1694     libcpmt:winapinls.obj
 0002:0000d6a4       ??_C@_1M@BOFOGHPB@?$AAs?$AAq?$AA?9?$AAa?$AAl?$AA?$AA@ 100a16a4     libcpmt:winapinls.obj
 0002:0000d6b0       ??_C@_1BG@LJBBIPGB@?$AAs?$AAr?$AA?9?$AAb?$AAa?$AA?9?$AAc?$AAy?$AAr?$AAl?$AA?$AA@ 100a16b0     libcpmt:winapinls.obj
 0002:0000d788       __pDestructExceptionObject 100a1788     libvcruntime:ehhelpers.obj
 0002:0000d798       ??_C@_1DM@KHCHBNEB@?$AAa?$AAp?$AAi?$AA?9?$AAm?$AAs?$AA?9?$AAw?$AAi?$AAn?$AA?9?$AAc?$AAo?$AAr?$AAe?$AA?9?$AAf?$AAi?$AAb?$AAe?$AAr?$AAs?$AA?9?$AAl?$AA1?$AA?9?$AA1?$AA?9?$AA1?$AA?$AA@ 100a1798     libvcruntime:winapi_downlevel.obj
 0002:0000d7d4       ??_C@_1DK@LPPGFMPP@?$AAa?$AAp?$AAi?$AA?9?$AAm?$AAs?$AA?9?$AAw?$AAi?$AAn?$AA?9?$AAc?$AAo?$AAr?$AAe?$AA?9?$AAs?$AAy?$AAn?$AAc?$AAh?$AA?9?$AAl?$AA1?$AA?9?$AA2?$AA?9?$AA0?$AA?$AA@ 100a17d4     libvcruntime:winapi_downlevel.obj
 0002:0000d810       ??_C@_1BC@GDMECMAK@?$AAk?$AAe?$AAr?$AAn?$AAe?$AAl?$AA3?$AA2?$AA?$AA@ 100a1810     libvcruntime:winapi_downlevel.obj
 0002:0000d824       ??_C@_1BA@PFFKHIOG@?$AAa?$AAp?$AAi?$AA?9?$AAm?$AAs?$AA?9?$AA?$AA@ 100a1824     libvcruntime:winapi_downlevel.obj
 0002:0000d834       ??_C@_1BA@IAIFMGEF@?$AAe?$AAx?$AAt?$AA?9?$AAm?$AAs?$AA?9?$AA?$AA@ 100a1834     libvcruntime:winapi_downlevel.obj
 0002:0000d870       ??_7bad_exception@std@@6B@ 100a1870     libvcruntime:frame.obj
 0002:0000d878       ??_C@_0O@DPKOEFFH@bad?5exception?$AA@ 100a1878     libvcruntime:frame.obj
 0002:0000da1c       ??_C@_08EHJDFFNH@__based?$CI?$AA@ 100a1a1c     libvcruntime:undname.obj
 0002:0000da28       ??_C@_07KOLFKCDI@__cdecl?$AA@ 100a1a28     libvcruntime:undname.obj
 0002:0000da30       ??_C@_08GHMPAG@__pascal?$AA@ 100a1a30     libvcruntime:undname.obj
 0002:0000da3c       ??_C@_09IFJBGAPI@__stdcall?$AA@ 100a1a3c     libvcruntime:undname.obj
 0002:0000da48       ??_C@_0L@NPHFGOKO@__thiscall?$AA@ 100a1a48     libvcruntime:undname.obj
 0002:0000da54       ??_C@_0L@JMKHOMEK@__fastcall?$AA@ 100a1a54     libvcruntime:undname.obj
 0002:0000da60       ??_C@_0N@BCKKPABJ@__vectorcall?$AA@ 100a1a60     libvcruntime:undname.obj
 0002:0000da70       ??_C@_09HIJEGCPM@__clrcall?$AA@ 100a1a70     libvcruntime:undname.obj
 0002:0000da7c       ??_C@_06GHPCKEAG@__eabi?$AA@ 100a1a7c     libvcruntime:undname.obj
 0002:0000da84       ??_C@_07JOMMBBKO@__ptr64?$AA@ 100a1a84     libvcruntime:undname.obj
 0002:0000da8c       ??_C@_0L@PILCLIHE@__restrict?$AA@ 100a1a8c     libvcruntime:undname.obj
 0002:0000da98       ??_C@_0M@GFIIJFMG@__unaligned?$AA@ 100a1a98     libvcruntime:undname.obj
 0002:0000daa4       ??_C@_09DHDLOLLB@restrict?$CI?$AA@ 100a1aa4     libvcruntime:undname.obj
 0002:0000dab0       ??_C@_04NIHEBCM@?5new?$AA@ 100a1ab0     libvcruntime:undname.obj
 0002:0000dab8       ??_C@_07FPCDHGMM@?5delete?$AA@ 100a1ab8     libvcruntime:undname.obj
 0002:0000dac0       ??_C@_01NEMOKFLO@?$DN?$AA@ 100a1ac0     libvcruntime:undname.obj
 0002:0000dac4       ??_C@_02GPIOPFAK@?$DO?$DO?$AA@ 100a1ac4     libvcruntime:undname.obj
 0002:0000dac8       ??_C@_02FODMEDOG@?$DM?$DM?$AA@ 100a1ac8     libvcruntime:undname.obj
 0002:0000dacc       ??_C@_01DCLJPIOD@?$CB?$AA@ 100a1acc     libvcruntime:undname.obj
 0002:0000dad0       ??_C@_02EGOFBIJA@?$DN?$DN?$AA@ 100a1ad0     libvcruntime:undname.obj
 0002:0000dad4       ??_C@_02FDNJECIE@?$CB?$DN?$AA@ 100a1ad4     libvcruntime:undname.obj
 0002:0000dad8       ??_C@_02GPECMEKF@?$FL?$FN?$AA@ 100a1ad8     libvcruntime:undname.obj
 0002:0000dadc       ??_C@_08LHJFAFGD@operator?$AA@ 100a1adc     libvcruntime:undname.obj
 0002:0000dae8       ??_C@_02HBOOOICD@?9?$DO?$AA@ 100a1ae8     libvcruntime:undname.obj
 0002:0000daec       ??_C@_02ECNGHCIF@?$CL?$CL?$AA@ 100a1aec     libvcruntime:undname.obj
 0002:0000daf0       ??_C@_02BAABKJLB@?9?9?$AA@ 100a1af0     libvcruntime:undname.obj
 0002:0000daf4       ??_C@_01HNPIGOCE@?$CG?$AA@ 100a1af4     libvcruntime:undname.obj
 0002:0000daf8       ??_C@_03MNHNFDLC@?9?$DO?$CK?$AA@ 100a1af8     libvcruntime:undname.obj
 0002:0000dafc       ??_C@_01KMDKNFGN@?1?$AA@   100a1afc     libvcruntime:undname.obj
 0002:0000db00       ??_C@_01FGNFDNOH@?$CF?$AA@ 100a1b00     libvcruntime:undname.obj
 0002:0000db04       ??_C@_01MNNFJEPP@?$DM?$AA@ 100a1b04     libvcruntime:undname.obj
 0002:0000db08       ??_C@_02EHCHHCKH@?$DM?$DN?$AA@ 100a1b08     libvcruntime:undname.obj
 0002:0000db0c       ??_C@_02EEKDKGMJ@?$DO?$DN?$AA@ 100a1b0c     libvcruntime:undname.obj
 0002:0000db10       ??_C@_01IHBHIGKO@?0?$AA@   100a1b10     libvcruntime:undname.obj
 0002:0000db14       ??_C@_02HCKGKOFO@?$CI?$CJ?$AA@ 100a1b14     libvcruntime:undname.obj
 0002:0000db18       ??_C@_01PJKLJHI@?$HO?$AA@  100a1b18     libvcruntime:undname.obj
 0002:0000db1c       ??_C@_01JKBOJNNK@?$FO?$AA@ 100a1b1c     libvcruntime:undname.obj
 0002:0000db20       ??_C@_02PPKAJPJL@?$CG?$CG?$AA@ 100a1b20     libvcruntime:undname.obj
 0002:0000db24       ??_C@_02NONPIBCD@?$HM?$HM?$AA@ 100a1b24     libvcruntime:undname.obj
 0002:0000db28       ??_C@_02FPIMKNGF@?$CK?$DN?$AA@ 100a1b28     libvcruntime:undname.obj
 0002:0000db2c       ??_C@_02FOEOMHFC@?$CL?$DN?$AA@ 100a1b2c     libvcruntime:undname.obj
 0002:0000db30       ??_C@_02FKMDLLOA@?9?$DN?$AA@ 100a1b30     libvcruntime:undname.obj
 0002:0000db34       ??_C@_02FJEHGPIO@?1?$DN?$AA@ 100a1b34     libvcruntime:undname.obj
 0002:0000db38       ??_C@_02FENAOKFI@?$CF?$DN?$AA@ 100a1b38     libvcruntime:undname.obj
 0002:0000db3c       ??_C@_03IKFCCPFF@?$DO?$DO?$DN?$AA@ 100a1b3c     libvcruntime:undname.obj
 0002:0000db40       ??_C@_03CDNPDDLA@?$DM?$DM?$DN?$AA@ 100a1b40     libvcruntime:undname.obj
 0002:0000db44       ??_C@_02FGJGFEAB@?$CG?$DN?$AA@ 100a1b44     libvcruntime:undname.obj
 0002:0000db48       ??_C@_02DHLNPPGH@?$HM?$DN?$AA@ 100a1b48     libvcruntime:undname.obj
 0002:0000db4c       ??_C@_02MHEGNOJ@?$FO?$DN?$AA@ 100a1b4c     libvcruntime:undname.obj
 0002:0000db50       ??_C@_09IFPLHPGF@?$GAvftable?8?$AA@ 100a1b50     libvcruntime:undname.obj
 0002:0000db5c       ??_C@_09BLBHBJP@?$GAvbtable?8?$AA@ 100a1b5c     libvcruntime:undname.obj
 0002:0000db68       ??_C@_07FEEIOKP@?$GAvcall?8?$AA@ 100a1b68     libvcruntime:undname.obj
 0002:0000db70       ??_C@_08LLFFHHDJ@?$GAtypeof?8?$AA@ 100a1b70     libvcruntime:undname.obj
 0002:0000db7c       ??_C@_0BF@KDPPACIK@?$GAlocal?5static?5guard?8?$AA@ 100a1b7c     libvcruntime:undname.obj
 0002:0000db94       ??_C@_08OBABFOLI@?$GAstring?8?$AA@ 100a1b94     libvcruntime:undname.obj
 0002:0000dba0       ??_C@_0BD@JDLKDPAB@?$GAvbase?5destructor?8?$AA@ 100a1ba0     libvcruntime:undname.obj
 0002:0000dbb4       ??_C@_0BN@DEGPLNFK@?$GAvector?5deleting?5destructor?8?$AA@ 100a1bb4     libvcruntime:undname.obj
 0002:0000dbd4       ??_C@_0BO@OBMKPJIG@?$GAdefault?5constructor?5closure?8?$AA@ 100a1bd4     libvcruntime:undname.obj
 0002:0000dbf4       ??_C@_0BN@IMDCHIKM@?$GAscalar?5deleting?5destructor?8?$AA@ 100a1bf4     libvcruntime:undname.obj
 0002:0000dc14       ??_C@_0BO@PFGOCPJJ@?$GAvector?5constructor?5iterator?8?$AA@ 100a1c14     libvcruntime:undname.obj
 0002:0000dc34       ??_C@_0BN@LFPFMEDL@?$GAvector?5destructor?5iterator?8?$AA@ 100a1c34     libvcruntime:undname.obj
 0002:0000dc54       ??_C@_0CE@IKBNEHA@?$GAvector?5vbase?5constructor?5iterat@ 100a1c54     libvcruntime:undname.obj
 0002:0000dc78       ??_C@_0BL@NILFHHPC@?$GAvirtual?5displacement?5map?8?$AA@ 100a1c78     libvcruntime:undname.obj
 0002:0000dc94       ??_C@_0CB@JONCMFFK@?$GAeh?5vector?5constructor?5iterator?8@ 100a1c94     libvcruntime:undname.obj
 0002:0000dcb8       ??_C@_0CA@GCEOPDGL@?$GAeh?5vector?5destructor?5iterator?8?$AA@ 100a1cb8     libvcruntime:undname.obj
 0002:0000dcd8       ??_C@_0CH@OOJPLCPH@?$GAeh?5vector?5vbase?5constructor?5ite@ 100a1cd8     libvcruntime:undname.obj
 0002:0000dd00       ??_C@_0BL@LLKPOHJI@?$GAcopy?5constructor?5closure?8?$AA@ 100a1d00     libvcruntime:undname.obj
 0002:0000dd1c       ??_C@_0BA@KBCDOMBN@?$GAudt?5returning?8?$AA@ 100a1d1c     libvcruntime:undname.obj
 0002:0000dd2c       ??_C@_03KLGMFNMG@?$GAEH?$AA@ 100a1d2c     libvcruntime:undname.obj
 0002:0000dd30       ??_C@_05KHLCHHI@?$GARTTI?$AA@ 100a1d30     libvcruntime:undname.obj
 0002:0000dd38       ??_C@_0BA@KKLDJDLB@?$GAlocal?5vftable?8?$AA@ 100a1d38     libvcruntime:undname.obj
 0002:0000dd48       ??_C@_0CE@IIHCMGGL@?$GAlocal?5vftable?5constructor?5closu@ 100a1d48     libvcruntime:undname.obj
 0002:0000dd6c       ??_C@_06FHBGPFGH@?5new?$FL?$FN?$AA@ 100a1d6c     libvcruntime:undname.obj
 0002:0000dd74       ??_C@_09LBNFPBCA@?5delete?$FL?$FN?$AA@ 100a1d74     libvcruntime:undname.obj
 0002:0000dd80       ??_C@_0P@HJKNJFNN@?$GAomni?5callsig?8?$AA@ 100a1d80     libvcruntime:undname.obj
 0002:0000dd90       ??_C@_0BL@CNOONJFP@?$GAplacement?5delete?5closure?8?$AA@ 100a1d90     libvcruntime:undname.obj
 0002:0000ddac       ??_C@_0BN@CKNJLHMB@?$GAplacement?5delete?$FL?$FN?5closure?8?$AA@ 100a1dac     libvcruntime:undname.obj
 0002:0000ddcc       ??_C@_0CG@CFDHKGGD@?$GAmanaged?5vector?5constructor?5iter@ 100a1dcc     libvcruntime:undname.obj
 0002:0000ddf4       ??_C@_0CF@IMGKMJNO@?$GAmanaged?5vector?5destructor?5itera@ 100a1df4     libvcruntime:undname.obj
 0002:0000de1c       ??_C@_0CG@HLDDJMAG@?$GAeh?5vector?5copy?5constructor?5iter@ 100a1e1c     libvcruntime:undname.obj
 0002:0000de44       ??_C@_0CM@FCBBDIGB@?$GAeh?5vector?5vbase?5copy?5constructo@ 100a1e44     libvcruntime:undname.obj
 0002:0000de70       ??_C@_0BL@CLIPGLGB@?$GAdynamic?5initializer?5for?5?8?$AA@ 100a1e70     libvcruntime:undname.obj
 0002:0000de8c       ??_C@_0CB@PDBIFEP@?$GAdynamic?5atexit?5destructor?5for?5?8@ 100a1e8c     libvcruntime:undname.obj
 0002:0000deb0       ??_C@_0CD@CGAJBKEJ@?$GAvector?5copy?5constructor?5iterato@ 100a1eb0     libvcruntime:undname.obj
 0002:0000ded4       ??_C@_0CJ@GJELGAMM@?$GAvector?5vbase?5copy?5constructor?5i@ 100a1ed4     libvcruntime:undname.obj
 0002:0000df00       ??_C@_0CL@FGIJHLCE@?$GAmanaged?5vector?5copy?5constructor@ 100a1f00     libvcruntime:undname.obj
 0002:0000df2c       ??_C@_0BM@PMGGMLDN@?$GAlocal?5static?5thread?5guard?8?$AA@ 100a1f2c     libvcruntime:undname.obj
 0002:0000df48       ??_C@_0N@BDNMDMOL@operator?5?$CC?$CC?5?$AA@ 100a1f48     libvcruntime:undname.obj
 0002:0000df58       ??_C@_0BC@GGEBGALA@operator?5co_await?$AA@ 100a1f58     libvcruntime:undname.obj
 0002:0000df6c       ??_C@_0BC@DAFEJGAK@?5Type?5Descriptor?8?$AA@ 100a1f6c     libvcruntime:undname.obj
 0002:0000df80       ??_C@_0BM@LDKODKLH@?5Base?5Class?5Descriptor?5at?5?$CI?$AA@ 100a1f80     libvcruntime:undname.obj
 0002:0000df9c       ??_C@_0BD@LGICGFMM@?5Base?5Class?5Array?8?$AA@ 100a1f9c     libvcruntime:undname.obj
 0002:0000dfb0       ??_C@_0BN@MECKDCOJ@?5Class?5Hierarchy?5Descriptor?8?$AA@ 100a1fb0     libvcruntime:undname.obj
 0002:0000dfd0       ??_C@_0BK@CFCOFLF@?5Complete?5Object?5Locator?8?$AA@ 100a1fd0     libvcruntime:undname.obj
 0002:0000dff0       ?large_power_data@?1??multiply_by_power_of_ten@__crt_strtox@@YA_NAAUbig_integer@2@I@Z@4QBIB 100a1ff0     libucrt:input.obj
 0002:0000e8f8       ?large_power_indices@?1??multiply_by_power_of_ten@__crt_strtox@@YA_NAAUbig_integer@2@I@Z@4QBUunpack_index@?1??12@YA_N0I@Z@B 100a28f8     libucrt:input.obj
 0002:0000e990       ?small_powers_of_ten@?1??multiply_by_power_of_ten@__crt_strtox@@YA_NAAUbig_integer@2@I@Z@4QBIB 100a2990     libucrt:input.obj
 0002:0000e9b8       ??_C@_1GE@DPGDJKLM@?$AAm?$AAi?$AAn?$AAk?$AAe?$AAr?$AAn?$AAe?$AAl?$AA?2?$AAc?$AAr?$AAt?$AAs?$AA?2?$AAu?$AAc?$AAr?$AAt?$AA?2?$AAi?$AAn?$AAc?$AA?2?$AAc?$AAo?$AAr?$AAe?$AAc?$AAr?$AAt?$AA_@ 100a29b8     libucrt:input.obj
 0002:0000ea20       ??_C@_1FM@FELNCOBF@?$AA_?$AA_?$AAc?$AAr?$AAt?$AA_?$AAs?$AAt?$AAr?$AAt?$AAo?$AAx?$AA?3?$AA?3?$AAf?$AAl?$AAo?$AAa?$AAt?$AAi?$AAn?$AAg?$AA_?$AAp?$AAo?$AAi?$AAn?$AAt?$AA_?$AAv?$AAa?$AAl@ 100a2a20     libucrt:input.obj
 0002:0000ea7c       ??_C@_1BG@GEMHBGAF@?$AA_?$AAi?$AAs?$AA_?$AAd?$AAo?$AAu?$AAb?$AAl?$AAe?$AA?$AA@ 100a2a7c     libucrt:input.obj
 0002:0000ea98       ??_C@_1FK@JOJELFFO@?$AA_?$AA_?$AAc?$AAr?$AAt?$AA_?$AAs?$AAt?$AAr?$AAt?$AAo?$AAx?$AA?3?$AA?3?$AAf?$AAl?$AAo?$AAa?$AAt?$AAi?$AAn?$AAg?$AA_?$AAp?$AAo?$AAi?$AAn?$AAt?$AA_?$AAv?$AAa?$AAl@ 100a2a98     libucrt:input.obj
 0002:0000eaf4       ??_C@_1BI@BANMPGJI@?$AA?$CB?$AA_?$AAi?$AAs?$AA_?$AAd?$AAo?$AAu?$AAb?$AAl?$AAe?$AA?$AA@ 100a2af4     libucrt:input.obj
 0002:0000eb10       ?constraints@?1??is_length_valid@__crt_stdio_input@@YA_NW4conversion_mode@2@W4length_modifier@2@@Z@4QAY0M@$$CBEA 100a2b10     libucrt:input.obj
 0002:0000eb88       ?inf_uppercase@?1???$parse_floating_point_possible_infinity@DV?$input_adapter_character_source@V?$string_input_adapter@D@__crt_stdio_input@@@__crt_strtox@@_K@__crt_strtox@@YA?AW4floating_point_parse_result@1@AADAAV?$input_adapter_character_source@V?$string_input_adapter@D@__crt_stdio_input@@@1@_K@Z@4QBDB 100a2b88     libucrt:input.obj
 0002:0000eb8c       ?inf_lowercase@?1???$parse_floating_point_possible_infinity@DV?$input_adapter_character_source@V?$string_input_adapter@D@__crt_stdio_input@@@__crt_strtox@@_K@__crt_strtox@@YA?AW4floating_point_parse_result@1@AADAAV?$input_adapter_character_source@V?$string_input_adapter@D@__crt_stdio_input@@@1@_K@Z@4QBDB 100a2b8c     libucrt:input.obj
 0002:0000eb90       ?inity_uppercase@?1???$parse_floating_point_possible_infinity@DV?$input_adapter_character_source@V?$string_input_adapter@D@__crt_stdio_input@@@__crt_strtox@@_K@__crt_strtox@@YA?AW4floating_point_parse_result@1@AADAAV?$input_adapter_character_source@V?$string_input_adapter@D@__crt_stdio_input@@@1@_K@Z@4QBDB 100a2b90     libucrt:input.obj
 0002:0000eb98       ?inity_lowercase@?1???$parse_floating_point_possible_infinity@DV?$input_adapter_character_source@V?$string_input_adapter@D@__crt_stdio_input@@@__crt_strtox@@_K@__crt_strtox@@YA?AW4floating_point_parse_result@1@AADAAV?$input_adapter_character_source@V?$string_input_adapter@D@__crt_stdio_input@@@1@_K@Z@4QBDB 100a2b98     libucrt:input.obj
 0002:0000eba0       ?uppercase@?1???$parse_floating_point_possible_nan@DV?$input_adapter_character_source@V?$string_input_adapter@D@__crt_stdio_input@@@__crt_strtox@@_K@__crt_strtox@@YA?AW4floating_point_parse_result@1@AADAAV?$input_adapter_character_source@V?$string_input_adapter@D@__crt_stdio_input@@@1@_K@Z@4QBDB 100a2ba0     libucrt:input.obj
 0002:0000eba4       ?lowercase@?1???$parse_floating_point_possible_nan@DV?$input_adapter_character_source@V?$string_input_adapter@D@__crt_stdio_input@@@__crt_strtox@@_K@__crt_strtox@@YA?AW4floating_point_parse_result@1@AADAAV?$input_adapter_character_source@V?$string_input_adapter@D@__crt_stdio_input@@@1@_K@Z@4QBDB 100a2ba4     libucrt:input.obj
 0002:0000eba8       ?uppercase@?1???$parse_floating_point_possible_nan_is_snan@DV?$input_adapter_character_source@V?$string_input_adapter@D@__crt_stdio_input@@@__crt_strtox@@@__crt_strtox@@YA_NAADAAV?$input_adapter_character_source@V?$string_input_adapter@D@__crt_stdio_input@@@1@@Z@4QBDB 100a2ba8     libucrt:input.obj
 0002:0000ebb0       ?lowercase@?1???$parse_floating_point_possible_nan_is_snan@DV?$input_adapter_character_source@V?$string_input_adapter@D@__crt_stdio_input@@@__crt_strtox@@@__crt_strtox@@YA_NAADAAV?$input_adapter_character_source@V?$string_input_adapter@D@__crt_stdio_input@@@1@@Z@4QBDB 100a2bb0     libucrt:input.obj
 0002:0000ebb8       ?uppercase@?1???$parse_floating_point_possible_nan_is_ind@DV?$input_adapter_character_source@V?$string_input_adapter@D@__crt_stdio_input@@@__crt_strtox@@@__crt_strtox@@YA_NAADAAV?$input_adapter_character_source@V?$string_input_adapter@D@__crt_stdio_input@@@1@@Z@4QBDB 100a2bb8     libucrt:input.obj
 0002:0000ebbc       ?lowercase@?1???$parse_floating_point_possible_nan_is_ind@DV?$input_adapter_character_source@V?$string_input_adapter@D@__crt_stdio_input@@@__crt_strtox@@@__crt_strtox@@YA_NAADAAV?$input_adapter_character_source@V?$string_input_adapter@D@__crt_stdio_input@@@1@@Z@4QBDB 100a2bbc     libucrt:input.obj
 0002:0000ec80       _standard_lookup_table     100a2c80     libucrt:output.obj
 0002:0000ece0       _format_validation_lookup_table 100a2ce0     libucrt:output.obj
 0002:0000ed3c       ??_C@_1O@CEDCILHN@?$AA?$CI?$AAn?$AAu?$AAl?$AAl?$AA?$CJ?$AA?$AA@ 100a2d3c     libucrt:output.obj
 0002:0000ed4c       ??_C@_06OJHGLDPL@?$CInull?$CJ?$AA@ 100a2d4c     libucrt:output.obj
 0002:0000ed54       ?inf_uppercase@?1???$parse_floating_point_possible_infinity@DV?$c_string_character_source@D@__crt_strtox@@PBD@__crt_strtox@@YA?AW4floating_point_parse_result@1@AADAAV?$c_string_character_source@D@1@PBD@Z@4QBDB 100a2d54     libucrt:atof.obj
 0002:0000ed58       ?inf_lowercase@?1???$parse_floating_point_possible_infinity@DV?$c_string_character_source@D@__crt_strtox@@PBD@__crt_strtox@@YA?AW4floating_point_parse_result@1@AADAAV?$c_string_character_source@D@1@PBD@Z@4QBDB 100a2d58     libucrt:atof.obj
 0002:0000ed5c       ?inity_uppercase@?1???$parse_floating_point_possible_infinity@DV?$c_string_character_source@D@__crt_strtox@@PBD@__crt_strtox@@YA?AW4floating_point_parse_result@1@AADAAV?$c_string_character_source@D@1@PBD@Z@4QBDB 100a2d5c     libucrt:atof.obj
 0002:0000ed64       ?inity_lowercase@?1???$parse_floating_point_possible_infinity@DV?$c_string_character_source@D@__crt_strtox@@PBD@__crt_strtox@@YA?AW4floating_point_parse_result@1@AADAAV?$c_string_character_source@D@1@PBD@Z@4QBDB 100a2d64     libucrt:atof.obj
 0002:0000ed6c       ?uppercase@?1???$parse_floating_point_possible_nan@DV?$c_string_character_source@D@__crt_strtox@@PBD@__crt_strtox@@YA?AW4floating_point_parse_result@1@AADAAV?$c_string_character_source@D@1@PBD@Z@4QBDB 100a2d6c     libucrt:atof.obj
 0002:0000ed70       ?lowercase@?1???$parse_floating_point_possible_nan@DV?$c_string_character_source@D@__crt_strtox@@PBD@__crt_strtox@@YA?AW4floating_point_parse_result@1@AADAAV?$c_string_character_source@D@1@PBD@Z@4QBDB 100a2d70     libucrt:atof.obj
 0002:0000ed74       ?uppercase@?1???$parse_floating_point_possible_nan_is_snan@DV?$c_string_character_source@D@__crt_strtox@@@__crt_strtox@@YA_NAADAAV?$c_string_character_source@D@1@@Z@4QBDB 100a2d74     libucrt:atof.obj
 0002:0000ed7c       ?lowercase@?1???$parse_floating_point_possible_nan_is_snan@DV?$c_string_character_source@D@__crt_strtox@@@__crt_strtox@@YA_NAADAAV?$c_string_character_source@D@1@@Z@4QBDB 100a2d7c     libucrt:atof.obj
 0002:0000ed84       ?uppercase@?1???$parse_floating_point_possible_nan_is_ind@DV?$c_string_character_source@D@__crt_strtox@@@__crt_strtox@@YA_NAADAAV?$c_string_character_source@D@1@@Z@4QBDB 100a2d84     libucrt:atof.obj
 0002:0000ed88       ?lowercase@?1???$parse_floating_point_possible_nan_is_ind@DV?$c_string_character_source@D@__crt_strtox@@@__crt_strtox@@YA_NAADAAV?$c_string_character_source@D@1@@Z@4QBDB 100a2d88     libucrt:atof.obj
 0002:0000f1f0       __OP_FMODjmptab            100a31f0     libucrt:87fmod.obj
 0002:0000f240       __real@3e54ae0bf85ddf44    100a3240     libucrt:log2d.obj
 0002:0000f248       __real@3e5526e50e32a6ab    100a3248     libucrt:log2d.obj
 0002:0000f250       __real@3e7427de7fbcc47c    100a3250     libucrt:log2d.obj
 0002:0000f258       __real@3e7f7d1cf79abc9e    100a3258     libucrt:log2d.obj
 0002:0000f260       __real@3fc2f8d8bf29def7    100a3260     libucrt:log2d.obj
 0002:0000f268       __real@3fc3991accfeb3f4    100a3268     libucrt:log2d.obj
 0002:0000f270       __real@3fc7466fd968cb62    100a3270     libucrt:log2d.obj
 0002:0000f278       __real@3fcc71c4da12c9c6    100a3278     libucrt:log2d.obj
 0002:0000f280       __real@3fd24924948ae94a    100a3280     libucrt:log2d.obj
 0002:0000f288       __real@3fd3441300000000    100a3288     libucrt:log2d.obj
 0002:0000f290       __real@3fd9999999975ff7    100a3290     libucrt:log2d.obj
 0002:0000f298       __real@3fdbcb7b00000000    100a3298     libucrt:log2d.obj
 0002:0000f2a0       __real@3fdbcb7b1526e50e    100a32a0     libucrt:log2d.obj
 0002:0000f2a8       __real@3fe55555555555bc    100a32a8     libucrt:log2d.obj
 0002:0000f2b0       __real@3fe62e42c0000000    100a32b0     libucrt:log2d.obj
 0002:0000f2b8       __real@3fe6a09e667f3bcd    100a32b8     libucrt:log2d.obj
 0002:0000f2c0       __real@3ff7154760000000    100a32c0     libucrt:log2d.obj
 0002:0000f2c8       __real@3ff71547652b82fe    100a32c8     libucrt:log2d.obj
 0002:0000f628       ___acrt_exception_action_table 100a3628     libucrt:exception_filter.obj
 0002:0000f6b8       ___acrt_signal_action_table_count 100a36b8     libucrt:exception_filter.obj
 0002:0000f6bc       ___acrt_signal_action_first_fpe_index 100a36bc     libucrt:exception_filter.obj
 0002:0000f6c0       ___acrt_signal_action_fpe_count 100a36c0     libucrt:exception_filter.obj
 0002:0000f6c4       ??_C@_1BI@BGOHAHKC@?$AAm?$AAs?$AAc?$AAo?$AAr?$AAe?$AAe?$AA?4?$AAd?$AAl?$AAl?$AA?$AA@ 100a36c4     libucrt:exit.obj
 0002:0000f6dc       ??_C@_0P@MIGLKIOC@CorExitProcess?$AA@ 100a36dc     libucrt:exit.obj
 0002:0000f850       ??_C@_03KHJOGHMM@exp?$AA@  100a3850     libucrt:fpexcept.obj
 0002:0000f854       ??_C@_03JGHBODFD@pow?$AA@  100a3854     libucrt:fpexcept.obj
 0002:0000f858       ??_C@_03MGHMBJCF@log?$AA@  100a3858     libucrt:fpexcept.obj
 0002:0000f85c       ??_C@_05HGHHAHAP@log10?$AA@ 100a385c     libucrt:fpexcept.obj
 0002:0000f864       ??_C@_04COOMCNPB@sinh?$AA@ 100a3864     libucrt:fpexcept.obj
 0002:0000f86c       ??_C@_04HPJJNFIM@cosh?$AA@ 100a386c     libucrt:fpexcept.obj
 0002:0000f874       ??_C@_04FJHINJAO@tanh?$AA@ 100a3874     libucrt:fpexcept.obj
 0002:0000f87c       ??_C@_04FIHNOPOL@asin?$AA@ 100a387c     libucrt:fpexcept.obj
 0002:0000f884       ??_C@_04PDIFKINK@acos?$AA@ 100a3884     libucrt:fpexcept.obj
 0002:0000f88c       ??_C@_04MLLJIGOK@atan?$AA@ 100a388c     libucrt:fpexcept.obj
 0002:0000f894       ??_C@_05KNGEOGJB@atan2?$AA@ 100a3894     libucrt:fpexcept.obj
 0002:0000f89c       ??_C@_04EIAKFFMI@sqrt?$AA@ 100a389c     libucrt:fpexcept.obj
 0002:0000f8a4       ??_C@_03BLEJJJBH@sin?$AA@  100a38a4     libucrt:fpexcept.obj
 0002:0000f8a8       ??_C@_03LALBNOCG@cos?$AA@  100a38a8     libucrt:fpexcept.obj
 0002:0000f8ac       ??_C@_03IIINPABG@tan?$AA@  100a38ac     libucrt:fpexcept.obj
 0002:0000f8b0       ??_C@_04GFPJNGEK@ceil?$AA@ 100a38b0     libucrt:fpexcept.obj
 0002:0000f8b8       ??_C@_05PBJFFIGL@floor?$AA@ 100a38b8     libucrt:fpexcept.obj
 0002:0000f8c0       ??_C@_04ODHECPBC@fabs?$AA@ 100a38c0     libucrt:fpexcept.obj
 0002:0000f8c8       ??_C@_04EHEDPDJG@modf?$AA@ 100a38c8     libucrt:fpexcept.obj
 0002:0000f8d0       ??_C@_05CEJMAHNP@ldexp?$AA@ 100a38d0     libucrt:fpexcept.obj
 0002:0000f8d8       ??_C@_05KBKMEMPO@_cabs?$AA@ 100a38d8     libucrt:fpexcept.obj
 0002:0000f8e0       ??_C@_06MEIMCGCF@_hypot?$AA@ 100a38e0     libucrt:fpexcept.obj
 0002:0000f8e8       ??_C@_04KEPJIHGP@fmod?$AA@ 100a38e8     libucrt:fpexcept.obj
 0002:0000f8f0       ??_C@_05GKKHEGJL@frexp?$AA@ 100a38f0     libucrt:fpexcept.obj
 0002:0000f8f8       ??_C@_03MJLDFKDL@_y0?$AA@  100a38f8     libucrt:fpexcept.obj
 0002:0000f8fc       ??_C@_03NAKIGLHK@_y1?$AA@  100a38fc     libucrt:fpexcept.obj
 0002:0000f900       ??_C@_03ONILCKOB@_yn?$AA@  100a3900     libucrt:fpexcept.obj
 0002:0000f904       ??_C@_05JGDBENOH@_logb?$AA@ 100a3904     libucrt:fpexcept.obj
 0002:0000f90c       ??_C@_0L@KDOEJCKC@_nextafter?$AA@ 100a390c     libucrt:fpexcept.obj
 0002:0000f918       __wctype                   100a3918     libucrt:ctype.obj
 0002:0000fb20       ___newctype                100a3b20     libucrt:ctype.obj
 0002:0000fe20       ___newclmap                100a3e20     libucrt:ctype.obj
 0002:0000ffa0       ___newcumap                100a3fa0     libucrt:ctype.obj
 0002:00010124       __half                     100a4124     libucrt:pow.obj
 0002:00010130       ___lc_category             100a4130     libucrt:wsetlocale.obj
 0002:00010178       ??_C@_1O@GIFLHMA@?$AAL?$AAC?$AA_?$AAA?$AAL?$AAL?$AA?$AA@ 100a4178     libucrt:wsetlocale.obj
 0002:00010188       ??_C@_1BG@PPOMIBNJ@?$AAL?$AAC?$AA_?$AAC?$AAO?$AAL?$AAL?$AAA?$AAT?$AAE?$AA?$AA@ 100a4188     libucrt:wsetlocale.obj
 0002:000101a0       ??_C@_1BC@FFJGAPJM@?$AAL?$AAC?$AA_?$AAC?$AAT?$AAY?$AAP?$AAE?$AA?$AA@ 100a41a0     libucrt:wsetlocale.obj
 0002:000101b4       ??_C@_1BI@PCKFNJFB@?$AAL?$AAC?$AA_?$AAM?$AAO?$AAN?$AAE?$AAT?$AAA?$AAR?$AAY?$AA?$AA@ 100a41b4     libucrt:wsetlocale.obj
 0002:000101cc       ??_C@_1BG@ENIEDKID@?$AAL?$AAC?$AA_?$AAN?$AAU?$AAM?$AAE?$AAR?$AAI?$AAC?$AA?$AA@ 100a41cc     libucrt:wsetlocale.obj
 0002:000101e4       ??_C@_1BA@HAAOMIIG@?$AAL?$AAC?$AA_?$AAT?$AAI?$AAM?$AAE?$AA?$AA@ 100a41e4     libucrt:wsetlocale.obj
 0002:00010278       ??_C@_15NBPDDFIP@?$AA?$DN?$AA?$DL?$AA?$AA@ 100a4278     libucrt:wsetlocale.obj
 0002:00010280       ??_C@_13PJJBFPED@?$AA?$DL?$AA?$AA@ 100a4280     libucrt:wsetlocale.obj
 0002:00010284       ??_C@_13NMPKAAJP@?$AA?$DN?$AA?$AA@ 100a4284     libucrt:wsetlocale.obj
 0002:00010288       ??_C@_13FHBKNHDA@?$AAC?$AA?$AA@ 100a4288     libucrt:wsetlocale.obj
 0002:0001028c       ??_C@_17MBJJLFDM@?$AA_?$AA?4?$AA?0?$AA?$AA@ 100a428c     libucrt:wsetlocale.obj
 0002:00010294       ??_C@_13ENNFDPBH@?$AA_?$AA?$AA@ 100a4294     libucrt:wsetlocale.obj
 0002:00010298       ??_C@_13JOFGPIOO@?$AA?4?$AA?$AA@ 100a4298     libucrt:wsetlocale.obj
 0002:0001029c       ??_C@_03KOEHGMDN@Sun?$AA@  100a429c     libucrt:nlsdata.obj
 0002:000102a0       ??_C@_03PDAGKDH@Mon?$AA@   100a42a0     libucrt:nlsdata.obj
 0002:000102a4       ??_C@_03NAGEINEP@Tue?$AA@  100a42a4     libucrt:nlsdata.obj
 0002:000102a8       ??_C@_03MHOMLAJA@Wed?$AA@  100a42a8     libucrt:nlsdata.obj
 0002:000102ac       ??_C@_03IOFIKPDN@Thu?$AA@  100a42ac     libucrt:nlsdata.obj
 0002:000102b0       ??_C@_03IDIOELNC@Fri?$AA@  100a42b0     libucrt:nlsdata.obj
 0002:000102b4       ??_C@_03FEFJNEK@Sat?$AA@   100a42b4     libucrt:nlsdata.obj
 0002:000102b8       ??_C@_06OOPIFAJ@Sunday?$AA@ 100a42b8     libucrt:nlsdata.obj
 0002:000102c0       ??_C@_06JLEDEDGH@Monday?$AA@ 100a42c0     libucrt:nlsdata.obj
 0002:000102c8       ??_C@_07BAAGCFCM@Tuesday?$AA@ 100a42c8     libucrt:nlsdata.obj
 0002:000102d0       ??_C@_09DLIGFAKA@Wednesday?$AA@ 100a42d0     libucrt:nlsdata.obj
 0002:000102dc       ??_C@_08HACCIKIA@Thursday?$AA@ 100a42dc     libucrt:nlsdata.obj
 0002:000102e8       ??_C@_06JECMNKMI@Friday?$AA@ 100a42e8     libucrt:nlsdata.obj
 0002:000102f0       ??_C@_08INBOOONO@Saturday?$AA@ 100a42f0     libucrt:nlsdata.obj
 0002:000102fc       ??_C@_03JIHJHPIE@Jan?$AA@  100a42fc     libucrt:nlsdata.obj
 0002:00010300       ??_C@_03HJBDCHOM@Feb?$AA@  100a4300     libucrt:nlsdata.obj
 0002:00010304       ??_C@_03ODNJBKGA@Mar?$AA@  100a4304     libucrt:nlsdata.obj
 0002:00010308       ??_C@_03LEOLGMJP@Apr?$AA@  100a4308     libucrt:nlsdata.obj
 0002:0001030c       ??_C@_03CNMDKL@May?$AA@    100a430c     libucrt:nlsdata.obj
 0002:00010310       ??_C@_03IDFGHECI@Jun?$AA@  100a4310     libucrt:nlsdata.obj
 0002:00010314       ??_C@_03LBGABGKK@Jul?$AA@  100a4314     libucrt:nlsdata.obj
 0002:00010318       ??_C@_03IFJFEIGA@Aug?$AA@  100a4318     libucrt:nlsdata.obj
 0002:0001031c       ??_C@_03GGCAPAJC@Sep?$AA@  100a431c     libucrt:nlsdata.obj
 0002:00010320       ??_C@_03BMAOKBAD@Oct?$AA@  100a4320     libucrt:nlsdata.obj
 0002:00010324       ??_C@_03JPJOFNIA@Nov?$AA@  100a4324     libucrt:nlsdata.obj
 0002:00010328       ??_C@_03MKABNOCG@Dec?$AA@  100a4328     libucrt:nlsdata.obj
 0002:0001032c       ??_C@_07CGJPFGJA@January?$AA@ 100a432c     libucrt:nlsdata.obj
 0002:00010334       ??_C@_08GNJGEPFN@February?$AA@ 100a4334     libucrt:nlsdata.obj
 0002:00010340       ??_C@_05HPCKOFNC@March?$AA@ 100a4340     libucrt:nlsdata.obj
 0002:00010348       ??_C@_05DMJDNLEJ@April?$AA@ 100a4348     libucrt:nlsdata.obj
 0002:00010350       ??_C@_04CNLMGBGM@June?$AA@ 100a4350     libucrt:nlsdata.obj
 0002:00010358       ??_C@_04MIEPOIFP@July?$AA@ 100a4358     libucrt:nlsdata.obj
 0002:00010360       ??_C@_06LBBHFDDG@August?$AA@ 100a4360     libucrt:nlsdata.obj
 0002:00010368       ??_C@_09BHHEALKD@September?$AA@ 100a4368     libucrt:nlsdata.obj
 0002:00010374       ??_C@_07JJNFCEND@October?$AA@ 100a4374     libucrt:nlsdata.obj
 0002:0001037c       ??_C@_08HCHEGEOA@November?$AA@ 100a437c     libucrt:nlsdata.obj
 0002:00010388       ??_C@_08EDHMEBNP@December?$AA@ 100a4388     libucrt:nlsdata.obj
 0002:00010394       ??_C@_02DEDBPAFC@AM?$AA@   100a4394     libucrt:nlsdata.obj
 0002:00010398       ??_C@_02CJNFDJBF@PM?$AA@   100a4398     libucrt:nlsdata.obj
 0002:0001039c       ??_C@_08BPBNCDIB@MM?1dd?1yy?$AA@ 100a439c     libucrt:nlsdata.obj
 0002:000103a8       ??_C@_0BE@CKGJFCPC@dddd?0?5MMMM?5dd?0?5yyyy?$AA@ 100a43a8     libucrt:nlsdata.obj
 0002:000103bc       ??_C@_08JCCMCCIL@HH?3mm?3ss?$AA@ 100a43bc     libucrt:nlsdata.obj
 0002:000103c8       ??_C@_17MBGCMIPB@?$AAS?$AAu?$AAn?$AA?$AA@ 100a43c8     libucrt:nlsdata.obj
 0002:000103d0       ??_C@_17KBOMKBF@?$AAM?$AAo?$AAn?$AA?$AA@ 100a43d0     libucrt:nlsdata.obj
 0002:000103d8       ??_C@_17BMKGEGOJ@?$AAT?$AAu?$AAe?$AA?$AA@ 100a43d8     libucrt:nlsdata.obj
 0002:000103e0       ??_C@_17CJEDCEPE@?$AAW?$AAe?$AAd?$AA?$AA@ 100a43e0     libucrt:nlsdata.obj
 0002:000103e8       ??_C@_17PDPHAADD@?$AAT?$AAh?$AAu?$AA?$AA@ 100a43e8     libucrt:nlsdata.obj
 0002:000103f0       ??_C@_17HFOLPPLP@?$AAF?$AAr?$AAi?$AA?$AA@ 100a43f0     libucrt:nlsdata.obj
 0002:000103f8       ??_C@_17GGIBDPIH@?$AAS?$AAa?$AAt?$AA?$AA@ 100a43f8     libucrt:nlsdata.obj
 0002:00010400       ??_C@_1O@IHNHDHPB@?$AAS?$AAu?$AAn?$AAd?$AAa?$AAy?$AA?$AA@ 100a4400     libucrt:nlsdata.obj
 0002:00010410       ??_C@_1O@MMNBFLIA@?$AAM?$AAo?$AAn?$AAd?$AAa?$AAy?$AA?$AA@ 100a4410     libucrt:nlsdata.obj
 0002:00010420       ??_C@_1BA@ENFBFFEK@?$AAT?$AAu?$AAe?$AAs?$AAd?$AAa?$AAy?$AA?$AA@ 100a4420     libucrt:nlsdata.obj
 0002:00010430       ??_C@_1BE@EBOGMDOH@?$AAW?$AAe?$AAd?$AAn?$AAe?$AAs?$AAd?$AAa?$AAy?$AA?$AA@ 100a4430     libucrt:nlsdata.obj
 0002:00010444       ??_C@_1BC@HHMNLIHE@?$AAT?$AAh?$AAu?$AAr?$AAs?$AAd?$AAa?$AAy?$AA?$AA@ 100a4444     libucrt:nlsdata.obj
 0002:00010458       ??_C@_1O@PDICJHAG@?$AAF?$AAr?$AAi?$AAd?$AAa?$AAy?$AA?$AA@ 100a4458     libucrt:nlsdata.obj
 0002:00010468       ??_C@_1BC@ENMNNPAJ@?$AAS?$AAa?$AAt?$AAu?$AAr?$AAd?$AAa?$AAy?$AA?$AA@ 100a4468     libucrt:nlsdata.obj
 0002:0001047c       ??_C@_17DKNBKCHM@?$AAJ?$AAa?$AAn?$AA?$AA@ 100a447c     libucrt:nlsdata.obj
 0002:00010484       ??_C@_17LMDJEKJN@?$AAF?$AAe?$AAb?$AA?$AA@ 100a4484     libucrt:nlsdata.obj
 0002:0001048c       ??_C@_17CKNLEDEC@?$AAM?$AAa?$AAr?$AA?$AA@ 100a448c     libucrt:nlsdata.obj
 0002:00010494       ??_C@_17LFPOIHDD@?$AAA?$AAp?$AAr?$AA?$AA@ 100a4494     libucrt:nlsdata.obj
 0002:0001049c       ??_C@_17PNNKMEED@?$AAM?$AAa?$AAy?$AA?$AA@ 100a449c     libucrt:nlsdata.obj
 0002:000104a4       ??_C@_17KCJGOCPB@?$AAJ?$AAu?$AAn?$AA?$AA@ 100a44a4     libucrt:nlsdata.obj
 0002:000104ac       ??_C@_17IJPCKHK@?$AAJ?$AAu?$AAl?$AA?$AA@ 100a44ac     libucrt:nlsdata.obj
 0002:000104b4       ??_C@_17ICPELBCN@?$AAA?$AAu?$AAg?$AA?$AA@ 100a44b4     libucrt:nlsdata.obj
 0002:000104bc       ??_C@_17HCHCOKMG@?$AAS?$AAe?$AAp?$AA?$AA@ 100a44bc     libucrt:nlsdata.obj
 0002:000104c4       ??_C@_17FNLKOI@?$AAO?$AAc?$AAt?$AA?$AA@ 100a44c4     libucrt:nlsdata.obj
 0002:000104cc       ??_C@_17BBDMLCIG@?$AAN?$AAo?$AAv?$AA?$AA@ 100a44cc     libucrt:nlsdata.obj
 0002:000104d4       ??_C@_17EGKACKIF@?$AAD?$AAe?$AAc?$AA?$AA@ 100a44d4     libucrt:nlsdata.obj
 0002:000104dc       ??_C@_1BA@EFMEIEBA@?$AAJ?$AAa?$AAn?$AAu?$AAa?$AAr?$AAy?$AA?$AA@ 100a44dc     libucrt:nlsdata.obj
 0002:000104ec       ??_C@_1BC@JGDDFFAM@?$AAF?$AAe?$AAb?$AAr?$AAu?$AAa?$AAr?$AAy?$AA?$AA@ 100a44ec     libucrt:nlsdata.obj
 0002:00010500       ??_C@_1M@IKEENEDF@?$AAM?$AAa?$AAr?$AAc?$AAh?$AA?$AA@ 100a4500     libucrt:nlsdata.obj
 0002:0001050c       ??_C@_1M@GJNLMHFD@?$AAA?$AAp?$AAr?$AAi?$AAl?$AA?$AA@ 100a450c     libucrt:nlsdata.obj
 0002:00010518       ??_C@_19EPFLPGAP@?$AAJ?$AAu?$AAn?$AAe?$AA?$AA@ 100a4518     libucrt:nlsdata.obj
 0002:00010524       ??_C@_19BIFMLPCD@?$AAJ?$AAu?$AAl?$AAy?$AA?$AA@ 100a4524     libucrt:nlsdata.obj
 0002:00010530       ??_C@_1O@PAHLKOAC@?$AAA?$AAu?$AAg?$AAu?$AAs?$AAt?$AA?$AA@ 100a4530     libucrt:nlsdata.obj
 0002:00010540       ??_C@_1BE@DKAAMBJL@?$AAS?$AAe?$AAp?$AAt?$AAe?$AAm?$AAb?$AAe?$AAr?$AA?$AA@ 100a4540     libucrt:nlsdata.obj
 0002:00010554       ??_C@_1BA@EPANDLNG@?$AAO?$AAc?$AAt?$AAo?$AAb?$AAe?$AAr?$AA?$AA@ 100a4554     libucrt:nlsdata.obj
 0002:00010564       ??_C@_1BC@BGLIFPF@?$AAN?$AAo?$AAv?$AAe?$AAm?$AAb?$AAe?$AAr?$AA?$AA@ 100a4564     libucrt:nlsdata.obj
 0002:00010578       ??_C@_1BC@FEMKIFH@?$AAD?$AAe?$AAc?$AAe?$AAm?$AAb?$AAe?$AAr?$AA?$AA@ 100a4578     libucrt:nlsdata.obj
 0002:0001058c       ??_C@_15ODEHAHHF@?$AAA?$AAM?$AA?$AA@ 100a458c     libucrt:nlsdata.obj
 0002:00010594       ??_C@_15CLMNNGEL@?$AAP?$AAM?$AA?$AA@ 100a4594     libucrt:nlsdata.obj
 0002:0001059c       ??_C@_1BC@IEBCMHCM@?$AAM?$AAM?$AA?1?$AAd?$AAd?$AA?1?$AAy?$AAy?$AA?$AA@ 100a459c     libucrt:nlsdata.obj
 0002:000105b0       ??_C@_1CI@KNAKOEBC@?$AAd?$AAd?$AAd?$AAd?$AA?0?$AA?5?$AAM?$AAM?$AAM?$AAM?$AA?5?$AAd?$AAd?$AA?0?$AA?5?$AAy?$AAy?$AAy?$AAy?$AA?$AA@ 100a45b0     libucrt:nlsdata.obj
 0002:000105d8       ??_C@_1BC@GDGBMEMK@?$AAH?$AAH?$AA?3?$AAm?$AAm?$AA?3?$AAs?$AAs?$AA?$AA@ 100a45d8     libucrt:nlsdata.obj
 0002:000105f0       ___lc_time_c               100a45f0     libucrt:nlsdata.obj
 0002:00010758       ___acrt_pow_rcp_t1         100a4758     libucrt:pow_tables.obj
 0002:00010b70       ___acrt_pow_log2_t1        100a4b70     libucrt:pow_tables.obj
 0002:00011380       ___acrt_pow_rcp_t2         100a5380     libucrt:pow_tables.obj
 0002:00011790       ___acrt_pow_log2_t2        100a5790     libucrt:pow_tables.obj
 0002:00011fa0       ___acrt_pow_rcp_t3         100a5fa0     libucrt:pow_tables.obj
 0002:000127b0       ___acrt_pow_log2_t3        100a67b0     libucrt:pow_tables.obj
 0002:000137c0       ___acrt_pow_clv            100a77c0     libucrt:pow_tables.obj
 0002:000137e0       ___acrt_pow_exp2_tbl       100a77e0     libucrt:pow_tables.obj
 0002:00013fe8       ??_C@_03OEIAHPBN@INF?$AA@  100a7fe8     libucrt:cvt.obj
 0002:00013fec       ??_C@_03OJHLLCGB@inf?$AA@  100a7fec     libucrt:cvt.obj
 0002:00013ff0       ??_C@_03LKNCIKJB@NAN?$AA@  100a7ff0     libucrt:cvt.obj
 0002:00013ff4       ??_C@_03LHCJEHON@nan?$AA@  100a7ff4     libucrt:cvt.obj
 0002:00013ff8       ??_C@_09OFJJIMPC@NAN?$CISNAN?$CJ?$AA@ 100a7ff8     libucrt:cvt.obj
 0002:00014004       ??_C@_09IPFBKMDL@nan?$CIsnan?$CJ?$AA@ 100a8004     libucrt:cvt.obj
 0002:00014010       ??_C@_08IKHNHAJ@NAN?$CIIND?$CJ?$AA@ 100a8010     libucrt:cvt.obj
 0002:0001401c       ??_C@_08OFCDMILK@nan?$CIind?$CJ?$AA@ 100a801c     libucrt:cvt.obj
 0002:00014028       ??_C@_05KLBDPFGC@e?$CL000?$AA@ 100a8028     libucrt:cvt.obj
 0002:00014030       ___acrt_exp_tbl_addr       100a8030     libucrt:exp_tables.obj
 0002:00014440       ___acrt_cos_sin_ctable     100a8440     libucrt:cos_sin_ctable.obj
 0002:00014c48       ?ccs@?1???$__acrt_stdio_parse_mode@D@@YA?AU__acrt_stdio_stream_mode@@QBD@Z@4QBDB 100a8c48     libucrt:openfile.obj
 0002:00014c4c       ?utf8_encoding@?1???$__acrt_stdio_parse_mode@D@@YA?AU__acrt_stdio_stream_mode@@QBD@Z@4QBDB 100a8c4c     libucrt:openfile.obj
 0002:00014c54       ?utf16_encoding@?1???$__acrt_stdio_parse_mode@D@@YA?AU__acrt_stdio_stream_mode@@QBD@Z@4QBDB 100a8c54     libucrt:openfile.obj
 0002:00014c5c       ?unicode_encoding@?1???$__acrt_stdio_parse_mode@D@@YA?AU__acrt_stdio_stream_mode@@QBD@Z@4QBDB 100a8c5c     libucrt:openfile.obj
 0002:00014c64       ?ccs@?1???$__acrt_stdio_parse_mode@_W@@YA?AU__acrt_stdio_stream_mode@@QB_W@Z@4QB_WB 100a8c64     libucrt:openfile.obj
 0002:00014c6c       ?utf8_encoding@?1???$__acrt_stdio_parse_mode@_W@@YA?AU__acrt_stdio_stream_mode@@QB_W@Z@4QB_WB 100a8c6c     libucrt:openfile.obj
 0002:00014c78       ?utf16_encoding@?1???$__acrt_stdio_parse_mode@_W@@YA?AU__acrt_stdio_stream_mode@@QB_W@Z@4QB_WB 100a8c78     libucrt:openfile.obj
 0002:00014c88       ?unicode_encoding@?1???$__acrt_stdio_parse_mode@_W@@YA?AU__acrt_stdio_stream_mode@@QB_W@Z@4QB_WB 100a8c88     libucrt:openfile.obj
 0002:00014ce8       ??_C@_1EA@JGEFHKEI@?$AAa?$AAp?$AAi?$AA?9?$AAm?$AAs?$AA?9?$AAw?$AAi?$AAn?$AA?9?$AAc?$AAo?$AAr?$AAe?$AA?9?$AAd?$AAa?$AAt?$AAe?$AAt?$AAi?$AAm?$AAe?$AA?9?$AAl?$AA1?$AA?9?$AA1?$AA?9?$AA1?$AA?$AA@ 100a8ce8     libucrt:winapi_thunks.obj
 0002:00014d28       ??_C@_1DI@IJCEHOCB@?$AAa?$AAp?$AAi?$AA?9?$AAm?$AAs?$AA?9?$AAw?$AAi?$AAn?$AA?9?$AAc?$AAo?$AAr?$AAe?$AA?9?$AAf?$AAi?$AAl?$AAe?$AA?9?$AAl?$AA1?$AA?9?$AA2?$AA?9?$AA2?$AA?$AA@ 100a8d28     libucrt:winapi_thunks.obj
 0002:00014d60       ??_C@_1EI@MPIAOHOC@?$AAa?$AAp?$AAi?$AA?9?$AAm?$AAs?$AA?9?$AAw?$AAi?$AAn?$AA?9?$AAc?$AAo?$AAr?$AAe?$AA?9?$AAl?$AAo?$AAc?$AAa?$AAl?$AAi?$AAz?$AAa?$AAt?$AAi?$AAo?$AAn?$AA?9?$AAl?$AA1?$AA?9@ 100a8d60     libucrt:winapi_thunks.obj
 0002:00014da8       ??_C@_1FK@FPHCKFIE@?$AAa?$AAp?$AAi?$AA?9?$AAm?$AAs?$AA?9?$AAw?$AAi?$AAn?$AA?9?$AAc?$AAo?$AAr?$AAe?$AA?9?$AAl?$AAo?$AAc?$AAa?$AAl?$AAi?$AAz?$AAa?$AAt?$AAi?$AAo?$AAn?$AA?9?$AAo?$AAb?$AAs@ 100a8da8     libucrt:winapi_thunks.obj
 0002:00014e08       ??_C@_1EM@DILCGIIO@?$AAa?$AAp?$AAi?$AA?9?$AAm?$AAs?$AA?9?$AAw?$AAi?$AAn?$AA?9?$AAc?$AAo?$AAr?$AAe?$AA?9?$AAp?$AAr?$AAo?$AAc?$AAe?$AAs?$AAs?$AAt?$AAh?$AAr?$AAe?$AAa?$AAd?$AAs?$AA?9?$AAl@ 100a8e08     libucrt:winapi_thunks.obj
 0002:00014e54       ??_C@_1DM@LNCGDDPN@?$AAa?$AAp?$AAi?$AA?9?$AAm?$AAs?$AA?9?$AAw?$AAi?$AAn?$AA?9?$AAc?$AAo?$AAr?$AAe?$AA?9?$AAs?$AAt?$AAr?$AAi?$AAn?$AAg?$AA?9?$AAl?$AA1?$AA?9?$AA1?$AA?9?$AA0?$AA?$AA@ 100a8e54     libucrt:winapi_thunks.obj
 0002:00014e90       ??_C@_1DO@FPAPJEMD@?$AAa?$AAp?$AAi?$AA?9?$AAm?$AAs?$AA?9?$AAw?$AAi?$AAn?$AA?9?$AAc?$AAo?$AAr?$AAe?$AA?9?$AAs?$AAy?$AAs?$AAi?$AAn?$AAf?$AAo?$AA?9?$AAl?$AA1?$AA?9?$AA2?$AA?9?$AA1?$AA?$AA@ 100a8e90     libucrt:winapi_thunks.obj
 0002:00014ed0       ??_C@_1DK@NDHNAHIO@?$AAa?$AAp?$AAi?$AA?9?$AAm?$AAs?$AA?9?$AAw?$AAi?$AAn?$AA?9?$AAc?$AAo?$AAr?$AAe?$AA?9?$AAw?$AAi?$AAn?$AAr?$AAt?$AA?9?$AAl?$AA1?$AA?9?$AA1?$AA?9?$AA0?$AA?$AA@ 100a8ed0     libucrt:winapi_thunks.obj
 0002:00014f0c       ??_C@_1DM@KGHDGBCM@?$AAa?$AAp?$AAi?$AA?9?$AAm?$AAs?$AA?9?$AAw?$AAi?$AAn?$AA?9?$AAc?$AAo?$AAr?$AAe?$AA?9?$AAx?$AAs?$AAt?$AAa?$AAt?$AAe?$AA?9?$AAl?$AA2?$AA?9?$AA1?$AA?9?$AA0?$AA?$AA@ 100a8f0c     libucrt:winapi_thunks.obj
 0002:00014f48       ??_C@_1EO@IJIOEFOH@?$AAa?$AAp?$AAi?$AA?9?$AAm?$AAs?$AA?9?$AAw?$AAi?$AAn?$AA?9?$AAr?$AAt?$AAc?$AAo?$AAr?$AAe?$AA?9?$AAn?$AAt?$AAu?$AAs?$AAe?$AAr?$AA?9?$AAw?$AAi?$AAn?$AAd?$AAo?$AAw?$AA?9@ 100a8f48     libucrt:winapi_thunks.obj
 0002:00014f98       ??_C@_1FG@HHGEKANL@?$AAa?$AAp?$AAi?$AA?9?$AAm?$AAs?$AA?9?$AAw?$AAi?$AAn?$AA?9?$AAs?$AAe?$AAc?$AAu?$AAr?$AAi?$AAt?$AAy?$AA?9?$AAs?$AAy?$AAs?$AAt?$AAe?$AAm?$AAf?$AAu?$AAn?$AAc?$AAt?$AAi@ 100a8f98     libucrt:winapi_thunks.obj
 0002:00014ff0       ??_C@_1EG@DBIOJECG@?$AAe?$AAx?$AAt?$AA?9?$AAm?$AAs?$AA?9?$AAw?$AAi?$AAn?$AA?9?$AAn?$AAt?$AAu?$AAs?$AAe?$AAr?$AA?9?$AAd?$AAi?$AAa?$AAl?$AAo?$AAg?$AAb?$AAo?$AAx?$AA?9?$AAl?$AA1?$AA?9?$AA1@ 100a8ff0     libucrt:winapi_thunks.obj
 0002:00015038       ??_C@_1EO@FIHMJCLF@?$AAe?$AAx?$AAt?$AA?9?$AAm?$AAs?$AA?9?$AAw?$AAi?$AAn?$AA?9?$AAn?$AAt?$AAu?$AAs?$AAe?$AAr?$AA?9?$AAw?$AAi?$AAn?$AAd?$AAo?$AAw?$AAs?$AAt?$AAa?$AAt?$AAi?$AAo?$AAn?$AA?9@ 100a9038     libucrt:winapi_thunks.obj
 0002:00015088       ??_C@_1BC@DNHGCMLG@?$AAa?$AAd?$AAv?$AAa?$AAp?$AAi?$AA3?$AA2?$AA?$AA@ 100a9088     libucrt:winapi_thunks.obj
 0002:0001509c       ??_C@_1M@OAIMIKLP@?$AAn?$AAt?$AAd?$AAl?$AAl?$AA?$AA@ 100a909c     libucrt:winapi_thunks.obj
 0002:000150a8       ??_C@_1EG@DPGNFKGC@?$AAa?$AAp?$AAi?$AA?9?$AAm?$AAs?$AA?9?$AAw?$AAi?$AAn?$AA?9?$AAa?$AAp?$AAp?$AAm?$AAo?$AAd?$AAe?$AAl?$AA?9?$AAr?$AAu?$AAn?$AAt?$AAi?$AAm?$AAe?$AA?9?$AAl?$AA1?$AA?9?$AA1@ 100a90a8     libucrt:winapi_thunks.obj
 0002:000150f0       ??_C@_1O@BCCLBEOE@?$AAu?$AAs?$AAe?$AAr?$AA3?$AA2?$AA?$AA@ 100a90f0     libucrt:winapi_thunks.obj
 0002:00015104       ??_C@_0BA@FHFNEAED@AreFileApisANSI?$AA@ 100a9104     libucrt:winapi_thunks.obj
 0002:00015124       ??_C@_0BE@LJANKFHF@EnumSystemLocalesEx?$AA@ 100a9124     libucrt:winapi_thunks.obj
 0002:00015160       ??_C@_0BA@EPCJIIPD@GetDateFormatEx?$AA@ 100a9160     libucrt:winapi_thunks.obj
 0002:00015184       ??_C@_0BA@CIJJKCJJ@GetTimeFormatEx?$AA@ 100a9184     libucrt:winapi_thunks.obj
 0002:0001519c       ??_C@_0BJ@PBCCBIPI@GetUserDefaultLocaleName?$AA@ 100a919c     libucrt:winapi_thunks.obj
 0002:000151c8       ??_C@_0BC@CELBKLLA@IsValidLocaleName?$AA@ 100a91c8     libucrt:winapi_thunks.obj
 0002:000151ec       ??_C@_0BB@CDHDDLLP@LCIDToLocaleName?$AA@ 100a91ec     libucrt:winapi_thunks.obj
 0002:00015208       ??_C@_0BB@HBDEELFH@LocaleNameToLCID?$AA@ 100a9208     libucrt:winapi_thunks.obj
 0002:00015220       ??_C@_0CF@OJOFEIGO@AppPolicyGetProcessTerminationMe@ 100a9220     libucrt:winapi_thunks.obj
 0002:00015250       ??_C@_0BC@JEAENNKH@SystemFunction036?$AA@ 100a9250     libucrt:winapi_thunks.obj
 0002:00015270       __OP_ATAN2jmptab           100a9270     libucrt:87triga.obj
 0002:000152f0       __indefinite               100a92f0     libucrt:87disp.obj
 0002:000152fa       __piby2                    100a92fa     libucrt:87disp.obj
 0002:00015304       __piby4                    100a9304     libucrt:87disp.obj
 0002:00015330       __Inf_C                    100a9330     libucrt:_values.obj
 0002:00015338       __Nan_C                    100a9338     libucrt:_values.obj
 0002:00015350       ___acrt_acos_asin_tbl_addr 100a9350     libucrt:acos_asin_tbl_addr.obj
 0002:00016250       ___acrt_acos_asin_t_table  100aa250     libucrt:acos_asin_t_table.obj
 0002:00016a68       __atan_table               100aaa68     libucrt:atan_table.obj
 0002:00018278       __d_inf                    100ac278     libucrt:util.obj
 0002:00018280       __d_max                    100ac280     libucrt:util.obj
 0002:00018288       __d_mzero                  100ac288     libucrt:util.obj
 0002:00018380       __infinity                 100ac380     libucrt:87tran.obj
 0002:0001838a       __minfinity                100ac38a     libucrt:87tran.obj
 0002:00018394       __logemax                  100ac394     libucrt:87tran.obj
 0002:000183ba       __OP_EXPjmptab             100ac3ba     libucrt:87tran.obj
 0002:000183e8       __DEFAULT_CW_in_mem        100ac3e8     libucrt:common.obj
 0002:000183ea       __pi_by_2_to_61            100ac3ea     libucrt:common.obj
 0002:00018424       ??_C@_1BC@LLOKLNP@?$AAa?$AAm?$AAe?$AAr?$AAi?$AAc?$AAa?$AAn?$AA?$AA@ 100ac424     libucrt:get_qualified_locale.obj
 0002:00018438       ??_C@_1CC@HEIGCDGG@?$AAa?$AAm?$AAe?$AAr?$AAi?$AAc?$AAa?$AAn?$AA?5?$AAe?$AAn?$AAg?$AAl?$AAi?$AAs?$AAh?$AA?$AA@ 100ac438     libucrt:get_qualified_locale.obj
 0002:0001845c       ??_C@_1CC@IHCNOMIN@?$AAa?$AAm?$AAe?$AAr?$AAi?$AAc?$AAa?$AAn?$AA?9?$AAe?$AAn?$AAg?$AAl?$AAi?$AAs?$AAh?$AA?$AA@ 100ac45c     libucrt:get_qualified_locale.obj
 0002:00018480       ??_C@_1BG@GKAGPCGG@?$AAa?$AAu?$AAs?$AAt?$AAr?$AAa?$AAl?$AAi?$AAa?$AAn?$AA?$AA@ 100ac480     libucrt:get_qualified_locale.obj
 0002:00018498       ??_C@_1BA@GMENCENF@?$AAb?$AAe?$AAl?$AAg?$AAi?$AAa?$AAn?$AA?$AA@ 100ac498     libucrt:get_qualified_locale.obj
 0002:000184a8       ??_C@_1BC@PJMIIAAN@?$AAc?$AAa?$AAn?$AAa?$AAd?$AAi?$AAa?$AAn?$AA?$AA@ 100ac4a8     libucrt:get_qualified_locale.obj
 0002:000184bc       ??_C@_17NOIMNFBF@?$AAc?$AAh?$AAh?$AA?$AA@ 100ac4bc     libucrt:get_qualified_locale.obj
 0002:000184c4       ??_C@_17GGDALCHA@?$AAc?$AAh?$AAi?$AA?$AA@ 100ac4c4     libucrt:get_qualified_locale.obj
 0002:000184cc       ??_C@_1BA@NPNJKIBL@?$AAc?$AAh?$AAi?$AAn?$AAe?$AAs?$AAe?$AA?$AA@ 100ac4cc     libucrt:get_qualified_locale.obj
 0002:000184dc       ??_C@_1CC@DINBAMMJ@?$AAc?$AAh?$AAi?$AAn?$AAe?$AAs?$AAe?$AA?9?$AAh?$AAo?$AAn?$AAg?$AAk?$AAo?$AAn?$AAg?$AA?$AA@ 100ac4dc     libucrt:get_qualified_locale.obj
 0002:00018500       ??_C@_1CG@IOBJPACO@?$AAc?$AAh?$AAi?$AAn?$AAe?$AAs?$AAe?$AA?9?$AAs?$AAi?$AAm?$AAp?$AAl?$AAi?$AAf?$AAi?$AAe?$AAd?$AA?$AA@ 100ac500     libucrt:get_qualified_locale.obj
 0002:00018528       ??_C@_1CE@GAJNDCKG@?$AAc?$AAh?$AAi?$AAn?$AAe?$AAs?$AAe?$AA?9?$AAs?$AAi?$AAn?$AAg?$AAa?$AAp?$AAo?$AAr?$AAe?$AA?$AA@ 100ac528     libucrt:get_qualified_locale.obj
 0002:0001854c       ??_C@_1CI@PAJPIOOD@?$AAc?$AAh?$AAi?$AAn?$AAe?$AAs?$AAe?$AA?9?$AAt?$AAr?$AAa?$AAd?$AAi?$AAt?$AAi?$AAo?$AAn?$AAa?$AAl?$AA?$AA@ 100ac54c     libucrt:get_qualified_locale.obj
 0002:00018574       ??_C@_1BM@NILJBMMD@?$AAd?$AAu?$AAt?$AAc?$AAh?$AA?9?$AAb?$AAe?$AAl?$AAg?$AAi?$AAa?$AAn?$AA?$AA@ 100ac574     libucrt:get_qualified_locale.obj
 0002:00018590       ??_C@_1CC@OOJPJNEJ@?$AAe?$AAn?$AAg?$AAl?$AAi?$AAs?$AAh?$AA?9?$AAa?$AAm?$AAe?$AAr?$AAi?$AAc?$AAa?$AAn?$AA?$AA@ 100ac590     libucrt:get_qualified_locale.obj
 0002:000185b4       ??_C@_1BI@IOLFEEM@?$AAe?$AAn?$AAg?$AAl?$AAi?$AAs?$AAh?$AA?9?$AAa?$AAu?$AAs?$AA?$AA@ 100ac5b4     libucrt:get_qualified_locale.obj
 0002:000185cc       ??_C@_1BO@HFFNLENJ@?$AAe?$AAn?$AAg?$AAl?$AAi?$AAs?$AAh?$AA?9?$AAb?$AAe?$AAl?$AAi?$AAz?$AAe?$AA?$AA@ 100ac5cc     libucrt:get_qualified_locale.obj
 0002:000185ec       ??_C@_1BI@HAPKJMPO@?$AAe?$AAn?$AAg?$AAl?$AAi?$AAs?$AAh?$AA?9?$AAc?$AAa?$AAn?$AA?$AA@ 100ac5ec     libucrt:get_qualified_locale.obj
 0002:00018604       ??_C@_1CE@HLNDMIOJ@?$AAe?$AAn?$AAg?$AAl?$AAi?$AAs?$AAh?$AA?9?$AAc?$AAa?$AAr?$AAi?$AAb?$AAb?$AAe?$AAa?$AAn?$AA?$AA@ 100ac604     libucrt:get_qualified_locale.obj
 0002:00018628       ??_C@_1BI@LDHJHHAC@?$AAe?$AAn?$AAg?$AAl?$AAi?$AAs?$AAh?$AA?9?$AAi?$AAr?$AAe?$AA?$AA@ 100ac628     libucrt:get_qualified_locale.obj
 0002:00018640       ??_C@_1CA@NJMMCFOC@?$AAe?$AAn?$AAg?$AAl?$AAi?$AAs?$AAh?$AA?9?$AAj?$AAa?$AAm?$AAa?$AAi?$AAc?$AAa?$AA?$AA@ 100ac640     libucrt:get_qualified_locale.obj
 0002:00018660       ??_C@_1BG@BHJEBBGG@?$AAe?$AAn?$AAg?$AAl?$AAi?$AAs?$AAh?$AA?9?$AAn?$AAz?$AA?$AA@ 100ac660     libucrt:get_qualified_locale.obj
 0002:00018678       ??_C@_1CK@FGOEJJCO@?$AAe?$AAn?$AAg?$AAl?$AAi?$AAs?$AAh?$AA?9?$AAs?$AAo?$AAu?$AAt?$AAh?$AA?5?$AAa?$AAf?$AAr?$AAi?$AAc?$AAa?$AA?$AA@ 100ac678     libucrt:get_qualified_locale.obj
 0002:000186a4       ??_C@_1DE@PDBJPCJ@?$AAe?$AAn?$AAg?$AAl?$AAi?$AAs?$AAh?$AA?9?$AAt?$AAr?$AAi?$AAn?$AAi?$AAd?$AAa?$AAd?$AA?5?$AAy?$AA?5?$AAt?$AAo?$AAb?$AAa?$AAg?$AAo?$AA?$AA@ 100ac6a4     libucrt:get_qualified_locale.obj
 0002:000186d8       ??_C@_1BG@JGCANDME@?$AAe?$AAn?$AAg?$AAl?$AAi?$AAs?$AAh?$AA?9?$AAu?$AAk?$AA?$AA@ 100ac6d8     libucrt:get_qualified_locale.obj
 0002:000186f0       ??_C@_1BG@DINKMLE@?$AAe?$AAn?$AAg?$AAl?$AAi?$AAs?$AAh?$AA?9?$AAu?$AAs?$AA?$AA@ 100ac6f0     libucrt:get_qualified_locale.obj
 0002:00018708       ??_C@_1BI@NMFDBHJE@?$AAe?$AAn?$AAg?$AAl?$AAi?$AAs?$AAh?$AA?9?$AAu?$AAs?$AAa?$AA?$AA@ 100ac708     libucrt:get_qualified_locale.obj
 0002:00018720       ??_C@_1BO@OIHKJKII@?$AAf?$AAr?$AAe?$AAn?$AAc?$AAh?$AA?9?$AAb?$AAe?$AAl?$AAg?$AAi?$AAa?$AAn?$AA?$AA@ 100ac720     libucrt:get_qualified_locale.obj
 0002:00018740       ??_C@_1CA@NKAELJKI@?$AAf?$AAr?$AAe?$AAn?$AAc?$AAh?$AA?9?$AAc?$AAa?$AAn?$AAa?$AAd?$AAi?$AAa?$AAn?$AA?$AA@ 100ac740     libucrt:get_qualified_locale.obj
 0002:00018760       ??_C@_1CE@MGKCNLGN@?$AAf?$AAr?$AAe?$AAn?$AAc?$AAh?$AA?9?$AAl?$AAu?$AAx?$AAe?$AAm?$AAb?$AAo?$AAu?$AAr?$AAg?$AA?$AA@ 100ac760     libucrt:get_qualified_locale.obj
 0002:00018784       ??_C@_1BK@CEGEAILM@?$AAf?$AAr?$AAe?$AAn?$AAc?$AAh?$AA?9?$AAs?$AAw?$AAi?$AAs?$AAs?$AA?$AA@ 100ac784     libucrt:get_qualified_locale.obj
 0002:000187a0       ??_C@_1CA@PAFKEOCC@?$AAg?$AAe?$AAr?$AAm?$AAa?$AAn?$AA?9?$AAa?$AAu?$AAs?$AAt?$AAr?$AAi?$AAa?$AAn?$AA?$AA@ 100ac7a0     libucrt:get_qualified_locale.obj
 0002:000187c0       ??_C@_1CI@HCFHGOFD@?$AAg?$AAe?$AAr?$AAm?$AAa?$AAn?$AA?9?$AAl?$AAi?$AAc?$AAh?$AAt?$AAe?$AAn?$AAs?$AAt?$AAe?$AAi?$AAn?$AA?$AA@ 100ac7c0     libucrt:get_qualified_locale.obj
 0002:000187e8       ??_C@_1CE@FEDDNPDG@?$AAg?$AAe?$AAr?$AAm?$AAa?$AAn?$AA?9?$AAl?$AAu?$AAx?$AAe?$AAm?$AAb?$AAo?$AAu?$AAr?$AAg?$AA?$AA@ 100ac7e8     libucrt:get_qualified_locale.obj
 0002:0001880c       ??_C@_1BK@LIMINNMN@?$AAg?$AAe?$AAr?$AAm?$AAa?$AAn?$AA?9?$AAs?$AAw?$AAi?$AAs?$AAs?$AA?$AA@ 100ac80c     libucrt:get_qualified_locale.obj
 0002:00018828       ??_C@_1BM@LGMDBEPD@?$AAi?$AAr?$AAi?$AAs?$AAh?$AA?9?$AAe?$AAn?$AAg?$AAl?$AAi?$AAs?$AAh?$AA?$AA@ 100ac828     libucrt:get_qualified_locale.obj
 0002:00018844       ??_C@_1BM@NNCFBAEE@?$AAi?$AAt?$AAa?$AAl?$AAi?$AAa?$AAn?$AA?9?$AAs?$AAw?$AAi?$AAs?$AAs?$AA?$AA@ 100ac844     libucrt:get_qualified_locale.obj
 0002:00018860       ??_C@_1BE@FEDJNPIB@?$AAn?$AAo?$AAr?$AAw?$AAe?$AAg?$AAi?$AAa?$AAn?$AA?$AA@ 100ac860     libucrt:get_qualified_locale.obj
 0002:00018874       ??_C@_1CC@CILKDEIE@?$AAn?$AAo?$AAr?$AAw?$AAe?$AAg?$AAi?$AAa?$AAn?$AA?9?$AAb?$AAo?$AAk?$AAm?$AAa?$AAl?$AA?$AA@ 100ac874     libucrt:get_qualified_locale.obj
 0002:00018898       ??_C@_1CE@DHMMHEPL@?$AAn?$AAo?$AAr?$AAw?$AAe?$AAg?$AAi?$AAa?$AAn?$AA?9?$AAn?$AAy?$AAn?$AAo?$AAr?$AAs?$AAk?$AA?$AA@ 100ac898     libucrt:get_qualified_locale.obj
 0002:000188bc       ??_C@_1CK@OPNMHECD@?$AAp?$AAo?$AAr?$AAt?$AAu?$AAg?$AAu?$AAe?$AAs?$AAe?$AA?9?$AAb?$AAr?$AAa?$AAz?$AAi?$AAl?$AAi?$AAa?$AAn?$AA?$AA@ 100ac8bc     libucrt:get_qualified_locale.obj
 0002:000188e8       ??_C@_1CE@KEEHCDB@?$AAs?$AAp?$AAa?$AAn?$AAi?$AAs?$AAh?$AA?9?$AAa?$AAr?$AAg?$AAe?$AAn?$AAt?$AAi?$AAn?$AAa?$AA?$AA@ 100ac8e8     libucrt:get_qualified_locale.obj
 0002:0001890c       ??_C@_1CA@GIAOLHJD@?$AAs?$AAp?$AAa?$AAn?$AAi?$AAs?$AAh?$AA?9?$AAb?$AAo?$AAl?$AAi?$AAv?$AAi?$AAa?$AA?$AA@ 100ac90c     libucrt:get_qualified_locale.obj
 0002:0001892c       ??_C@_1BM@OJNDFNPD@?$AAs?$AAp?$AAa?$AAn?$AAi?$AAs?$AAh?$AA?9?$AAc?$AAh?$AAi?$AAl?$AAe?$AA?$AA@ 100ac92c     libucrt:get_qualified_locale.obj
 0002:00018948       ??_C@_1CC@OCOLPALL@?$AAs?$AAp?$AAa?$AAn?$AAi?$AAs?$AAh?$AA?9?$AAc?$AAo?$AAl?$AAo?$AAm?$AAb?$AAi?$AAa?$AA?$AA@ 100ac948     libucrt:get_qualified_locale.obj
 0002:0001896c       ??_C@_1CG@BPOFMKBB@?$AAs?$AAp?$AAa?$AAn?$AAi?$AAs?$AAh?$AA?9?$AAc?$AAo?$AAs?$AAt?$AAa?$AA?5?$AAr?$AAi?$AAc?$AAa?$AA?$AA@ 100ac96c     libucrt:get_qualified_locale.obj
 0002:00018994       ??_C@_1DG@IGOBAPBB@?$AAs?$AAp?$AAa?$AAn?$AAi?$AAs?$AAh?$AA?9?$AAd?$AAo?$AAm?$AAi?$AAn?$AAi?$AAc?$AAa?$AAn?$AA?5?$AAr?$AAe?$AAp?$AAu?$AAb?$AAl?$AAi?$AAc?$AA?$AA@ 100ac994     libucrt:get_qualified_locale.obj
 0002:000189cc       ??_C@_1CA@JHAPGEGI@?$AAs?$AAp?$AAa?$AAn?$AAi?$AAs?$AAh?$AA?9?$AAe?$AAc?$AAu?$AAa?$AAd?$AAo?$AAr?$AA?$AA@ 100ac9cc     libucrt:get_qualified_locale.obj
 0002:000189ec       ??_C@_1CI@LAPALJPP@?$AAs?$AAp?$AAa?$AAn?$AAi?$AAs?$AAh?$AA?9?$AAe?$AAl?$AA?5?$AAs?$AAa?$AAl?$AAv?$AAa?$AAd?$AAo?$AAr?$AA?$AA@ 100ac9ec     libucrt:get_qualified_locale.obj
 0002:00018a14       ??_C@_1CE@PDGBOFOM@?$AAs?$AAp?$AAa?$AAn?$AAi?$AAs?$AAh?$AA?9?$AAg?$AAu?$AAa?$AAt?$AAe?$AAm?$AAa?$AAl?$AAa?$AA?$AA@ 100aca14     libucrt:get_qualified_locale.obj
 0002:00018a38       ??_C@_1CC@NBEBAODI@?$AAs?$AAp?$AAa?$AAn?$AAi?$AAs?$AAh?$AA?9?$AAh?$AAo?$AAn?$AAd?$AAu?$AAr?$AAa?$AAs?$AA?$AA@ 100aca38     libucrt:get_qualified_locale.obj
 0002:00018a5c       ??_C@_1CA@LLKGHBMF@?$AAs?$AAp?$AAa?$AAn?$AAi?$AAs?$AAh?$AA?9?$AAm?$AAe?$AAx?$AAi?$AAc?$AAa?$AAn?$AA?$AA@ 100aca5c     libucrt:get_qualified_locale.obj
 0002:00018a7c       ??_C@_1BO@LKNDOIGD@?$AAs?$AAp?$AAa?$AAn?$AAi?$AAs?$AAh?$AA?9?$AAm?$AAo?$AAd?$AAe?$AAr?$AAn?$AA?$AA@ 100aca7c     libucrt:get_qualified_locale.obj
 0002:00018a9c       ??_C@_1CE@NMDMOEEB@?$AAs?$AAp?$AAa?$AAn?$AAi?$AAs?$AAh?$AA?9?$AAn?$AAi?$AAc?$AAa?$AAr?$AAa?$AAg?$AAu?$AAa?$AA?$AA@ 100aca9c     libucrt:get_qualified_locale.obj
 0002:00018ac0       ??_C@_1BO@LLCBEJGB@?$AAs?$AAp?$AAa?$AAn?$AAi?$AAs?$AAh?$AA?9?$AAp?$AAa?$AAn?$AAa?$AAm?$AAa?$AA?$AA@ 100acac0     libucrt:get_qualified_locale.obj
 0002:00018ae0       ??_C@_1CC@FKPGGIHO@?$AAs?$AAp?$AAa?$AAn?$AAi?$AAs?$AAh?$AA?9?$AAp?$AAa?$AAr?$AAa?$AAg?$AAu?$AAa?$AAy?$AA?$AA@ 100acae0     libucrt:get_qualified_locale.obj
 0002:00018b04       ??_C@_1BK@CDEIHOOP@?$AAs?$AAp?$AAa?$AAn?$AAi?$AAs?$AAh?$AA?9?$AAp?$AAe?$AAr?$AAu?$AA?$AA@ 100acb04     libucrt:get_qualified_locale.obj
 0002:00018b20       ??_C@_1CI@GAHAKKGP@?$AAs?$AAp?$AAa?$AAn?$AAi?$AAs?$AAh?$AA?9?$AAp?$AAu?$AAe?$AAr?$AAt?$AAo?$AA?5?$AAr?$AAi?$AAc?$AAo?$AA?$AA@ 100acb20     libucrt:get_qualified_locale.obj
 0002:00018b48       ??_C@_1CA@NKJBCAGP@?$AAs?$AAp?$AAa?$AAn?$AAi?$AAs?$AAh?$AA?9?$AAu?$AAr?$AAu?$AAg?$AAu?$AAa?$AAy?$AA?$AA@ 100acb48     libucrt:get_qualified_locale.obj
 0002:00018b68       ??_C@_1CE@ODILCONM@?$AAs?$AAp?$AAa?$AAn?$AAi?$AAs?$AAh?$AA?9?$AAv?$AAe?$AAn?$AAe?$AAz?$AAu?$AAe?$AAl?$AAa?$AA?$AA@ 100acb68     libucrt:get_qualified_locale.obj
 0002:00018b8c       ??_C@_1CA@OBNMCGFO@?$AAs?$AAw?$AAe?$AAd?$AAi?$AAs?$AAh?$AA?9?$AAf?$AAi?$AAn?$AAl?$AAa?$AAn?$AAd?$AA?$AA@ 100acb8c     libucrt:get_qualified_locale.obj
 0002:00018bac       ??_C@_1M@PIPDDPPI@?$AAs?$AAw?$AAi?$AAs?$AAs?$AA?$AA@ 100acbac     libucrt:get_qualified_locale.obj
 0002:00018bb8       ??_C@_15GMFIMNFM@?$AAu?$AAs?$AA?$AA@ 100acbb8     libucrt:get_qualified_locale.obj
 0002:00018bc0       ??_C@_17HAEBFAGL@?$AAu?$AAs?$AAa?$AA?$AA@ 100acbc0     libucrt:get_qualified_locale.obj
 0002:00018bc8       ??_C@_1BA@DPFJEPHB@?$AAa?$AAm?$AAe?$AAr?$AAi?$AAc?$AAa?$AA?$AA@ 100acbc8     libucrt:get_qualified_locale.obj
 0002:00018bd8       ??_C@_1BA@ELOGGFK@?$AAb?$AAr?$AAi?$AAt?$AAa?$AAi?$AAn?$AA?$AA@ 100acbd8     libucrt:get_qualified_locale.obj
 0002:00018be8       ??_C@_1M@GHBGIGDA@?$AAc?$AAh?$AAi?$AAn?$AAa?$AA?$AA@ 100acbe8     libucrt:get_qualified_locale.obj
 0002:00018bf4       ??_C@_1M@NCHEJOPO@?$AAc?$AAz?$AAe?$AAc?$AAh?$AA?$AA@ 100acbf4     libucrt:get_qualified_locale.obj
 0002:00018c00       ??_C@_1BA@BKPAPBLA@?$AAe?$AAn?$AAg?$AAl?$AAa?$AAn?$AAd?$AA?$AA@ 100acc00     libucrt:get_qualified_locale.obj
 0002:00018c10       ??_C@_1BM@HKBCKIPC@?$AAg?$AAr?$AAe?$AAa?$AAt?$AA?5?$AAb?$AAr?$AAi?$AAt?$AAa?$AAi?$AAn?$AA?$AA@ 100acc10     libucrt:get_qualified_locale.obj
 0002:00018c2c       ??_C@_1BA@PPCHPGJB@?$AAh?$AAo?$AAl?$AAl?$AAa?$AAn?$AAd?$AA?$AA@ 100acc2c     libucrt:get_qualified_locale.obj
 0002:00018c3c       ??_C@_1BE@JBMPEGDG@?$AAh?$AAo?$AAn?$AAg?$AA?9?$AAk?$AAo?$AAn?$AAg?$AA?$AA@ 100acc3c     libucrt:get_qualified_locale.obj
 0002:00018c50       ??_C@_1BI@KOELBBPJ@?$AAn?$AAe?$AAw?$AA?9?$AAz?$AAe?$AAa?$AAl?$AAa?$AAn?$AAd?$AA?$AA@ 100acc50     libucrt:get_qualified_locale.obj
 0002:00018c68       ??_C@_15HIEBHAIO@?$AAn?$AAz?$AA?$AA@ 100acc68     libucrt:get_qualified_locale.obj
 0002:00018c70       ??_C@_1BC@CHBCPFPI@?$AAp?$AAr?$AA?5?$AAc?$AAh?$AAi?$AAn?$AAa?$AA?$AA@ 100acc70     libucrt:get_qualified_locale.obj
 0002:00018c84       ??_C@_1BC@JAOIIFKD@?$AAp?$AAr?$AA?9?$AAc?$AAh?$AAi?$AAn?$AAa?$AA?$AA@ 100acc84     libucrt:get_qualified_locale.obj
 0002:00018c98       ??_C@_1BI@BEHPPHKC@?$AAp?$AAu?$AAe?$AAr?$AAt?$AAo?$AA?9?$AAr?$AAi?$AAc?$AAo?$AA?$AA@ 100acc98     libucrt:get_qualified_locale.obj
 0002:00018cb0       ??_C@_1O@PAEOFKDI@?$AAs?$AAl?$AAo?$AAv?$AAa?$AAk?$AA?$AA@ 100accb0     libucrt:get_qualified_locale.obj
 0002:00018cc0       ??_C@_1BK@FIHMCKAM@?$AAs?$AAo?$AAu?$AAt?$AAh?$AA?5?$AAa?$AAf?$AAr?$AAi?$AAc?$AAa?$AA?$AA@ 100accc0     libucrt:get_qualified_locale.obj
 0002:00018cdc       ??_C@_1BI@NAEOODKB@?$AAs?$AAo?$AAu?$AAt?$AAh?$AA?5?$AAk?$AAo?$AAr?$AAe?$AAa?$AA?$AA@ 100accdc     libucrt:get_qualified_locale.obj
 0002:00018cf4       ??_C@_1BK@FBDGGIFF@?$AAs?$AAo?$AAu?$AAt?$AAh?$AA?9?$AAa?$AAf?$AAr?$AAi?$AAc?$AAa?$AA?$AA@ 100accf4     libucrt:get_qualified_locale.obj
 0002:00018d10       ??_C@_1BI@GHLEJDPK@?$AAs?$AAo?$AAu?$AAt?$AAh?$AA?9?$AAk?$AAo?$AAr?$AAe?$AAa?$AA?$AA@ 100acd10     libucrt:get_qualified_locale.obj
 0002:00018d28       ??_C@_1CE@PLHLOMJF@?$AAt?$AAr?$AAi?$AAn?$AAi?$AAd?$AAa?$AAd?$AA?5?$AA?$CG?$AA?5?$AAt?$AAo?$AAb?$AAa?$AAg?$AAo?$AA?$AA@ 100acd28     libucrt:get_qualified_locale.obj
 0002:00018d4c       ??_C@_1BO@MODIMHHI@?$AAu?$AAn?$AAi?$AAt?$AAe?$AAd?$AA?9?$AAk?$AAi?$AAn?$AAg?$AAd?$AAo?$AAm?$AA?$AA@ 100acd4c     libucrt:get_qualified_locale.obj
 0002:00018d6c       ??_C@_1BM@FFHJONBJ@?$AAu?$AAn?$AAi?$AAt?$AAe?$AAd?$AA?9?$AAs?$AAt?$AAa?$AAt?$AAe?$AAs?$AA?$AA@ 100acd6c     libucrt:get_qualified_locale.obj
 0002:00018d88       ___acrt_rg_language        100acd88     libucrt:get_qualified_locale.obj
 0002:00019094       ___acrt_rg_language_count  100ad094     libucrt:get_qualified_locale.obj
 0002:00019098       ___acrt_rg_country         100ad098     libucrt:get_qualified_locale.obj
 0002:000191ac       ___acrt_rg_country_count   100ad1ac     libucrt:get_qualified_locale.obj
 0002:000191b0       ??_C@_17DNCLJFIF@?$AAA?$AAC?$AAP?$AA?$AA@ 100ad1b0     libucrt:get_qualified_locale.obj
 0002:000191b8       ??_C@_17CIKBIHLH@?$AAO?$AAC?$AAP?$AA?$AA@ 100ad1b8     libucrt:get_qualified_locale.obj
 0002:000191c0       ___rglangidNotDefault      100ad1c0     libucrt:getqloc_downlevel.obj
 0002:000191d4       ??_C@_05DNEBIAHO@1?$CDINF?$AA@ 100ad1d4     libucrt:cfout.obj
 0002:000191dc       ??_C@_06IMKFLFPG@1?$CDQNAN?$AA@ 100ad1dc     libucrt:cfout.obj
 0002:000191e4       ??_C@_06PGGFOGJG@1?$CDSNAN?$AA@ 100ad1e4     libucrt:cfout.obj
 0002:000191ec       ??_C@_05PHHOCPM@1?$CDIND?$AA@ 100ad1ec     libucrt:cfout.obj
 0002:0001a5e8       ??_C@_1BA@BALFACEM@?$AAC?$AAO?$AAN?$AAO?$AAU?$AAT?$AA$?$AA?$AA@ 100ae5e8     libucrt:initcon.obj
 0002:0001a700       ___acrt_log10_table_t      100ae700     libucrt:log10_tables.obj
 0002:0001ab10       ___acrt_log10_table_cb     100aeb10     libucrt:log10_tables.obj
 0002:0001af78       __load_config_used         100aef78     LIBCMT:loadcfg.obj
 0002:0001b010       __tls_used                 100af010     LIBCMT:tlssup.obj
 0002:0001b028       ??_R4_Ref_count_base@std@@6B@ 100af028     Parser.obj
 0002:0001b03c       ??_R3_Ref_count_base@std@@8 100af03c     Parser.obj
 0002:0001b04c       ??_R2_Ref_count_base@std@@8 100af04c     Parser.obj
 0002:0001b054       ??_R1A@?0A@EA@_Ref_count_base@std@@8 100af054     Parser.obj
 0002:0001b070       ??_R4KeyValue@valve_parser@@6B@ 100af070     Parser.obj
 0002:0001b084       ??_R3KeyValue@valve_parser@@8 100af084     Parser.obj
 0002:0001b094       ??_R2KeyValue@valve_parser@@8 100af094     Parser.obj
 0002:0001b0a0       ??_R1A@?0A@EA@KeyValue@valve_parser@@8 100af0a0     Parser.obj
 0002:0001b0bc       ??_R1A@?0A@EA@Node@valve_parser@@8 100af0bc     Parser.obj
 0002:0001b0d8       ??_R3Node@valve_parser@@8  100af0d8     Parser.obj
 0002:0001b0e8       ??_R2Node@valve_parser@@8  100af0e8     Parser.obj
 0002:0001b0f0       ??_R4Object@valve_parser@@6B@ 100af0f0     Parser.obj
 0002:0001b104       ??_R3Object@valve_parser@@8 100af104     Parser.obj
 0002:0001b114       ??_R2Object@valve_parser@@8 100af114     Parser.obj
 0002:0001b120       ??_R1A@?0A@EA@Object@valve_parser@@8 100af120     Parser.obj
 0002:0001b13c       ??_R4Node@valve_parser@@6B@ 100af13c     Parser.obj
 0002:0001b150       ??_R4?$_Ref_count_obj@VObject@valve_parser@@@std@@6B@ 100af150     Parser.obj
 0002:0001b164       ??_R3?$_Ref_count_obj@VObject@valve_parser@@@std@@8 100af164     Parser.obj
 0002:0001b174       ??_R2?$_Ref_count_obj@VObject@valve_parser@@@std@@8 100af174     Parser.obj
