 yunglifev2

 Timestamp is 5a233b2d (Sun Dec  3 00:45:49 2017)

 Preferred load address is 10000000

 Start         Length     Name                   Class
 0001:00000000 000145c0H .text$di                CODE
 0001:000145c0 000be540H .text$mn                CODE
 0001:000d2b00 00002d30H .text$x                 CODE
 0001:000d5830 00000311H .text$yd                CODE
 0002:00000000 000001e0H .idata$5                DATA
 0002:000001e0 00000004H .00cfg                  DATA
 0002:000001e4 00000004H .CRT$XCA                DATA
 0002:000001e8 0000000cH .CRT$XCC                DATA
 0002:000001f4 00000008H .CRT$XCL                DATA
 0002:000001fc 000002a8H .CRT$XCU                DATA
 0002:000004a4 00000004H .CRT$XCZ                DATA
 0002:000004a8 00000004H .CRT$XIA                DATA
 0002:000004ac 00000018H .CRT$XIC                DATA
 0002:000004c4 00000004H .CRT$XIZ                DATA
 0002:000004c8 00000004H .CRT$XLA                DATA
 0002:000004cc 00000004H .CRT$XLZ                DATA
 0002:000004d0 00000004H .CRT$XPA                DATA
 0002:000004d4 00000008H .CRT$XPX                DATA
 0002:000004dc 00000004H .CRT$XPXA               DATA
 0002:000004e0 00000004H .CRT$XPZ                DATA
 0002:000004e4 00000004H .CRT$XTA                DATA
 0002:000004e8 00000008H .CRT$XTZ                DATA
 0002:000004ec 00000000H .gfids$y                DATA
 0002:000004f0 0003ba20H .rdata                  DATA
 0002:0003bf10 00000018H .rdata$T                DATA
 0002:0003bf28 00000dc8H .rdata$r                DATA
 0002:0003ccf0 000002d0H .rdata$sxdata           DATA
 0002:0003cfc0 000003dcH .rdata$zzzdbg           DATA
 0002:0003d39c 00000004H .rtc$IAA                DATA
 0002:0003d3a0 00000004H .rtc$IZZ                DATA
 0002:0003d3a4 00000004H .rtc$TAA                DATA
 0002:0003d3a8 00000004H .rtc$TZZ                DATA
 0002:0003d3ac 00000004H .tls                    DATA
 0002:0003d3b0 00000004H .tls$                   DATA
 0002:0003d3b4 00000004H .tls$ZZZ                DATA
 0002:0003d3b8 00003b44H .xdata$x                DATA
 0002:00040efc 00000000H .edata                  DATA
 0002:00040efc 00000064H .idata$2                DATA
 0002:00040f60 00000014H .idata$3                DATA
 0002:00040f74 000001e0H .idata$4                DATA
 0002:00041154 00000890H .idata$6                DATA
 0003:00000000 000bbe80H .data                   DATA
 0003:000bbe80 000006a0H .data$r                 DATA
 0003:000bc520 0043d848H .bss                    DATA
 0004:00000000 00000060H .rsrc$01                DATA
 0004:00000060 00000180H .rsrc$02                DATA

  Address         Publics by Value              Rva+Base       Lib:Object

 0000:00000000       ___guard_fids_count        00000000     <absolute>
 0000:00000000       ___guard_longjmp_count     00000000     <absolute>
 0000:00000000       ___guard_iat_table         00000000     <absolute>
 0000:00000000       ___guard_iat_count         00000000     <absolute>
 0000:00000000       ___hybrid_auxiliary_iat    00000000     <absolute>
 0000:00000000       ___hybrid_code_map         00000000     <absolute>
 0000:00000000       ___guard_fids_table        00000000     <absolute>
 0000:00000000       ___guard_longjmp_table     00000000     <absolute>
 0000:00000000       ___hybrid_code_map_count   00000000     <absolute>
 0000:00000000       __except_list              00000000     <absolute>
 0000:00000000       ___dynamic_value_reloc_table 00000000     <absolute>
 0000:00000000       ___enclave_config          00000000     <absolute>
 0000:0000002c       __tls_array                0000002c     <absolute>
 0000:000000b4       ___safe_se_handler_count   000000b4     <absolute>
 0000:00000100       ___guard_flags             00000100     <absolute>
 0000:00000000       ___ImageBase               10000000     <linker-defined>
 0001:000145c0       ?MyColorPicker3@ImGui@@YA_NPBDQAMH@Z 100155c0 f   imguicolorpicker.obj
 0001:000146a0       ?MyColorPicker4@ImGui@@YA_NPBDQAMH@Z 100156a0 f   imguicolorpicker.obj
 0001:000153f0       ?MyColorEdit3@ImGui@@YA_NPBDQAMH@Z 100163f0 f   imguicolorpicker.obj
 0001:000154d0       ?MyColorEdit4@ImGui@@YA_NPBDQAMH@Z 100164d0 f   imguicolorpicker.obj
 0001:00016390       ?ozhsxuimqmmxpkf@@YAHXZ    10017390 f   imguicolorpicker.obj
 0001:00016400       ?lzlsogjbtxvpk@@YAHXZ      10017400 f   imguicolorpicker.obj
 0001:00016470       ?neupsbrswen@@YAHXZ        10017470 f   imguicolorpicker.obj
 0001:000164e0       ??0ImVec4@@QAE@MMMM@Z      100174e0 f i imguicolorpicker.obj
 0001:00016530       ??_H@YGXPAXIIP6EPAX0@Z@Z   10017530 f i imguicolorpicker.obj
 0001:00016560       ?GetBL@ImRect@@QBE?AUImVec2@@XZ 10017560 f i imguicolorpicker.obj
 0001:000165a0       ?GetCurrentWindow@ImGui@@YAPAUImGuiWindow@@XZ 100175a0 f i imguicolorpicker.obj
 0001:000165d0       ___local_stdio_scanf_options 100175d0 f i imguicolorpicker.obj
 0001:000165e0       __vsscanf_s_l              100175e0 f i imguicolorpicker.obj
 0001:00016610       _sscanf_s                  10017610 f i imguicolorpicker.obj
 0001:00016650       _vsscanf_s                 10017650 f i imguicolorpicker.obj
 0001:00016670       ?Parse@Node@valve_parser@@UAE_NXZ 10017670 f   Parser.obj
 0001:00016820       ??0Object@valve_parser@@QAE@PAVDocument@1@@Z 10017820 f   Parser.obj
 0001:00016850       ?ToObject@Object@valve_parser@@UAEPAV12@XZ 10017850 f   Parser.obj
 0001:00016860       ?Parse@Object@valve_parser@@UAE_NXZ 10017860 f   Parser.obj
 0001:00016a30       ?GetKeyByName@Object@valve_parser@@QAE?AV?$shared_ptr@VNode@valve_parser@@@std@@PAD@Z 10017a30 f   Parser.obj
 0001:00016b10       ?kibjrmgddrhr@@YAHXZ       10017b10 f   Parser.obj
 0001:00016b80       ?lnbnfiiqepvi@@YAHXZ       10017b80 f   Parser.obj
 0001:00016bf0       ?bbhexhphzkn@@YAHXZ        10017bf0 f   Parser.obj
 0001:00016c60       ??$?0$$V@?$_Compressed_pair@V?$allocator@D@std@@V?$_String_val@U?$_Simple_types@D@std@@@2@$00@std@@QAE@U_Zero_then_variadic_args_t@1@@Z 10017c60 f i Parser.obj
 0001:00016c80       ??$?0PAVDocument@valve_parser@@@?$_Ref_count_obj@VKeyValue@valve_parser@@@std@@QAE@$$QAPAVDocument@valve_parser@@@Z 10017c80 f i Parser.obj
 0001:00016d20       ??$?0PAVDocument@valve_parser@@@?$_Ref_count_obj@VObject@valve_parser@@@std@@QAE@$$QAPAVDocument@valve_parser@@@Z 10017d20 f i Parser.obj
 0001:00016dc0       ??$?0V?$_Vector_iterator@V?$_Vector_val@U?$_Simple_types@_S@std@@@std@@@std@@X@?$basic_string@DU?$char_traits@D@std@@V?$allocator@D@2@@std@@QAE@V?$_Vector_iterator@V?$_Vector_val@U?$_Simple_types@_S@std@@@std@@@1@0ABV?$allocator@D@1@@Z 10017dc0 f i Parser.obj
 0001:00016e50       ??$?0VObject@valve_parser@@X@?$shared_ptr@VNode@valve_parser@@@std@@QAE@ABV?$shared_ptr@VObject@valve_parser@@@1@@Z 10017e50 f i Parser.obj
 0001:00016e50       ??0?$shared_ptr@VNode@valve_parser@@@std@@QAE@ABV01@@Z 10017e50 f i Parser.obj
 0001:00016e50       ??$?0VKeyValue@valve_parser@@X@?$shared_ptr@VNode@valve_parser@@@std@@QAE@ABV?$shared_ptr@VKeyValue@valve_parser@@@1@@Z 10017e50 f i Parser.obj
 0001:00016ea0       ??$?4VKeyValue@valve_parser@@@?$shared_ptr@VNode@valve_parser@@@std@@QAEAAV01@ABV?$shared_ptr@VKeyValue@valve_parser@@@1@@Z 10017ea0 f i Parser.obj
 0001:00016ea0       ??$?4VObject@valve_parser@@@?$shared_ptr@VNode@valve_parser@@@std@@QAEAAV01@ABV?$shared_ptr@VObject@valve_parser@@@1@@Z 10017ea0 f i Parser.obj
 0001:00016ee0       ??$?8DU?$char_traits@D@std@@V?$allocator@D@1@@std@@YA_NABV?$basic_string@DU?$char_traits@D@std@@V?$allocator@D@2@@0@0@Z 10017ee0 f i Parser.obj
 0001:00016f00       ??$_Construct@PA_S@?$basic_string@DU?$char_traits@D@std@@V?$allocator@D@2@@std@@QAEXPA_SQA_SUinput_iterator_tag@1@@Z 10017f00 f i Parser.obj
 0001:00016fa0       ??$_Construct@PA_S@?$basic_string@DU?$char_traits@D@std@@V?$allocator@D@2@@std@@QAEXQA_S0Uforward_iterator_tag@1@@Z 10017fa0 f i Parser.obj
 0001:00016ff0       ??$_Destroy_range1@V?$allocator@V?$shared_ptr@VNode@valve_parser@@@std@@@std@@@std@@YAXPAV?$shared_ptr@VNode@valve_parser@@@0@0AAV?$allocator@V?$shared_ptr@VNode@valve_parser@@@std@@@0@U?$integral_constant@_N$0A@@0@@Z 10017ff0 f i Parser.obj
 0001:00017030       ??$_Destroy_range@V?$allocator@V?$shared_ptr@VNode@valve_parser@@@std@@@std@@@std@@YAXPAV?$shared_ptr@VNode@valve_parser@@@0@0AAV?$allocator@V?$shared_ptr@VNode@valve_parser@@@std@@@0@@Z 10018030 f i Parser.obj
 0001:00017060       ??$_Distance1@PA_S@std@@YAHPA_S0Urandom_access_iterator_tag@0@@Z 10018060 f i Parser.obj
 0001:00017070       ??$_Emplace_back_with_unused_capacity@ABV?$shared_ptr@VNode@valve_parser@@@std@@@?$vector@V?$shared_ptr@VNode@valve_parser@@@std@@V?$allocator@V?$shared_ptr@VNode@valve_parser@@@std@@@2@@std@@AAEXABV?$shared_ptr@VNode@valve_parser@@@1@@Z 10018070 f i Parser.obj
 0001:000170f0       ??$_Emplace_back_with_unused_capacity@AB_S@?$vector@_SV?$allocator@_S@std@@@std@@AAEXAB_S@Z 100180f0 f i Parser.obj
 0001:00017170       ??$_Max_value@I@std@@YAABIABI0@Z 10018170 f i Parser.obj
 0001:000171a0       ??$_Min_value@I@std@@YAABIABI0@Z 100181a0 f i Parser.obj
 0001:00017500       ??$_Reset@VNode@valve_parser@@@?$_Ptr_base@VNode@valve_parser@@@std@@QAEXABV01@@Z 10018500 f i Parser.obj
 0001:00017500       ??$_Reset@VObject@valve_parser@@@?$_Ptr_base@VNode@valve_parser@@@std@@QAEXABV?$_Ptr_base@VObject@valve_parser@@@1@@Z 10018500 f i Parser.obj
 0001:00017500       ??$_Reset@VKeyValue@valve_parser@@@?$_Ptr_base@VNode@valve_parser@@@std@@QAEXABV?$_Ptr_base@VKeyValue@valve_parser@@@1@@Z 10018500 f i Parser.obj
 0001:00017530       ??$_Resetp0@VObject@valve_parser@@@?$shared_ptr@VObject@valve_parser@@@std@@QAEXPAVObject@valve_parser@@PAV_Ref_count_base@1@@Z 10018530 f i Parser.obj
 0001:00017530       ??$_Resetp0@VNode@valve_parser@@@?$shared_ptr@VNode@valve_parser@@@std@@QAEXPAVNode@valve_parser@@PAV_Ref_count_base@1@@Z 10018530 f i Hooks.obj
 0001:00017530       ??$_Resetp0@VKeyValue@valve_parser@@@?$shared_ptr@VKeyValue@valve_parser@@@std@@QAEXPAVKeyValue@valve_parser@@PAV_Ref_count_base@1@@Z 10018530 f i Parser.obj
 0001:00017560       ??$_Traits_equal@U?$char_traits@D@std@@@std@@YA_NQBDI0I@Z 10018560 f i Parser.obj
 0001:000175a0       ??$_Unchecked@V?$_Vector_val@U?$_Simple_types@_S@std@@@std@@@std@@YAPA_SABV?$_Vector_iterator@V?$_Vector_val@U?$_Simple_types@_S@std@@@std@@@0@@Z 100185a0 f i Parser.obj
 0001:000175b0       ??$_Uninitialized_move@PAV?$shared_ptr@VNode@valve_parser@@@std@@PAV12@V?$allocator@V?$shared_ptr@VNode@valve_parser@@@std@@@2@@std@@YAPAV?$shared_ptr@VNode@valve_parser@@@0@PAV10@00AAV?$allocator@V?$shared_ptr@VNode@valve_parser@@@std@@@0@@Z 100185b0 f i Parser.obj
 0001:00017640       ??$_Uninitialized_move_al_unchecked@PAV?$shared_ptr@VNode@valve_parser@@@std@@PAV12@V?$allocator@V?$shared_ptr@VNode@valve_parser@@@std@@@2@@std@@YAPAV?$shared_ptr@VNode@valve_parser@@@0@PAV10@00AAV?$allocator@V?$shared_ptr@VNode@valve_parser@@@std@@@0@U_General_ptr_iterator_tag@0@U_Unused_parameter@0@@Z 10018640 f i Parser.obj
 0001:00017710       ??$construct@V?$shared_ptr@VNode@valve_parser@@@std@@ABV12@@?$_Default_allocator_traits@V?$allocator@V?$shared_ptr@VNode@valve_parser@@@std@@@std@@@std@@SAXAAV?$allocator@V?$shared_ptr@VNode@valve_parser@@@std@@@1@QAV?$shared_ptr@VNode@valve_parser@@@1@ABV31@@Z 10018710 f i Parser.obj
 0001:00017740       ??$construct@V?$shared_ptr@VNode@valve_parser@@@std@@V12@@?$_Default_allocator_traits@V?$allocator@V?$shared_ptr@VNode@valve_parser@@@std@@@std@@@std@@SAXAAV?$allocator@V?$shared_ptr@VNode@valve_parser@@@std@@@1@QAV?$shared_ptr@VNode@valve_parser@@@1@$$QAV31@@Z 10018740 f i Parser.obj
 0001:00017770       ??$construct@_SAB_S@?$_Default_allocator_traits@V?$allocator@_S@std@@@std@@SAXAAV?$allocator@_S@1@QA_SAB_S@Z 10018770 f i Parser.obj
 0001:000177a0       ??$destroy@V?$shared_ptr@VNode@valve_parser@@@std@@@?$_Default_allocator_traits@V?$allocator@V?$shared_ptr@VNode@valve_parser@@@std@@@std@@@std@@SAXAAV?$allocator@V?$shared_ptr@VNode@valve_parser@@@std@@@1@QAV?$shared_ptr@VNode@valve_parser@@@1@@Z 100187a0 f i Parser.obj
 0001:000177b0       ??$distance@PA_S@std@@YAHPA_S0@Z 100187b0 f i Parser.obj
 0001:000177d0       ??$emplace_back@ABV?$shared_ptr@VNode@valve_parser@@@std@@@?$vector@V?$shared_ptr@VNode@valve_parser@@@std@@V?$allocator@V?$shared_ptr@VNode@valve_parser@@@std@@@2@@std@@QAEXABV?$shared_ptr@VNode@valve_parser@@@1@@Z 100187d0 f i Parser.obj
 0001:00017970       ??$emplace_back@AB_S@?$vector@_SV?$allocator@_S@std@@@std@@QAEXAB_S@Z 10018970 f i Parser.obj
 0001:00017b10       ??$make_shared@VKeyValue@valve_parser@@PAVDocument@2@@std@@YA?AV?$shared_ptr@VKeyValue@valve_parser@@@0@$$QAPAVDocument@valve_parser@@@Z 10018b10 f i Parser.obj
 0001:00017bf0       ??$make_shared@VObject@valve_parser@@PAVDocument@2@@std@@YA?AV?$shared_ptr@VObject@valve_parser@@@0@$$QAPAVDocument@valve_parser@@@Z 10018bf0 f i Parser.obj
 0001:00017cd0       ??$swap@PAVNode@valve_parser@@X@std@@YAXAAPAVNode@valve_parser@@0@Z 10018cd0 f i Parser.obj
 0001:00017cd0       ??$swap@PAV_Ref_count_base@std@@X@std@@YAXAAPAV_Ref_count_base@0@0@Z 10018cd0 f i Parser.obj
 0001:00017d10       ??0?$_Ptr_base@VNode@valve_parser@@@std@@QAE@$$QAV01@@Z 10018d10 f i Parser.obj
 0001:00017d10       ??0?$_Ptr_base@VKeyValue@valve_parser@@@std@@QAE@$$QAV01@@Z 10018d10 f i Parser.obj
 0001:00017d10       ??0?$_Ptr_base@VObject@valve_parser@@@std@@QAE@$$QAV01@@Z 10018d10 f i Parser.obj
 0001:00017d50       ??0?$_String_alloc@U?$_String_base_types@DV?$allocator@D@std@@@std@@@std@@QAE@XZ 10018d50 f i Parser.obj
 0001:00017d70       ??0?$_String_val@U?$_Simple_types@D@std@@@std@@QAE@XZ 10018d70 f i Parser.obj
 0001:00017da0       ??0?$basic_string@DU?$char_traits@D@std@@V?$allocator@D@2@@std@@QAE@QBD@Z 10018da0 f i Parser.obj
 0001:00017e10       ??0?$shared_ptr@VNode@valve_parser@@@std@@QAE@$$QAV01@@Z 10018e10 f i Parser.obj
 0001:00017e10       ??0?$shared_ptr@VObject@valve_parser@@@std@@QAE@$$QAV01@@Z 10018e10 f i Parser.obj
 0001:00017e10       ??0?$shared_ptr@VKeyValue@valve_parser@@@std@@QAE@$$QAV01@@Z 10018e10 f i Parser.obj
 0001:00017e60       ??0?$shared_ptr@VNode@valve_parser@@@std@@QAE@$$T@Z 10018e60 f i Parser.obj
 0001:00017e80       ??0?$shared_ptr@VNode@valve_parser@@@std@@QAE@XZ 10018e80 f i Parser.obj
 0001:00017e80       ??0?$shared_ptr@VObject@valve_parser@@@std@@QAE@XZ 10018e80 f i Parser.obj
 0001:00017e80       ??0?$shared_ptr@VKeyValue@valve_parser@@@std@@QAE@XZ 10018e80 f i Parser.obj
 0001:00017ea0       ??0KeyValue@valve_parser@@QAE@PAVDocument@1@@Z 10018ea0 f i Parser.obj
 0001:00017ee0       ??0Node@valve_parser@@QAE@PAVDocument@1@@Z 10018ee0 f i Parser.obj
 0001:00017f10       ??0_Ref_count_base@std@@IAE@XZ 10018f10 f i Parser.obj
 0001:00017f40       ??1?$_Ref_count_obj@VNode@valve_parser@@@std@@UAE@XZ 10018f40 f i Hooks.obj
 0001:00017f40       ??1?$_Ref_count_obj@VKeyValue@valve_parser@@@std@@UAE@XZ 10018f40 f i Parser.obj
 0001:00017f40       ??1?$_Ref_count_obj@VObject@valve_parser@@@std@@UAE@XZ 10018f40 f i Parser.obj
 0001:00017f60       ??1?$basic_string@DU?$char_traits@D@std@@V?$allocator@D@2@@std@@QAE@XZ 10018f60 f i Parser.obj
 0001:00017fb0       ??1?$shared_ptr@VObject@valve_parser@@@std@@QAE@XZ 10018fb0 f i Parser.obj
 0001:00017fb0       ??1?$shared_ptr@VKeyValue@valve_parser@@@std@@QAE@XZ 10018fb0 f i Parser.obj
 0001:00017fb0       ??1?$shared_ptr@VNode@valve_parser@@@std@@QAE@XZ 10018fb0 f i Parser.obj
 0001:00017ff0       ??1?$vector@V?$shared_ptr@VNode@valve_parser@@@std@@V?$allocator@V?$shared_ptr@VNode@valve_parser@@@std@@@2@@std@@QAE@XZ 10018ff0 f i Parser.obj
 0001:00018030       ??1?$vector@_SV?$allocator@_S@std@@@std@@QAE@XZ 10019030 f i Parser.obj
 0001:00018070       ??1Node@valve_parser@@QAE@XZ 10019070 f i Parser.obj
 0001:00018090       ??1Object@valve_parser@@QAE@XZ 10019090 f i Parser.obj
 0001:00018090       ??1KeyValue@valve_parser@@QAE@XZ 10019090 f i Parser.obj
 0001:000180b0       ??1_Ref_count_base@std@@UAE@XZ 100190b0 f i Parser.obj
 0001:000180d0       ??2@YAPAXIPAX@Z            100190d0 f i Parser.obj
 0001:000180e0       ?get@?$shared_ptr@VNode@valve_parser@@@std@@QBEPAVNode@valve_parser@@XZ 100190e0 f i Hooks.obj
 0001:000180e0       ??C?$shared_ptr@VNode@valve_parser@@@std@@QBEPAVNode@valve_parser@@XZ 100190e0 f i Parser.obj
 0001:000180e0       ??D?$_Vector_iterator@V?$_Vector_val@U?$_Simple_types@VVector@@@std@@@std@@@std@@QBEAAVVector@@XZ 100190e0 f i GrenadePrediction.obj
 0001:000180e0       ??D?$_String_iterator@V?$_String_val@U?$_Simple_types@D@std@@@std@@@std@@QBEAADXZ 100190e0 f i Utilities.obj
 0001:000180e0       ??C?$shared_ptr@VObject@valve_parser@@@std@@QBEPAVObject@valve_parser@@XZ 100190e0 f i Parser.obj
 0001:000180e0       ??C?$shared_ptr@VKeyValue@valve_parser@@@std@@QBEPAVKeyValue@valve_parser@@XZ 100190e0 f i Parser.obj
 0001:000181d0       ??_E?$_Ref_count_obj@VKeyValue@valve_parser@@@std@@UAEPAXI@Z 100191d0 f i Parser.obj
 0001:000181d0       ??_G?$_Ref_count_obj@VKeyValue@valve_parser@@@std@@UAEPAXI@Z 100191d0 f i Parser.obj
 0001:00018200       ??_G?$_Ref_count_obj@VObject@valve_parser@@@std@@UAEPAXI@Z 10019200 f i Parser.obj
 0001:00018200       ??_E?$_Ref_count_obj@VObject@valve_parser@@@std@@UAEPAXI@Z 10019200 f i Parser.obj
 0001:00018230       ??_G?$shared_ptr@VNode@valve_parser@@@std@@QAEPAXI@Z 10019230 f i Parser.obj
 0001:00018260       ??_GKeyValue@valve_parser@@QAEPAXI@Z 10019260 f i Parser.obj
 0001:00018290       ??_GObject@valve_parser@@QAEPAXI@Z 10019290 f i Parser.obj
 0001:000182c0       ??_G_Ref_count_base@std@@UAEPAXI@Z 100192c0 f i Parser.obj
 0001:000182c0       ??_E_Ref_count_base@std@@UAEPAXI@Z 100192c0 f i Parser.obj
 0001:000182f0       ?EndReached@Str@valve_parser@@SAPA_UPA_U_U@Z 100192f0 f i Parser.obj
 0001:000183c0       ?ParseTextEndTag@Str@valve_parser@@SAPA_UPA_U_U@Z 100193c0 f i Parser.obj
 0001:00018400       ?ParseTextExpectedTag@Str@valve_parser@@SAPA_UPA_U_U_N@Z 10019400 f i Parser.obj
 0001:000184d0       ?StrEqu@Util@valve_parser@@SA_NVStr@2@PAD@Z 100194d0 f i Parser.obj
 0001:00018570       ?_Allocate@std@@YAPAXII_N@Z 10019570 f i Parser.obj
 0001:00018630       ?_Become_small@?$basic_string@DU?$char_traits@D@std@@V?$allocator@D@2@@std@@QAEXXZ 10019630 f i Parser.obj
 0001:000186c0       ?_Calculate_growth@?$basic_string@DU?$char_traits@D@std@@V?$allocator@D@2@@std@@QBEII@Z 100196c0 f i Parser.obj
 0001:00018740       ?_Calculate_growth@?$vector@V?$shared_ptr@VNode@valve_parser@@@std@@V?$allocator@V?$shared_ptr@VNode@valve_parser@@@std@@@2@@std@@ABEII@Z 10019740 f i Parser.obj
 0001:00018790       ?_Calculate_growth@?$vector@_SV?$allocator@_S@std@@@std@@ABEII@Z 10019790 f i Parser.obj
 0001:000187e0       ?_Change_array@?$vector@V?$shared_ptr@VNode@valve_parser@@@std@@V?$allocator@V?$shared_ptr@VNode@valve_parser@@@std@@@2@@std@@AAEXQAV?$shared_ptr@VNode@valve_parser@@@2@II@Z 100197e0 f i Parser.obj
 0001:00018880       ?_Change_array@?$vector@_SV?$allocator@_S@std@@@std@@AAEXQA_SII@Z 10019880 f i Parser.obj
 0001:00018920       ?_Deallocate@std@@YAXPAXII@Z 10019920 f i Parser.obj
 0001:000189b0       ?_Decref@?$_Ptr_base@VNode@valve_parser@@@std@@QAEXXZ 100199b0 f i Parser.obj
 0001:000189b0       ?_Decref@?$_Ptr_base@VObject@valve_parser@@@std@@QAEXXZ 100199b0 f i Parser.obj
 0001:000189b0       ?_Decref@?$_Ptr_base@VKeyValue@valve_parser@@@std@@QAEXXZ 100199b0 f i Parser.obj
 0001:000189d0       ?_Decref@_Ref_count_base@std@@QAEXXZ 100199d0 f i Parser.obj
 0001:00018a00       ?_Decwref@_Ref_count_base@std@@QAEXXZ 10019a00 f i Parser.obj
 0001:00018a30       ?_Delete_this@?$_Ref_count_obj@VObject@valve_parser@@@std@@EAEXXZ 10019a30 f i Parser.obj
 0001:00018a30       ?_Delete_this@?$_Ref_count_obj@VNode@valve_parser@@@std@@EAEXXZ 10019a30 f i Hooks.obj
 0001:00018a30       ?_Delete_this@?$_Ref_count_obj@VKeyValue@valve_parser@@@std@@EAEXXZ 10019a30 f i Parser.obj
 0001:00018a70       ?_Destroy@?$_Ref_count_obj@VKeyValue@valve_parser@@@std@@EAEXXZ 10019a70 f i Parser.obj
 0001:00018ac0       ?_Destroy@?$_Ref_count_obj@VObject@valve_parser@@@std@@EAEXXZ 10019ac0 f i Parser.obj
 0001:00018b10       ?_Destroy@?$vector@V?$shared_ptr@VNode@valve_parser@@@std@@V?$allocator@V?$shared_ptr@VNode@valve_parser@@@std@@@2@@std@@AAEXPAV?$shared_ptr@VNode@valve_parser@@@2@0@Z 10019b10 f i Parser.obj
 0001:00018b40       ?_Equal@?$basic_string@DU?$char_traits@D@std@@V?$allocator@D@2@@std@@QBE_NABV12@@Z 10019b40 f i Parser.obj
 0001:00018bc0       ?_Get_deleter@_Ref_count_base@std@@UBEPAXABVtype_info@@@Z 10019bc0 f i Parser.obj
 0001:00018bd0       ?_Getptr@?$_Ref_count_obj@VKeyValue@valve_parser@@@std@@QAEPAVKeyValue@valve_parser@@XZ 10019bd0 f i Parser.obj
 0001:00018bd0       ?_Getptr@?$_Ref_count_obj@VObject@valve_parser@@@std@@QAEPAVObject@valve_parser@@XZ 10019bd0 f i Parser.obj
 0001:00018bd0       ?_Getptr@?$_Ref_count_obj@VNode@valve_parser@@@std@@QAEPAVNode@valve_parser@@XZ 10019bd0 f i Hooks.obj
 0001:00018bf0       ?_Incref@facet@locale@std@@UAEXXZ 10019bf0 f i Utilities.obj
 0001:00018bf0       ?_Incref@_Ref_count_base@std@@QAEXXZ 10019bf0 f i Parser.obj
 0001:00018c10       ?_Large_string_engaged@?$_String_val@U?$_Simple_types@D@std@@@std@@QBE_NXZ 10019c10 f i Parser.obj
 0001:00018c40       ?_Myptr@?$_String_val@U?$_Simple_types@D@std@@@std@@QBEPBDXZ 10019c40 f i Parser.obj
 0001:00018c40       ?_Myptr@?$_String_val@U?$_Simple_types@D@std@@@std@@QAEPADXZ 10019c40 f i Parser.obj
 0001:00018c80       ??1?$singleton@Vitem_purchase@@@@IAE@XZ 10019c80 f i Hooks.obj
 0001:00018c80       ??1?$singleton@Vragebot@@@@IAE@XZ 10019c80 f i Hooks.obj
 0001:00018c80       ??1_Bxty@?$_String_val@U?$_Simple_types@D@std@@@std@@QAE@XZ 10019c80 f i Parser.obj
 0001:00018c80       ??1_Iterator_base12@std@@QAE@XZ 10019c80 f i Hooks.obj
 0001:00018c80       ??1error_category@std@@UAE@XZ 10019c80 f i Utilities.obj
 0001:00018c80       ??1?$singleton@Vmisc@@@@IAE@XZ 10019c80 f i Hooks.obj
 0001:00018c80       ?_Orphan_all@_Container_base12@std@@QAEXXZ 10019c80 f i Hooks.obj
 0001:00018c80       ??1?$singleton@Vgrenade_prediction@@@@IAE@XZ 10019c80 f i ESP.obj
 0001:00018c80       ??1ImGuiListClipper@@QAE@XZ 10019c80 f i imgui.obj
 0001:00018c80       ??1?$singleton@Vvisuals@@@@IAE@XZ 10019c80 f i Hooks.obj
 0001:00018c80       ??1?$singleton@Vlegitbot@@@@IAE@XZ 10019c80 f i Hooks.obj
 0001:00018c80       ?_Lock@?$basic_streambuf@DU?$char_traits@D@std@@@std@@UAEXXZ 10019c80 f i Utilities.obj
 0001:00018c80       ?_Orphan_all@_Container_base0@std@@QAEXXZ 10019c80 f i Parser.obj
 0001:00018c80       ?_Unlock@?$basic_streambuf@DU?$char_traits@D@std@@@std@@UAEXXZ 10019c80 f i Utilities.obj
 0001:00018c90       ?_Reallocate_exactly@?$vector@_SV?$allocator@_S@std@@@std@@AAEXI@Z 10019c90 f i Parser.obj
 0001:00018d70       ?_Reset0@?$_Ptr_base@VObject@valve_parser@@@std@@QAEXPAVObject@valve_parser@@PAV_Ref_count_base@2@@Z 10019d70 f i Parser.obj
 0001:00018d70       ?_Reset0@?$_Ptr_base@VNode@valve_parser@@@std@@QAEXPAVNode@valve_parser@@PAV_Ref_count_base@2@@Z 10019d70 f i Parser.obj
 0001:00018d70       ?_Reset0@?$_Ptr_base@VKeyValue@valve_parser@@@std@@QAEXPAVKeyValue@valve_parser@@PAV_Ref_count_base@2@@Z 10019d70 f i Parser.obj
 0001:00018db0       ?_Reset@?$_Ptr_base@VNode@valve_parser@@@std@@QAEXPAVNode@valve_parser@@PAV_Ref_count_base@2@@Z 10019db0 f i Parser.obj
 0001:00018de0       ?_Swap@?$_Ptr_base@VNode@valve_parser@@@std@@QAEXAAV12@@Z 10019de0 f i Parser.obj
 0001:00018e20       ?_Tidy@?$vector@V?$shared_ptr@VNode@valve_parser@@@std@@V?$allocator@V?$shared_ptr@VNode@valve_parser@@@std@@@2@@std@@AAEXXZ 10019e20 f i Parser.obj
 0001:00018eb0       ?_Tidy@?$vector@_SV?$allocator@_S@std@@@std@@AAEXXZ 10019eb0 f i Parser.obj
 0001:00018f40       ?_Tidy_deallocate@?$basic_string@DU?$char_traits@D@std@@V?$allocator@D@2@@std@@QAEXXZ 10019f40 f i Parser.obj
 0001:00018ff0       ?_Tidy_init@?$basic_string@DU?$char_traits@D@std@@V?$allocator@D@2@@std@@QAEXXZ 10019ff0 f i Parser.obj
 0001:00019040       ?_Umove_if_noexcept1@?$vector@V?$shared_ptr@VNode@valve_parser@@@std@@V?$allocator@V?$shared_ptr@VNode@valve_parser@@@std@@@2@@std@@AAEXPAV?$shared_ptr@VNode@valve_parser@@@2@00U?$integral_constant@_N$00@2@@Z 1001a040 f i Parser.obj
 0001:00019070       ?_Umove_if_noexcept@?$vector@V?$shared_ptr@VNode@valve_parser@@@std@@V?$allocator@V?$shared_ptr@VNode@valve_parser@@@std@@@2@@std@@AAEXPAV?$shared_ptr@VNode@valve_parser@@@2@00@Z 1001a070 f i Parser.obj
 0001:000190a0       ?_Xlen@?$basic_string@DU?$char_traits@D@std@@V?$allocator@D@2@@std@@SAXXZ 1001a0a0 f i Parser.obj
 0001:000190b0       ?allocate@?$allocator@D@std@@QAEPADI@Z 1001a0b0 f i Parser.obj
 0001:000190d0       ?allocate@?$allocator@U_Container_proxy@std@@@std@@QAEPAU_Container_proxy@2@I@Z 1001a0d0 f i Hooks.obj
 0001:000190d0       ?allocate@?$allocator@V?$shared_ptr@VNode@valve_parser@@@std@@@std@@QAEPAV?$shared_ptr@VNode@valve_parser@@@2@I@Z 1001a0d0 f i Parser.obj
 0001:000190f0       ?allocate@?$allocator@_S@std@@QAEPA_SI@Z 1001a0f0 f i Parser.obj
 0001:00019110       ?assign@?$basic_string@DU?$char_traits@D@std@@V?$allocator@D@2@@std@@QAEAAV12@QBD@Z 1001a110 f i Parser.obj
 0001:00019140       ?assign@?$basic_string@DU?$char_traits@D@std@@V?$allocator@D@2@@std@@QAEAAV12@QBDI@Z 1001a140 f i Parser.obj
 0001:000191d0       ?assign@?$char_traits@D@std@@SAXAADABD@Z 1001a1d0 f i Parser.obj
 0001:000191e0       ?capacity@?$vector@V?$shared_ptr@VNode@valve_parser@@@std@@V?$allocator@V?$shared_ptr@VNode@valve_parser@@@std@@@2@@std@@QBEIXZ 1001a1e0 f i Parser.obj
 0001:00019210       ?capacity@?$vector@_SV?$allocator@_S@std@@@std@@QBEIXZ 1001a210 f i Parser.obj
 0001:00019240       ?compare@?$char_traits@D@std@@SAHQBD0I@Z 1001a240 f i Parser.obj
 0001:00019260       ?copy@?$char_traits@D@std@@SAPADQADQBDI@Z 1001a260 f i Parser.obj
 0001:00019280       ?deallocate@?$allocator@D@std@@QAEXQADI@Z 1001a280 f i Parser.obj
 0001:000192a0       ?deallocate@?$allocator@V?$shared_ptr@VNode@valve_parser@@@std@@@std@@QAEXQAV?$shared_ptr@VNode@valve_parser@@@2@I@Z 1001a2a0 f i Parser.obj
 0001:000192c0       ?deallocate@?$allocator@_S@std@@QAEXQA_SI@Z 1001a2c0 f i Parser.obj
 0001:000192e0       ?identify@Document@valve_parser@@AAE_NAAV?$shared_ptr@VNode@valve_parser@@@std@@@Z 1001a2e0 f i Parser.obj
 0001:00019490       ?length@?$char_traits@D@std@@SAIQBD@Z 1001a490 f i Parser.obj
 0001:000194b0       ?max@?$mersenne_twister_engine@I$0CA@$0CHA@$0BIN@$0BP@$0JJAILANP@$0L@$0PPPPPPPP@$06$0JNCMFGIA@$0P@$0OPMGAAAA@$0BC@$0GMAHIJGF@@std@@SAIXZ 1001a4b0 f i LegitBot.obj
 0001:000194b0       ?eof@?$char_traits@D@std@@SAHXZ 1001a4b0 f i Utilities.obj
 0001:000194b0       ?max_size@?$_Default_allocator_traits@V?$allocator@D@std@@@std@@SAIABV?$allocator@D@2@@Z 1001a4b0 f i Parser.obj
 0001:000194c0       ?max_size@?$_Default_allocator_traits@V?$allocator@V?$shared_ptr@VNode@valve_parser@@@std@@@std@@@std@@SAIABV?$allocator@V?$shared_ptr@VNode@valve_parser@@@std@@@2@@Z 1001a4c0 f i Parser.obj
 0001:000194d0       ?max@?$numeric_limits@H@std@@SAHXZ 1001a4d0 f i Parser.obj
 0001:000194d0       ?max_size@?$_Default_allocator_traits@V?$allocator@_S@std@@@std@@SAIABV?$allocator@_S@2@@Z 1001a4d0 f i Parser.obj
 0001:000194e0       ?max_size@?$basic_string@DU?$char_traits@D@std@@V?$allocator@D@2@@std@@QBEIXZ 1001a4e0 f i Parser.obj
 0001:00019540       ?max_size@?$vector@V?$shared_ptr@VNode@valve_parser@@@std@@V?$allocator@V?$shared_ptr@VNode@valve_parser@@@std@@@2@@std@@QBEIXZ 1001a540 f i Parser.obj
 0001:00019580       ?max_size@?$vector@_SV?$allocator@_S@std@@@std@@QBEIXZ 1001a580 f i Parser.obj
 0001:000195c0       ?move@?$char_traits@D@std@@SAPADQADQBDI@Z 1001a5c0 f i Parser.obj
 0001:000195e0       ?push_back@?$basic_string@DU?$char_traits@D@std@@V?$allocator@D@2@@std@@QAEXD@Z 1001a5e0 f i Parser.obj
 0001:00019670       ?push_back@?$vector@V?$shared_ptr@VNode@valve_parser@@@std@@V?$allocator@V?$shared_ptr@VNode@valve_parser@@@std@@@2@@std@@QAEXABV?$shared_ptr@VNode@valve_parser@@@2@@Z 1001a670 f i Parser.obj
 0001:00019690       ?push_back@?$vector@_SV?$allocator@_S@std@@@std@@QAEXAB_S@Z 1001a690 f i Parser.obj
 0001:000196b0       ?reserve@?$basic_string@DU?$char_traits@D@std@@V?$allocator@D@2@@std@@QAEXI@Z 1001a6b0 f i Parser.obj
 0001:00019740       ?reserve@?$vector@_SV?$allocator@_S@std@@@std@@QAEXI@Z 1001a740 f i Parser.obj
 0001:00019780       ?size@?$vector@V?$shared_ptr@VNode@valve_parser@@@std@@V?$allocator@V?$shared_ptr@VNode@valve_parser@@@std@@@2@@std@@QBEIXZ 1001a780 f i Parser.obj
 0001:000197b0       ?size@?$vector@_SV?$allocator@_S@std@@@std@@QBEIXZ 1001a7b0 f i Parser.obj
 0001:000197e0       ?swap@?$shared_ptr@VNode@valve_parser@@@std@@QAEXAAV12@@Z 1001a7e0 f i Parser.obj
 0001:00019800       ?toString@Str@valve_parser@@QAE?AV?$basic_string@DU?$char_traits@D@std@@V?$allocator@D@2@@std@@XZ 1001a800 f i Parser.obj
 0001:000199c0       ?Hooked_RecvProxy_Viewmodel@@YAXPAVCRecvProxyData@@PAX1@Z 1001a9c0 f   recvproxy.obj
 0001:00019c90       ?SetViewModelSequence2@@YAXPBVCRecvProxyData@@PAX1@Z 1001ac90 f   recvproxy.obj
 0001:00019fb0       ?NoSmoke@@YAXPBVCRecvProxyData@@PAX1@Z 1001afb0 f   recvproxy.obj
 0001:00019fe0       ?AnimationFixHook@@YAXXZ   1001afe0 f   recvproxy.obj
 0001:0001a0a0       ?AnimationFixUnhook@@YAXXZ 1001b0a0 f   recvproxy.obj
 0001:0001a150       ?NetvarHook@@YAXXZ         1001b150 f   recvproxy.obj
 0001:0001a290       ?UnloadProxy@@YAXXZ        1001b290 f   recvproxy.obj
 0001:0001a3c0       ?mjggxkxe@@YAHXZ           1001b3c0 f   recvproxy.obj
 0001:0001a430       ?ucnhubooma@@YAHXZ         1001b430 f   recvproxy.obj
 0001:0001a4a0       ?gdugpxhnffsym@@YAHXZ      1001b4a0 f   recvproxy.obj
 0001:0001a510       ?eygjxlyklvgspt@@YAHXZ     1001b510 f   recvproxy.obj
 0001:0001a580       ??$?0$$CBW4ItemDefinitionIndexx@@UDefItem_t@@X$0A@@?$pair@$$CBW4ItemDefinitionIndexx@@UDefItem_t@@@std@@QAE@ABW4ItemDefinitionIndexx@@ABUDefItem_t@@@Z 1001b580 f i recvproxy.obj
 0001:0001a5c0       ??$?0ABU?$less@V?$basic_string@DU?$char_traits@D@std@@V?$allocator@D@2@@std@@@std@@U_Zero_then_variadic_args_t@1@@?$_Compressed_pair@U?$less@V?$basic_string@DU?$char_traits@D@std@@V?$allocator@D@2@@std@@@std@@V?$_Compressed_pair@V?$allocator@U?$_Tree_node@V?$basic_string@DU?$char_traits@D@std@@V?$allocator@D@2@@std@@PAX@std@@@std@@V?$_Tree_val@U?$_Tree_simple_types@V?$basic_string@DU?$char_traits@D@std@@V?$allocator@D@2@@std@@@std@@@2@$00@2@$00@std@@QAE@U_One_then_variadic_args_t@1@ABU?$less@V?$basic_string@DU?$char_traits@D@std@@V?$allocator@D@2@@std@@@1@$$QAU_Zero_then_variadic_args_t@1@@Z 1001b5c0 f i Hooks.obj
 0001:0001a5c0       ??$?0ABU?$less@W4ItemDefinitionIndexx@@@std@@U_Zero_then_variadic_args_t@1@@?$_Compressed_pair@U?$less@W4ItemDefinitionIndexx@@@std@@V?$_Compressed_pair@V?$allocator@U?$_Tree_node@U?$pair@$$CBW4ItemDefinitionIndexx@@UDefItem_t@@@std@@PAX@std@@@std@@V?$_Tree_val@U?$_Tree_simple_types@U?$pair@$$CBW4ItemDefinitionIndexx@@UDefItem_t@@@std@@@std@@@2@$00@2@$00@std@@QAE@U_One_then_variadic_args_t@1@ABU?$less@W4ItemDefinitionIndexx@@@1@$$QAU_Zero_then_variadic_args_t@1@@Z 1001b5c0 f i recvproxy.obj
 0001:0001a600       ??$?8DU?$char_traits@D@std@@V?$allocator@D@1@@std@@YA_NABV?$basic_string@DU?$char_traits@D@std@@V?$allocator@D@2@@0@QBD@Z 1001b600 f i recvproxy.obj
 0001:0001a620       ??$_Buynode@ABU?$pair@$$CBW4ItemDefinitionIndexx@@UDefItem_t@@@std@@@?$_Tree_comp_alloc@V?$_Tmap_traits@W4ItemDefinitionIndexx@@UDefItem_t@@U?$less@W4ItemDefinitionIndexx@@@std@@V?$allocator@U?$pair@$$CBW4ItemDefinitionIndexx@@UDefItem_t@@@std@@@4@$0A@@std@@@std@@QAEPAU?$_Tree_node@U?$pair@$$CBW4ItemDefinitionIndexx@@UDefItem_t@@@std@@PAX@1@ABU?$pair@$$CBW4ItemDefinitionIndexx@@UDefItem_t@@@1@@Z 1001b620 f i recvproxy.obj
 0001:0001a6f0       ??$_Buynode_if_nil@AAU?$pair@$$CBW4ItemDefinitionIndexx@@UDefItem_t@@@std@@@?$_Tree@V?$_Tmap_traits@W4ItemDefinitionIndexx@@UDefItem_t@@U?$less@W4ItemDefinitionIndexx@@@std@@V?$allocator@U?$pair@$$CBW4ItemDefinitionIndexx@@UDefItem_t@@@std@@@4@$0A@@std@@@std@@IAEPAU?$_Tree_node@U?$pair@$$CBW4ItemDefinitionIndexx@@UDefItem_t@@@std@@PAX@1@PAU21@AAU?$pair@$$CBW4ItemDefinitionIndexx@@UDefItem_t@@@1@@Z 1001b6f0 f i recvproxy.obj
 0001:0001a700       ??$_Insert_at@AAU?$pair@$$CBW4ItemDefinitionIndexx@@UDefItem_t@@@std@@PAU?$_Tree_node@U?$pair@$$CBW4ItemDefinitionIndexx@@UDefItem_t@@@std@@PAX@2@@?$_Tree@V?$_Tmap_traits@W4ItemDefinitionIndexx@@UDefItem_t@@U?$less@W4ItemDefinitionIndexx@@@std@@V?$allocator@U?$pair@$$CBW4ItemDefinitionIndexx@@UDefItem_t@@@std@@@4@$0A@@std@@@std@@IAE?AV?$_Tree_iterator@V?$_Tree_val@U?$_Tree_simple_types@U?$pair@$$CBW4ItemDefinitionIndexx@@UDefItem_t@@@std@@@std@@@std@@@1@_NPAU?$_Tree_node@U?$pair@$$CBW4ItemDefinitionIndexx@@UDefItem_t@@@std@@PAX@1@AAU?$pair@$$CBW4ItemDefinitionIndexx@@UDefItem_t@@@1@1@Z 1001b700 f i recvproxy.obj
 0001:0001a9a0       ??$_Insert_hint@AAU?$pair@$$CBW4ItemDefinitionIndexx@@UDefItem_t@@@std@@PAU?$_Tree_node@U?$pair@$$CBW4ItemDefinitionIndexx@@UDefItem_t@@@std@@PAX@2@@?$_Tree@V?$_Tmap_traits@W4ItemDefinitionIndexx@@UDefItem_t@@U?$less@W4ItemDefinitionIndexx@@@std@@V?$allocator@U?$pair@$$CBW4ItemDefinitionIndexx@@UDefItem_t@@@std@@@4@$0A@@std@@@std@@IAE?AV?$_Tree_iterator@V?$_Tree_val@U?$_Tree_simple_types@U?$pair@$$CBW4ItemDefinitionIndexx@@UDefItem_t@@@std@@@std@@@std@@@1@V?$_Tree_const_iterator@V?$_Tree_val@U?$_Tree_simple_types@U?$pair@$$CBW4ItemDefinitionIndexx@@UDefItem_t@@@std@@@std@@@std@@@1@AAU?$pair@$$CBW4ItemDefinitionIndexx@@UDefItem_t@@@1@PAU?$_Tree_node@U?$pair@$$CBW4ItemDefinitionIndexx@@UDefItem_t@@@std@@PAX@1@@Z 1001b9a0 f i recvproxy.obj
 0001:0001b370       ??$_Insert_nohint@AAU?$pair@$$CBW4ItemDefinitionIndexx@@UDefItem_t@@@std@@PAU?$_Tree_node@U?$pair@$$CBW4ItemDefinitionIndexx@@UDefItem_t@@@std@@PAX@2@@?$_Tree@V?$_Tmap_traits@W4ItemDefinitionIndexx@@UDefItem_t@@U?$less@W4ItemDefinitionIndexx@@@std@@V?$allocator@U?$pair@$$CBW4ItemDefinitionIndexx@@UDefItem_t@@@std@@@4@$0A@@std@@@std@@IAE?AU?$pair@V?$_Tree_iterator@V?$_Tree_val@U?$_Tree_simple_types@U?$pair@$$CBW4ItemDefinitionIndexx@@UDefItem_t@@@std@@@std@@@std@@@std@@_N@1@_NAAU?$pair@$$CBW4ItemDefinitionIndexx@@UDefItem_t@@@1@PAU?$_Tree_node@U?$pair@$$CBW4ItemDefinitionIndexx@@UDefItem_t@@@std@@PAX@1@@Z 1001c370 f i recvproxy.obj
 0001:0001b680       ??$construct@U?$pair@$$CBW4ItemDefinitionIndexx@@UDefItem_t@@@std@@ABU12@@?$_Default_allocator_traits@V?$allocator@U?$_Tree_node@U?$pair@$$CBW4ItemDefinitionIndexx@@UDefItem_t@@@std@@PAX@std@@@std@@@std@@SAXAAV?$allocator@U?$_Tree_node@U?$pair@$$CBW4ItemDefinitionIndexx@@UDefItem_t@@@std@@PAX@std@@@1@QAU?$pair@$$CBW4ItemDefinitionIndexx@@UDefItem_t@@@1@ABU31@@Z 1001c680 f i recvproxy.obj
 0001:0001b6d0       ??$emplace_hint@ABU?$pair@$$CBW4ItemDefinitionIndexx@@UDefItem_t@@@std@@@?$_Tree@V?$_Tmap_traits@W4ItemDefinitionIndexx@@UDefItem_t@@U?$less@W4ItemDefinitionIndexx@@@std@@V?$allocator@U?$pair@$$CBW4ItemDefinitionIndexx@@UDefItem_t@@@std@@@4@$0A@@std@@@std@@QAE?AV?$_Tree_iterator@V?$_Tree_val@U?$_Tree_simple_types@U?$pair@$$CBW4ItemDefinitionIndexx@@UDefItem_t@@@std@@@std@@@std@@@1@V?$_Tree_const_iterator@V?$_Tree_val@U?$_Tree_simple_types@U?$pair@$$CBW4ItemDefinitionIndexx@@UDefItem_t@@@std@@@std@@@std@@@1@ABU?$pair@$$CBW4ItemDefinitionIndexx@@UDefItem_t@@@1@@Z 1001c6d0 f i recvproxy.obj
 0001:0001b720       ??$insert@PBU?$pair@$$CBW4ItemDefinitionIndexx@@UDefItem_t@@@std@@@?$_Tree@V?$_Tmap_traits@W4ItemDefinitionIndexx@@UDefItem_t@@U?$less@W4ItemDefinitionIndexx@@@std@@V?$allocator@U?$pair@$$CBW4ItemDefinitionIndexx@@UDefItem_t@@@std@@@4@$0A@@std@@@std@@QAEXPBU?$pair@$$CBW4ItemDefinitionIndexx@@UDefItem_t@@@1@0@Z 1001c720 f i recvproxy.obj
 0001:0001b770       ??$swap@DX@std@@YAXAAD0@Z  1001c770 f i recvproxy.obj
 0001:0001b7b0       ??0?$_Tree@V?$_Tmap_traits@W4ItemDefinitionIndexx@@UDefItem_t@@U?$less@W4ItemDefinitionIndexx@@@std@@V?$allocator@U?$pair@$$CBW4ItemDefinitionIndexx@@UDefItem_t@@@std@@@4@$0A@@std@@@std@@QAE@ABU?$less@W4ItemDefinitionIndexx@@@1@@Z 1001c7b0 f i recvproxy.obj
 0001:0001b7d0       ??0?$_Tree_comp_alloc@V?$_Tmap_traits@W4ItemDefinitionIndexx@@UDefItem_t@@U?$less@W4ItemDefinitionIndexx@@@std@@V?$allocator@U?$pair@$$CBW4ItemDefinitionIndexx@@UDefItem_t@@@std@@@4@$0A@@std@@@std@@QAE@ABU?$less@W4ItemDefinitionIndexx@@@1@@Z 1001c7d0 f i recvproxy.obj
 0001:0001b800       ??0?$_List_iterator@V?$_List_val@U?$_List_simple_types@U?$pair@$$CBV?$basic_string@DU?$char_traits@D@std@@V?$allocator@D@2@@std@@V12@@std@@@std@@@std@@@std@@QAE@PAU?$_List_node@U?$pair@$$CBV?$basic_string@DU?$char_traits@D@std@@V?$allocator@D@2@@std@@V12@@std@@PAX@1@PBV?$_List_val@U?$_List_simple_types@U?$pair@$$CBV?$basic_string@DU?$char_traits@D@std@@V?$allocator@D@2@@std@@V12@@std@@@std@@@1@@Z 1001c800 f i Hooks.obj
 0001:0001b800       ??0?$_List_iterator@V?$_List_val@U?$_List_simple_types@U?$pair@$$CBV?$basic_string@DU?$char_traits@D@std@@V?$allocator@D@2@@std@@V?$set@V?$basic_string@DU?$char_traits@D@std@@V?$allocator@D@2@@std@@U?$less@V?$basic_string@DU?$char_traits@D@std@@V?$allocator@D@2@@std@@@2@V?$allocator@V?$basic_string@DU?$char_traits@D@std@@V?$allocator@D@2@@std@@@2@@2@@std@@@std@@@std@@@std@@QAE@PAU?$_List_node@U?$pair@$$CBV?$basic_string@DU?$char_traits@D@std@@V?$allocator@D@2@@std@@V?$set@V?$basic_string@DU?$char_traits@D@std@@V?$allocator@D@2@@std@@U?$less@V?$basic_string@DU?$char_traits@D@std@@V?$allocator@D@2@@std@@@2@V?$allocator@V?$basic_string@DU?$char_traits@D@std@@V?$allocator@D@2@@std@@@2@@2@@std@@PAX@1@PBV?$_List_val@U?$_List_simple_types@U?$pair@$$CBV?$basic_string@DU?$char_traits@D@std@@V?$allocator@D@2@@std@@V?$set@V?$basic_string@DU?$char_traits@D@std@@V?$allocator@D@2@@std@@U?$less@V?$basic_string@DU?$char_traits@D@std@@V?$allocator@D@2@@std@@@2@V?$allocator@V?$basic_string@DU?$char_traits@D@std@@V?$allocator@D@2@@std@@@2@@2@@std@@@std@@@1@@Z 1001c800 f i Hooks.obj
 0001:0001b800       ??0?$_List_iterator@V?$_List_val@U?$_List_simple_types@U?$pair@$$CBV?$basic_string@DU?$char_traits@D@std@@V?$allocator@D@2@@std@@UskinInfo@@@std@@@std@@@std@@@std@@QAE@PAU?$_List_node@U?$pair@$$CBV?$basic_string@DU?$char_traits@D@std@@V?$allocator@D@2@@std@@UskinInfo@@@std@@PAX@1@PBV?$_List_val@U?$_List_simple_types@U?$pair@$$CBV?$basic_string@DU?$char_traits@D@std@@V?$allocator@D@2@@std@@UskinInfo@@@std@@@std@@@1@@Z 1001c800 f i Hooks.obj
 0001:0001b800       ??0?$_Tree_iterator@V?$_Tree_val@U?$_Tree_simple_types@U?$pair@$$CBW4ItemDefinitionIndexx@@UDefItem_t@@@std@@@std@@@std@@@std@@QAE@PAU?$_Tree_node@U?$pair@$$CBW4ItemDefinitionIndexx@@UDefItem_t@@@std@@PAX@1@PBV?$_Tree_val@U?$_Tree_simple_types@U?$pair@$$CBW4ItemDefinitionIndexx@@UDefItem_t@@@std@@@std@@@1@@Z 1001c800 f i recvproxy.obj
 0001:0001b820       ??0?$map@W4ItemDefinitionIndexx@@UDefItem_t@@U?$less@W4ItemDefinitionIndexx@@@std@@V?$allocator@U?$pair@$$CBW4ItemDefinitionIndexx@@UDefItem_t@@@std@@@4@@std@@QAE@V?$initializer_list@U?$pair@$$CBW4ItemDefinitionIndexx@@UDefItem_t@@@std@@@1@@Z 1001c820 f i recvproxy.obj
 0001:0001b890       ??0DefItem_t@@QAE@PBD000@Z 1001c890 f i recvproxy.obj
 0001:0001b8f0       ??0ImVec2@@QAE@MM@Z        1001c8f0 f i imguicolorpicker.obj
 0001:0001b8f0       ??0Vector2D@@QAE@MM@Z      1001c8f0 f i recvproxy.obj
 0001:0001b920       ??1?$_Tree@V?$_Tmap_traits@W4ItemDefinitionIndexx@@UDefItem_t@@U?$less@W4ItemDefinitionIndexx@@@std@@V?$allocator@U?$pair@$$CBW4ItemDefinitionIndexx@@UDefItem_t@@@std@@@4@$0A@@std@@@std@@QAE@XZ 1001c920 f i recvproxy.obj
 0001:0001b970       ??1?$_Tree_comp_alloc@V?$_Tmap_traits@W4ItemDefinitionIndexx@@UDefItem_t@@U?$less@W4ItemDefinitionIndexx@@@std@@V?$allocator@U?$pair@$$CBW4ItemDefinitionIndexx@@UDefItem_t@@@std@@@4@$0A@@std@@@std@@QAE@XZ 1001c970 f i recvproxy.obj
 0001:0001b9c0       ??1?$map@W4ItemDefinitionIndexx@@UDefItem_t@@U?$less@W4ItemDefinitionIndexx@@@std@@V?$allocator@U?$pair@$$CBW4ItemDefinitionIndexx@@UDefItem_t@@@std@@@4@@std@@QAE@XZ 1001c9c0 f i recvproxy.obj
 0001:0001b9e0       ??F?$_Tree_iterator@V?$_Tree_val@U?$_Tree_simple_types@U?$pair@$$CBW4ItemDefinitionIndexx@@UDefItem_t@@@std@@@std@@@std@@@std@@QAEAAV01@XZ 1001c9e0 f i recvproxy.obj
 0001:0001ba00       ??R?$less@W4ItemDefinitionIndexx@@@std@@QBE_NABW4ItemDefinitionIndexx@@0@Z 1001ca00 f i recvproxy.obj
 0001:0001ba30       ?GetHealth@C_BaseEntity@@QAEHXZ 1001ca30 f i recvproxy.obj
 0001:0001ba50       ?GetLifeState@C_BaseEntity@@QAEEXZ 1001ca50 f i recvproxy.obj
 0001:0001ba70       ?GetModel@CModelInfo@@QAEPAXH@Z 1001ca70 f i recvproxy.obj
 0001:0001baa0       ?GetModelIndex@CBaseViewModel@@QAEHXZ 1001caa0 f i recvproxy.obj
 0001:0001bac0       ?GetModelIndex@CModelInfo@@QAEHPBD@Z 1001cac0 f i recvproxy.obj
 0001:0001baf0       ?GetModelName@CModelInfo@@QAEPBDPBX@Z 1001caf0 f i recvproxy.obj
 0001:0001bb20       ?GetOwner@CBaseViewModel@@QAEKXZ 1001cb20 f i recvproxy.obj
 0001:0001bb40       ?IsAlive@C_BaseEntity@@QAE_NXZ 1001cb40 f i recvproxy.obj
 0001:0001bb80       ?_Buyheadnode@?$_Tree_comp_alloc@V?$_Tmap_traits@W4ItemDefinitionIndexx@@UDefItem_t@@U?$less@W4ItemDefinitionIndexx@@@std@@V?$allocator@U?$pair@$$CBW4ItemDefinitionIndexx@@UDefItem_t@@@std@@@4@$0A@@std@@@std@@QAEPAU?$_Tree_node@U?$pair@$$CBW4ItemDefinitionIndexx@@UDefItem_t@@@std@@PAX@2@XZ 1001cb80 f i recvproxy.obj
 0001:0001bc80       ?_Buynode0@?$_Tree_comp_alloc@V?$_Tmap_traits@W4ItemDefinitionIndexx@@UDefItem_t@@U?$less@W4ItemDefinitionIndexx@@@std@@V?$allocator@U?$pair@$$CBW4ItemDefinitionIndexx@@UDefItem_t@@@std@@@4@$0A@@std@@@std@@QAEPAU?$_Tree_node@U?$pair@$$CBW4ItemDefinitionIndexx@@UDefItem_t@@@std@@PAX@2@XZ 1001cc80 f i recvproxy.obj
 0001:0001bd80       ?_Construct@?$_Tree_comp_alloc@V?$_Tmap_traits@W4ItemDefinitionIndexx@@UDefItem_t@@U?$less@W4ItemDefinitionIndexx@@@std@@V?$allocator@U?$pair@$$CBW4ItemDefinitionIndexx@@UDefItem_t@@@std@@@4@$0A@@std@@@std@@QAEXXZ 1001cd80 f i recvproxy.obj
 0001:0001bdb0       ?_Destroy_if_not_nil@?$_Tree@V?$_Tmap_traits@W4ItemDefinitionIndexx@@UDefItem_t@@U?$less@W4ItemDefinitionIndexx@@@std@@V?$allocator@U?$pair@$$CBW4ItemDefinitionIndexx@@UDefItem_t@@@std@@@4@$0A@@std@@@std@@IAEXPAU?$_Tree_node@U?$pair@$$CBW4ItemDefinitionIndexx@@UDefItem_t@@@std@@PAX@2@@Z 1001cdb0 f i recvproxy.obj
 0001:0001be00       ?_Equal@?$basic_string@DU?$char_traits@D@std@@V?$allocator@D@2@@std@@QBE_NQBD@Z 1001ce00 f i recvproxy.obj
 0001:0001be70       ?_Erase@?$_Tree@V?$_Tmap_traits@W4ItemDefinitionIndexx@@UDefItem_t@@U?$less@W4ItemDefinitionIndexx@@@std@@V?$allocator@U?$pair@$$CBW4ItemDefinitionIndexx@@UDefItem_t@@@std@@@4@$0A@@std@@@std@@IAEXPAU?$_Tree_node@U?$pair@$$CBW4ItemDefinitionIndexx@@UDefItem_t@@@std@@PAX@2@@Z 1001ce70 f i recvproxy.obj
 0001:0001bef0       ?_Freeheadnode@?$_Tree_comp_alloc@V?$_Tmap_traits@W4ItemDefinitionIndexx@@UDefItem_t@@U?$less@W4ItemDefinitionIndexx@@@std@@V?$allocator@U?$pair@$$CBW4ItemDefinitionIndexx@@UDefItem_t@@@std@@@4@$0A@@std@@@std@@QAEXPAU?$_Tree_node@U?$pair@$$CBW4ItemDefinitionIndexx@@UDefItem_t@@@std@@PAX@2@@Z 1001cef0 f i recvproxy.obj
 0001:0001bef0       ?_Freenode0@?$_Tree_comp_alloc@V?$_Tmap_traits@W4ItemDefinitionIndexx@@UDefItem_t@@U?$less@W4ItemDefinitionIndexx@@@std@@V?$allocator@U?$pair@$$CBW4ItemDefinitionIndexx@@UDefItem_t@@@std@@@4@$0A@@std@@@std@@QAEXPAU?$_Tree_node@U?$pair@$$CBW4ItemDefinitionIndexx@@UDefItem_t@@@std@@PAX@2@@Z 1001cef0 f i recvproxy.obj
 0001:0001bf70       ?_Get_data@?$_Vector_alloc@U?$_Vec_base_types@VVector@@V?$allocator@VVector@@@std@@@std@@@std@@QAEAAV?$_Vector_val@U?$_Simple_types@VVector@@@std@@@2@XZ 1001cf70 f i ESP.obj
 0001:0001bf70       ?_Getal@?$_Vector_alloc@U?$_Vec_base_types@V?$_List_unchecked_iterator@V?$_List_val@U?$_List_simple_types@U?$pair@$$CBV?$basic_string@DU?$char_traits@D@std@@V?$allocator@D@2@@std@@V?$set@V?$basic_string@DU?$char_traits@D@std@@V?$allocator@D@2@@std@@U?$less@V?$basic_string@DU?$char_traits@D@std@@V?$allocator@D@2@@std@@@2@V?$allocator@V?$basic_string@DU?$char_traits@D@std@@V?$allocator@D@2@@std@@@2@@2@@std@@@std@@@std@@@std@@V?$allocator@V?$_List_unchecked_iterator@V?$_List_val@U?$_List_simple_types@U?$pair@$$CBV?$basic_string@DU?$char_traits@D@std@@V?$allocator@D@2@@std@@V?$set@V?$basic_string@DU?$char_traits@D@std@@V?$allocator@D@2@@std@@U?$less@V?$basic_string@DU?$char_traits@D@std@@V?$allocator@D@2@@std@@@2@V?$allocator@V?$basic_string@DU?$char_traits@D@std@@V?$allocator@D@2@@std@@@2@@2@@std@@@std@@@std@@@std@@@2@@std@@@std@@QAEAAV?$allocator@V?$_List_unchecked_iterator@V?$_List_val@U?$_List_simple_types@U?$pair@$$CBV?$basic_string@DU?$char_traits@D@std@@V?$allocator@D@2@@std@@V?$set@V?$basic_string@DU?$char_traits@D@std@@V?$allocator@D@2@@std@@U?$less@V?$basic_string@DU?$char_traits@D@std@@V?$allocator@D@2@@std@@@2@V?$allocator@V?$basic_string@DU?$char_traits@D@std@@V?$allocator@D@2@@std@@@2@@2@@std@@@std@@@std@@@std@@@2@XZ 1001cf70 f i Configuration.obj
 0001:0001bf70       ?_Getal@?$_Vector_alloc@U?$_Vec_base_types@_SV?$allocator@_S@std@@@std@@@std@@QAEAAV?$allocator@_S@2@XZ 1001cf70 f i Parser.obj
 0001:0001bf70       ?_Get_data@?$_List_alloc@U?$_List_base_types@U?$pair@$$CBV?$basic_string@DU?$char_traits@D@std@@V?$allocator@D@2@@std@@UskinInfo@@@std@@V?$allocator@U?$pair@$$CBV?$basic_string@DU?$char_traits@D@std@@V?$allocator@D@2@@std@@UskinInfo@@@std@@@2@@std@@@std@@QBEABV?$_List_val@U?$_List_simple_types@U?$pair@$$CBV?$basic_string@DU?$char_traits@D@std@@V?$allocator@D@2@@std@@UskinInfo@@@std@@@std@@@2@XZ 1001cf70 f i Hooks.obj
 0001:0001bf70       ?_Getal@?$_Vector_alloc@U?$_Vec_base_types@HV?$allocator@H@std@@@std@@@std@@QBEABV?$allocator@H@2@XZ 1001cf70 f i LegitBot.obj
 0001:0001bf70       ?_Getal@?$_Vector_alloc@U?$_Vec_base_types@PAURecvTable@@V?$allocator@PAURecvTable@@@std@@@std@@@std@@QBEABV?$allocator@PAURecvTable@@@2@XZ 1001cf70 f i NetVarManager.obj
 0001:0001bf70       ?_Get_data@?$_Vector_alloc@U?$_Vec_base_types@EV?$allocator@E@std@@@std@@@std@@QBEABV?$_Vector_val@U?$_Simple_types@E@std@@@2@XZ 1001cf70 f i Utilities.obj
 0001:0001bf70       ?_Getal@?$_Deque_alloc@U?$_Deque_base_types@V?$shared_ptr@VNode@valve_parser@@@std@@V?$allocator@V?$shared_ptr@VNode@valve_parser@@@std@@@2@@std@@@std@@QAEAAV?$allocator@V?$shared_ptr@VNode@valve_parser@@@std@@@2@XZ 1001cf70 f i Hooks.obj
 0001:0001bf70       ?_Get_data@?$_Vector_alloc@U?$_Vec_base_types@HV?$allocator@H@std@@@std@@@std@@QAEAAV?$_Vector_val@U?$_Simple_types@H@std@@@2@XZ 1001cf70 f i LegitBot.obj
 0001:0001bf70       ?_Getal@?$_Vector_alloc@U?$_Vec_base_types@PAURecvTable@@V?$allocator@PAURecvTable@@@std@@@std@@@std@@QAEAAV?$allocator@PAURecvTable@@@2@XZ 1001cf70 f i NetVarManager.obj
 0001:0001bf70       ?_Get_data@?$_Vector_alloc@U?$_Vec_base_types@PAV?$ConfigValue@H@@V?$allocator@PAV?$ConfigValue@H@@@std@@@std@@@std@@QAEAAV?$_Vector_val@U?$_Simple_types@PAV?$ConfigValue@H@@@std@@@2@XZ 1001cf70 f i Configuration.obj
 0001:0001bf70       ?_Getal@?$_Vector_alloc@U?$_Vec_base_types@V?$_List_unchecked_iterator@V?$_List_val@U?$_List_simple_types@U?$pair@$$CBV?$basic_string@DU?$char_traits@D@std@@V?$allocator@D@2@@std@@UskinInfo@@@std@@@std@@@std@@@std@@V?$allocator@V?$_List_unchecked_iterator@V?$_List_val@U?$_List_simple_types@U?$pair@$$CBV?$basic_string@DU?$char_traits@D@std@@V?$allocator@D@2@@std@@UskinInfo@@@std@@@std@@@std@@@std@@@2@@std@@@std@@QAEAAV?$allocator@V?$_List_unchecked_iterator@V?$_List_val@U?$_List_simple_types@U?$pair@$$CBV?$basic_string@DU?$char_traits@D@std@@V?$allocator@D@2@@std@@UskinInfo@@@std@@@std@@@std@@@std@@@2@XZ 1001cf70 f i Configuration.obj
 0001:0001bf70       ?_Get_data@?$_Vector_alloc@U?$_Vec_base_types@V?$_List_unchecked_iterator@V?$_List_val@U?$_List_simple_types@U?$pair@$$CBV?$basic_string@DU?$char_traits@D@std@@V?$allocator@D@2@@std@@UskinInfo@@@std@@@std@@@std@@@std@@V?$allocator@V?$_List_unchecked_iterator@V?$_List_val@U?$_List_simple_types@U?$pair@$$CBV?$basic_string@DU?$char_traits@D@std@@V?$allocator@D@2@@std@@UskinInfo@@@std@@@std@@@std@@@std@@@2@@std@@@std@@QAEAAV?$_Vector_val@U?$_Simple_types@V?$_List_unchecked_iterator@V?$_List_val@U?$_List_simple_types@U?$pair@$$CBV?$basic_string@DU?$char_traits@D@std@@V?$allocator@D@2@@std@@UskinInfo@@@std@@@std@@@std@@@std@@@std@@@2@XZ 1001cf70 f i Configuration.obj
 0001:0001bf70       ?_Getal@?$_Vector_alloc@U?$_Vec_base_types@V?$_List_unchecked_iterator@V?$_List_val@U?$_List_simple_types@U?$pair@QADPAD@std@@@std@@@std@@@std@@V?$allocator@V?$_List_unchecked_iterator@V?$_List_val@U?$_List_simple_types@U?$pair@QADPAD@std@@@std@@@std@@@std@@@2@@std@@@std@@QAEAAV?$allocator@V?$_List_unchecked_iterator@V?$_List_val@U?$_List_simple_types@U?$pair@QADPAD@std@@@std@@@std@@@std@@@2@XZ 1001cf70 f i Hooks.obj
 0001:0001bf70       ?_Get_data@?$_Vector_alloc@U?$_Vec_base_types@V?$shared_ptr@VNode@valve_parser@@@std@@V?$allocator@V?$shared_ptr@VNode@valve_parser@@@std@@@2@@std@@@std@@QBEABV?$_Vector_val@U?$_Simple_types@V?$shared_ptr@VNode@valve_parser@@@std@@@std@@@2@XZ 1001cf70 f i Parser.obj
 0001:0001bf70       ?_Get_data@?$_Deque_alloc@U?$_Deque_base_types@V?$shared_ptr@VNode@valve_parser@@@std@@V?$allocator@V?$shared_ptr@VNode@valve_parser@@@std@@@2@@std@@@std@@QAEAAV?$_Deque_val@U?$_Deque_simple_types@V?$shared_ptr@VNode@valve_parser@@@std@@@std@@@2@XZ 1001cf70 f i Hooks.obj
 0001:0001bf70       ?_Get_data@?$_Vector_alloc@U?$_Vec_base_types@V?$basic_string@DU?$char_traits@D@std@@V?$allocator@D@2@@std@@V?$allocator@V?$basic_string@DU?$char_traits@D@std@@V?$allocator@D@2@@std@@@2@@std@@@std@@QBEABV?$_Vector_val@U?$_Simple_types@V?$basic_string@DU?$char_traits@D@std@@V?$allocator@D@2@@std@@@std@@@2@XZ 1001cf70 f i Configuration.obj
 0001:0001bf70       ?_Getal@?$_Vector_alloc@U?$_Vec_base_types@PAV?$ConfigValue@H@@V?$allocator@PAV?$ConfigValue@H@@@std@@@std@@@std@@QBEABV?$allocator@PAV?$ConfigValue@H@@@2@XZ 1001cf70 f i Configuration.obj
 0001:0001bf70       ?_Get_data@?$_Vector_alloc@U?$_Vec_base_types@V?$basic_string@DU?$char_traits@D@std@@V?$allocator@D@2@@std@@V?$allocator@V?$basic_string@DU?$char_traits@D@std@@V?$allocator@D@2@@std@@@2@@std@@@std@@QAEAAV?$_Vector_val@U?$_Simple_types@V?$basic_string@DU?$char_traits@D@std@@V?$allocator@D@2@@std@@@std@@@2@XZ 1001cf70 f i Configuration.obj
 0001:0001bf70       ?_Getal@?$_String_alloc@U?$_String_base_types@DV?$allocator@D@std@@@std@@@std@@QBEABV?$allocator@D@2@XZ 1001cf70 f i Parser.obj
 0001:0001bf70       ?_Get_data@?$_Vector_alloc@U?$_Vec_base_types@PAV?$ConfigValue@_N@@V?$allocator@PAV?$ConfigValue@_N@@@std@@@std@@@std@@QAEAAV?$_Vector_val@U?$_Simple_types@PAV?$ConfigValue@_N@@@std@@@2@XZ 1001cf70 f i Configuration.obj
 0001:0001bf70       ?_Getal@?$_Vector_alloc@U?$_Vec_base_types@VVector@@V?$allocator@VVector@@@std@@@std@@@std@@QBEABV?$allocator@VVector@@@2@XZ 1001cf70 f i GrenadePrediction.obj
 0001:0001bf70       ?_Getal@?$_Vector_alloc@U?$_Vec_base_types@PAV?$ConfigValue@_N@@V?$allocator@PAV?$ConfigValue@_N@@@std@@@std@@@std@@QAEAAV?$allocator@PAV?$ConfigValue@_N@@@2@XZ 1001cf70 f i Configuration.obj
 0001:0001bf70       ?_Getal@?$_Vector_alloc@U?$_Vec_base_types@V?$basic_string@DU?$char_traits@D@std@@V?$allocator@D@2@@std@@V?$allocator@V?$basic_string@DU?$char_traits@D@std@@V?$allocator@D@2@@std@@@2@@std@@@std@@QBEABV?$allocator@V?$basic_string@DU?$char_traits@D@std@@V?$allocator@D@2@@std@@@2@XZ 1001cf70 f i Hooks.obj
 0001:0001bf70       ?_Get_data@?$_Vector_alloc@U?$_Vec_base_types@PAURecvTable@@V?$allocator@PAURecvTable@@@std@@@std@@@std@@QBEABV?$_Vector_val@U?$_Simple_types@PAURecvTable@@@std@@@2@XZ 1001cf70 f i NetVarManager.obj
 0001:0001bf70       ?_Get_data@?$_List_alloc@U?$_List_base_types@U?$pair@$$CBV?$basic_string@DU?$char_traits@D@std@@V?$allocator@D@2@@std@@V12@@std@@V?$allocator@U?$pair@$$CBV?$basic_string@DU?$char_traits@D@std@@V?$allocator@D@2@@std@@V12@@std@@@2@@std@@@std@@QAEAAV?$_List_val@U?$_List_simple_types@U?$pair@$$CBV?$basic_string@DU?$char_traits@D@std@@V?$allocator@D@2@@std@@V12@@std@@@std@@@2@XZ 1001cf70 f i Configuration.obj
 0001:0001bf70       ?_Getal@?$_Deque_alloc@U?$_Deque_base_types@V?$shared_ptr@VNode@valve_parser@@@std@@V?$allocator@V?$shared_ptr@VNode@valve_parser@@@std@@@2@@std@@@std@@QBEABV?$allocator@V?$shared_ptr@VNode@valve_parser@@@std@@@2@XZ 1001cf70 f i Hooks.obj
 0001:0001bf70       ?_Getal@?$_Vector_alloc@U?$_Vec_base_types@V?$_List_unchecked_iterator@V?$_List_val@U?$_List_simple_types@U?$pair@$$CBV?$basic_string@DU?$char_traits@D@std@@V?$allocator@D@2@@std@@V12@@std@@@std@@@std@@@std@@V?$allocator@V?$_List_unchecked_iterator@V?$_List_val@U?$_List_simple_types@U?$pair@$$CBV?$basic_string@DU?$char_traits@D@std@@V?$allocator@D@2@@std@@V12@@std@@@std@@@std@@@std@@@2@@std@@@std@@QAEAAV?$allocator@V?$_List_unchecked_iterator@V?$_List_val@U?$_List_simple_types@U?$pair@$$CBV?$basic_string@DU?$char_traits@D@std@@V?$allocator@D@2@@std@@V12@@std@@@std@@@std@@@std@@@2@XZ 1001cf70 f i Configuration.obj
 0001:0001bf70       ?_Getal@?$_Vector_alloc@U?$_Vec_base_types@V?$_List_unchecked_iterator@V?$_List_val@U?$_List_simple_types@U?$pair@QADPAD@std@@@std@@@std@@@std@@V?$allocator@V?$_List_unchecked_iterator@V?$_List_val@U?$_List_simple_types@U?$pair@QADPAD@std@@@std@@@std@@@std@@@2@@std@@@std@@QBEABV?$allocator@V?$_List_unchecked_iterator@V?$_List_val@U?$_List_simple_types@U?$pair@QADPAD@std@@@std@@@std@@@std@@@2@XZ 1001cf70 f i Hooks.obj
 0001:0001bf70       ?_Getal@?$_Vector_alloc@U?$_Vec_base_types@PAV?$ConfigValue@_N@@V?$allocator@PAV?$ConfigValue@_N@@@std@@@std@@@std@@QBEABV?$allocator@PAV?$ConfigValue@_N@@@2@XZ 1001cf70 f i Configuration.obj
 0001:0001bf70       ?_Getal@?$_Vector_alloc@U?$_Vec_base_types@V?$_List_unchecked_iterator@V?$_List_val@U?$_List_simple_types@U?$pair@$$CBV?$basic_string@DU?$char_traits@D@std@@V?$allocator@D@2@@std@@V?$set@V?$basic_string@DU?$char_traits@D@std@@V?$allocator@D@2@@std@@U?$less@V?$basic_string@DU?$char_traits@D@std@@V?$allocator@D@2@@std@@@2@V?$allocator@V?$basic_string@DU?$char_traits@D@std@@V?$allocator@D@2@@std@@@2@@2@@std@@@std@@@std@@@std@@V?$allocator@V?$_List_unchecked_iterator@V?$_List_val@U?$_List_simple_types@U?$pair@$$CBV?$basic_string@DU?$char_traits@D@std@@V?$allocator@D@2@@std@@V?$set@V?$basic_string@DU?$char_traits@D@std@@V?$allocator@D@2@@std@@U?$less@V?$basic_string@DU?$char_traits@D@std@@V?$allocator@D@2@@std@@@2@V?$allocator@V?$basic_string@DU?$char_traits@D@std@@V?$allocator@D@2@@std@@@2@@2@@std@@@std@@@std@@@std@@@2@@std@@@std@@QBEABV?$allocator@V?$_List_unchecked_iterator@V?$_List_val@U?$_List_simple_types@U?$pair@$$CBV?$basic_string@DU?$char_traits@D@std@@V?$allocator@D@2@@std@@V?$set@V?$basic_string@DU?$char_traits@D@std@@V?$allocator@D@2@@std@@U?$less@V?$basic_string@DU?$char_traits@D@std@@V?$allocator@D@2@@std@@@2@V?$allocator@V?$basic_string@DU?$char_traits@D@std@@V?$allocator@D@2@@std@@@2@@2@@std@@@std@@@std@@@std@@@2@XZ 1001cf70 f i Configuration.obj
 0001:0001bf70       ?_Get_data@?$_Vector_alloc@U?$_Vec_base_types@_SV?$allocator@_S@std@@@std@@@std@@QAEAAV?$_Vector_val@U?$_Simple_types@_S@std@@@2@XZ 1001cf70 f i Parser.obj
 0001:0001bf70       ?_Getal@?$_Vector_alloc@U?$_Vec_base_types@PAV?$ConfigValue@H@@V?$allocator@PAV?$ConfigValue@H@@@std@@@std@@@std@@QAEAAV?$allocator@PAV?$ConfigValue@H@@@2@XZ 1001cf70 f i Configuration.obj
 0001:0001bf70       ?_Get_data@?$_String_alloc@U?$_String_base_types@DV?$allocator@D@std@@@std@@@std@@QBEABV?$_String_val@U?$_Simple_types@D@std@@@2@XZ 1001cf70 f i Parser.obj
 0001:0001bf70       ?_Getal@?$_Vector_alloc@U?$_Vec_base_types@PAV?$ConfigValue@M@@V?$allocator@PAV?$ConfigValue@M@@@std@@@std@@@std@@QBEABV?$allocator@PAV?$ConfigValue@M@@@2@XZ 1001cf70 f i Configuration.obj
 0001:0001bf70       ?_Get_data@?$_Vector_alloc@U?$_Vec_base_types@V?$_List_unchecked_iterator@V?$_List_val@U?$_List_simple_types@U?$pair@QADPAD@std@@@std@@@std@@@std@@V?$allocator@V?$_List_unchecked_iterator@V?$_List_val@U?$_List_simple_types@U?$pair@QADPAD@std@@@std@@@std@@@std@@@2@@std@@@std@@QAEAAV?$_Vector_val@U?$_Simple_types@V?$_List_unchecked_iterator@V?$_List_val@U?$_List_simple_types@U?$pair@QADPAD@std@@@std@@@std@@@std@@@std@@@2@XZ 1001cf70 f i Hooks.obj
 0001:0001bf70       ?_Gethash@?$_Uhash_compare@V?$basic_string@DU?$char_traits@D@std@@V?$allocator@D@2@@std@@U?$hash@V?$basic_string@DU?$char_traits@D@std@@V?$allocator@D@2@@std@@@2@U?$equal_to@V?$basic_string@DU?$char_traits@D@std@@V?$allocator@D@2@@std@@@2@@std@@QBEABU?$hash@V?$basic_string@DU?$char_traits@D@std@@V?$allocator@D@2@@std@@@2@XZ 1001cf70 f i Hooks.obj
 0001:0001bf70       ?_Get_data@?$_Vector_alloc@U?$_Vec_base_types@PAV?$ConfigValue@M@@V?$allocator@PAV?$ConfigValue@M@@@std@@@std@@@std@@QBEABV?$_Vector_val@U?$_Simple_types@PAV?$ConfigValue@M@@@std@@@2@XZ 1001cf70 f i Configuration.obj
 0001:0001bf70       ?_Getcomp@?$_Tree_comp_alloc@V?$_Tmap_traits@W4ItemDefinitionIndexx@@UDefItem_t@@U?$less@W4ItemDefinitionIndexx@@@std@@V?$allocator@U?$pair@$$CBW4ItemDefinitionIndexx@@UDefItem_t@@@std@@@4@$0A@@std@@@std@@QAEAAU?$less@W4ItemDefinitionIndexx@@@2@XZ 1001cf70 f i recvproxy.obj
 0001:0001bf70       ?_Getal@?$_List_alloc@U?$_List_base_types@U?$pair@$$CBV?$basic_string@DU?$char_traits@D@std@@V?$allocator@D@2@@std@@V12@@std@@V?$allocator@U?$pair@$$CBV?$basic_string@DU?$char_traits@D@std@@V?$allocator@D@2@@std@@V12@@std@@@2@@std@@@std@@QBEABV?$allocator@U?$_List_node@U?$pair@$$CBV?$basic_string@DU?$char_traits@D@std@@V?$allocator@D@2@@std@@V12@@std@@PAX@std@@@2@XZ 1001cf70 f i Hooks.obj
 0001:0001bf70       ?_Get_data@?$_Vector_alloc@U?$_Vec_base_types@V?$_List_unchecked_iterator@V?$_List_val@U?$_List_simple_types@U?$pair@$$CBV?$basic_string@DU?$char_traits@D@std@@V?$allocator@D@2@@std@@V?$set@V?$basic_string@DU?$char_traits@D@std@@V?$allocator@D@2@@std@@U?$less@V?$basic_string@DU?$char_traits@D@std@@V?$allocator@D@2@@std@@@2@V?$allocator@V?$basic_string@DU?$char_traits@D@std@@V?$allocator@D@2@@std@@@2@@2@@std@@@std@@@std@@@std@@V?$allocator@V?$_List_unchecked_iterator@V?$_List_val@U?$_List_simple_types@U?$pair@$$CBV?$basic_string@DU?$char_traits@D@std@@V?$allocator@D@2@@std@@V?$set@V?$basic_string@DU?$char_traits@D@std@@V?$allocator@D@2@@std@@U?$less@V?$basic_string@DU?$char_traits@D@std@@V?$allocator@D@2@@std@@@2@V?$allocator@V?$basic_string@DU?$char_traits@D@std@@V?$allocator@D@2@@std@@@2@@2@@std@@@std@@@std@@@std@@@2@@std@@@std@@QAEAAV?$_Vector_val@U?$_Simple_types@V?$_List_unchecked_iterator@V?$_List_val@U?$_List_simple_types@U?$pair@$$CBV?$basic_string@DU?$char_traits@D@std@@V?$allocator@D@2@@std@@V?$set@V?$basic_string@DU?$char_traits@D@std@@V?$allocator@D@2@@std@@U?$less@V?$basic_string@DU?$char_traits@D@std@@V?$allocator@D@2@@std@@@2@V?$allocator@V?$basic_string@DU?$char_traits@D@std@@V?$allocator@D@2@@std@@@2@@2@@std@@@std@@@std@@@std@@@std@@@2@XZ 1001cf70 f i Configuration.obj
 0001:0001bf70       ?_Get_data@?$_Vector_alloc@U?$_Vec_base_types@V?$_List_unchecked_iterator@V?$_List_val@U?$_List_simple_types@U?$pair@QADPAD@std@@@std@@@std@@@std@@V?$allocator@V?$_List_unchecked_iterator@V?$_List_val@U?$_List_simple_types@U?$pair@QADPAD@std@@@std@@@std@@@std@@@2@@std@@@std@@QBEABV?$_Vector_val@U?$_Simple_types@V?$_List_unchecked_iterator@V?$_List_val@U?$_List_simple_types@U?$pair@QADPAD@std@@@std@@@std@@@std@@@std@@@2@XZ 1001cf70 f i Hooks.obj
 0001:0001bf70       ?_Getal@?$_Vector_alloc@U?$_Vec_base_types@V?$shared_ptr@VNode@valve_parser@@@std@@V?$allocator@V?$shared_ptr@VNode@valve_parser@@@std@@@2@@std@@@std@@QAEAAV?$allocator@V?$shared_ptr@VNode@valve_parser@@@std@@@2@XZ 1001cf70 f i Parser.obj
 0001:0001bf70       ?_Getal@?$_Vector_alloc@U?$_Vec_base_types@_SV?$allocator@_S@std@@@std@@@std@@QBEABV?$allocator@_S@2@XZ 1001cf70 f i Parser.obj
 0001:0001bf70       ?_Get_data@?$_Vector_alloc@U?$_Vec_base_types@PAV?$ConfigValue@_N@@V?$allocator@PAV?$ConfigValue@_N@@@std@@@std@@@std@@QBEABV?$_Vector_val@U?$_Simple_types@PAV?$ConfigValue@_N@@@std@@@2@XZ 1001cf70 f i Configuration.obj
 0001:0001bf70       ?_Get_data@?$_Vector_alloc@U?$_Vec_base_types@V?$_List_unchecked_iterator@V?$_List_val@U?$_List_simple_types@U?$pair@$$CBV?$basic_string@DU?$char_traits@D@std@@V?$allocator@D@2@@std@@V?$set@V?$basic_string@DU?$char_traits@D@std@@V?$allocator@D@2@@std@@U?$less@V?$basic_string@DU?$char_traits@D@std@@V?$allocator@D@2@@std@@@2@V?$allocator@V?$basic_string@DU?$char_traits@D@std@@V?$allocator@D@2@@std@@@2@@2@@std@@@std@@@std@@@std@@V?$allocator@V?$_List_unchecked_iterator@V?$_List_val@U?$_List_simple_types@U?$pair@$$CBV?$basic_string@DU?$char_traits@D@std@@V?$allocator@D@2@@std@@V?$set@V?$basic_string@DU?$char_traits@D@std@@V?$allocator@D@2@@std@@U?$less@V?$basic_string@DU?$char_traits@D@std@@V?$allocator@D@2@@std@@@2@V?$allocator@V?$basic_string@DU?$char_traits@D@std@@V?$allocator@D@2@@std@@@2@@2@@std@@@std@@@std@@@std@@@2@@std@@@std@@QBEABV?$_Vector_val@U?$_Simple_types@V?$_List_unchecked_iterator@V?$_List_val@U?$_List_simple_types@U?$pair@$$CBV?$basic_string@DU?$char_traits@D@std@@V?$allocator@D@2@@std@@V?$set@V?$basic_string@DU?$char_traits@D@std@@V?$allocator@D@2@@std@@U?$less@V?$basic_string@DU?$char_traits@D@std@@V?$allocator@D@2@@std@@@2@V?$allocator@V?$basic_string@DU?$char_traits@D@std@@V?$allocator@D@2@@std@@@2@@2@@std@@@std@@@std@@@std@@@std@@@2@XZ 1001cf70 f i Configuration.obj
 0001:0001bf70       ?_Get_data@?$_Vector_alloc@U?$_Vec_base_types@V?$shared_ptr@VNode@valve_parser@@@std@@V?$allocator@V?$shared_ptr@VNode@valve_parser@@@std@@@2@@std@@@std@@QAEAAV?$_Vector_val@U?$_Simple_types@V?$shared_ptr@VNode@valve_parser@@@std@@@std@@@2@XZ 1001cf70 f i Parser.obj
 0001:0001bf70       ?_Get_data@?$_Vector_alloc@U?$_Vec_base_types@V?$_List_unchecked_iterator@V?$_List_val@U?$_List_simple_types@U?$pair@$$CBV?$basic_string@DU?$char_traits@D@std@@V?$allocator@D@2@@std@@UskinInfo@@@std@@@std@@@std@@@std@@V?$allocator@V?$_List_unchecked_iterator@V?$_List_val@U?$_List_simple_types@U?$pair@$$CBV?$basic_string@DU?$char_traits@D@std@@V?$allocator@D@2@@std@@UskinInfo@@@std@@@std@@@std@@@std@@@2@@std@@@std@@QBEABV?$_Vector_val@U?$_Simple_types@V?$_List_unchecked_iterator@V?$_List_val@U?$_List_simple_types@U?$pair@$$CBV?$basic_string@DU?$char_traits@D@std@@V?$allocator@D@2@@std@@UskinInfo@@@std@@@std@@@std@@@std@@@std@@@2@XZ 1001cf70 f i Configuration.obj
 0001:0001bf70       ?_Get_data@?$_Vector_alloc@U?$_Vec_base_types@V?$_List_unchecked_iterator@V?$_List_val@U?$_List_simple_types@U?$pair@$$CBV?$basic_string@DU?$char_traits@D@std@@V?$allocator@D@2@@std@@V12@@std@@@std@@@std@@@std@@V?$allocator@V?$_List_unchecked_iterator@V?$_List_val@U?$_List_simple_types@U?$pair@$$CBV?$basic_string@DU?$char_traits@D@std@@V?$allocator@D@2@@std@@V12@@std@@@std@@@std@@@std@@@2@@std@@@std@@QBEABV?$_Vector_val@U?$_Simple_types@V?$_List_unchecked_iterator@V?$_List_val@U?$_List_simple_types@U?$pair@$$CBV?$basic_string@DU?$char_traits@D@std@@V?$allocator@D@2@@std@@V12@@std@@@std@@@std@@@std@@@std@@@2@XZ 1001cf70 f i Configuration.obj
 0001:0001bf70       ?_Get_data@?$_List_alloc@U?$_List_base_types@U?$pair@$$CBV?$basic_string@DU?$char_traits@D@std@@V?$allocator@D@2@@std@@UskinInfo@@@std@@V?$allocator@U?$pair@$$CBV?$basic_string@DU?$char_traits@D@std@@V?$allocator@D@2@@std@@UskinInfo@@@std@@@2@@std@@@std@@QAEAAV?$_List_val@U?$_List_simple_types@U?$pair@$$CBV?$basic_string@DU?$char_traits@D@std@@V?$allocator@D@2@@std@@UskinInfo@@@std@@@std@@@2@XZ 1001cf70 f i Configuration.obj
 0001:0001bf70       ?_Getal@?$_List_alloc@U?$_List_base_types@U?$pair@$$CBV?$basic_string@DU?$char_traits@D@std@@V?$allocator@D@2@@std@@V12@@std@@V?$allocator@U?$pair@$$CBV?$basic_string@DU?$char_traits@D@std@@V?$allocator@D@2@@std@@V12@@std@@@2@@std@@@std@@QAEAAV?$allocator@U?$_List_node@U?$pair@$$CBV?$basic_string@DU?$char_traits@D@std@@V?$allocator@D@2@@std@@V12@@std@@PAX@std@@@2@XZ 1001cf70 f i Configuration.obj
 0001:0001bf70       ?_Get_data@?$_Deque_alloc@U?$_Deque_base_types@V?$shared_ptr@VNode@valve_parser@@@std@@V?$allocator@V?$shared_ptr@VNode@valve_parser@@@std@@@2@@std@@@std@@QBEABV?$_Deque_val@U?$_Deque_simple_types@V?$shared_ptr@VNode@valve_parser@@@std@@@std@@@2@XZ 1001cf70 f i Hooks.obj
 0001:0001bf70       ?_Getal@?$_Vector_alloc@U?$_Vec_base_types@VVector@@V?$allocator@VVector@@@std@@@std@@@std@@QAEAAV?$allocator@VVector@@@2@XZ 1001cf70 f i ESP.obj
 0001:0001bf70       ?_Getal@?$_Vector_alloc@U?$_Vec_base_types@V?$shared_ptr@VNode@valve_parser@@@std@@V?$allocator@V?$shared_ptr@VNode@valve_parser@@@std@@@2@@std@@@std@@QBEABV?$allocator@V?$shared_ptr@VNode@valve_parser@@@std@@@2@XZ 1001cf70 f i Parser.obj
 0001:0001bf70       ?_Getal@?$_List_alloc@U?$_List_base_types@U?$pair@$$CBV?$basic_string@DU?$char_traits@D@std@@V?$allocator@D@2@@std@@UskinInfo@@@std@@V?$allocator@U?$pair@$$CBV?$basic_string@DU?$char_traits@D@std@@V?$allocator@D@2@@std@@UskinInfo@@@std@@@2@@std@@@std@@QAEAAV?$allocator@U?$_List_node@U?$pair@$$CBV?$basic_string@DU?$char_traits@D@std@@V?$allocator@D@2@@std@@UskinInfo@@@std@@PAX@std@@@2@XZ 1001cf70 f i Configuration.obj
 0001:0001bf70       ?_Get_data@?$_Vector_alloc@U?$_Vec_base_types@_SV?$allocator@_S@std@@@std@@@std@@QBEABV?$_Vector_val@U?$_Simple_types@_S@std@@@2@XZ 1001cf70 f i Parser.obj
 0001:0001bf70       ?_Getcomp@?$_Tree_comp_alloc@V?$_Tmap_traits@W4ItemDefinitionIndexx@@UDefItem_t@@U?$less@W4ItemDefinitionIndexx@@@std@@V?$allocator@U?$pair@$$CBW4ItemDefinitionIndexx@@UDefItem_t@@@std@@@4@$0A@@std@@@std@@QBEABU?$less@W4ItemDefinitionIndexx@@@2@XZ 1001cf70 f i Hooks.obj
 0001:0001bf70       ?_Get_data@?$_List_alloc@U?$_List_base_types@U?$pair@$$CBV?$basic_string@DU?$char_traits@D@std@@V?$allocator@D@2@@std@@V12@@std@@V?$allocator@U?$pair@$$CBV?$basic_string@DU?$char_traits@D@std@@V?$allocator@D@2@@std@@V12@@std@@@2@@std@@@std@@QBEABV?$_List_val@U?$_List_simple_types@U?$pair@$$CBV?$basic_string@DU?$char_traits@D@std@@V?$allocator@D@2@@std@@V12@@std@@@std@@@2@XZ 1001cf70 f i Hooks.obj
 0001:0001bf70       ?_Get_data@?$_String_alloc@U?$_String_base_types@DV?$allocator@D@std@@@std@@@std@@QAEAAV?$_String_val@U?$_Simple_types@D@std@@@2@XZ 1001cf70 f i Parser.obj
 0001:0001bf70       ?_Get_data@?$_Vector_alloc@U?$_Vec_base_types@PAV?$ConfigValue@M@@V?$allocator@PAV?$ConfigValue@M@@@std@@@std@@@std@@QAEAAV?$_Vector_val@U?$_Simple_types@PAV?$ConfigValue@M@@@std@@@2@XZ 1001cf70 f i Configuration.obj
 0001:0001bf70       ?_Get_data@?$_Vector_alloc@U?$_Vec_base_types@EV?$allocator@E@std@@@std@@@std@@QAEAAV?$_Vector_val@U?$_Simple_types@E@std@@@2@XZ 1001cf70 f i Utilities.obj
 0001:0001bf70       ?_Get_data@?$_Vector_alloc@U?$_Vec_base_types@PAV?$ConfigValue@H@@V?$allocator@PAV?$ConfigValue@H@@@std@@@std@@@std@@QBEABV?$_Vector_val@U?$_Simple_types@PAV?$ConfigValue@H@@@std@@@2@XZ 1001cf70 f i Configuration.obj
 0001:0001bf70       ?_Getal@?$_Vector_alloc@U?$_Vec_base_types@HV?$allocator@H@std@@@std@@@std@@QAEAAV?$allocator@H@2@XZ 1001cf70 f i LegitBot.obj
 0001:0001bf70       ?_Get_data@?$_List_alloc@U?$_List_base_types@U?$pair@QADPAD@std@@V?$allocator@U?$pair@QADPAD@std@@@2@@std@@@std@@QAEAAV?$_List_val@U?$_List_simple_types@U?$pair@QADPAD@std@@@std@@@2@XZ 1001cf70 f i Hooks.obj
 0001:0001bf70       ?_Get_data@?$_List_alloc@U?$_List_base_types@U?$pair@$$CBV?$basic_string@DU?$char_traits@D@std@@V?$allocator@D@2@@std@@V?$set@V?$basic_string@DU?$char_traits@D@std@@V?$allocator@D@2@@std@@U?$less@V?$basic_string@DU?$char_traits@D@std@@V?$allocator@D@2@@std@@@2@V?$allocator@V?$basic_string@DU?$char_traits@D@std@@V?$allocator@D@2@@std@@@2@@2@@std@@V?$allocator@U?$pair@$$CBV?$basic_string@DU?$char_traits@D@std@@V?$allocator@D@2@@std@@V?$set@V?$basic_string@DU?$char_traits@D@std@@V?$allocator@D@2@@std@@U?$less@V?$basic_string@DU?$char_traits@D@std@@V?$allocator@D@2@@std@@@2@V?$allocator@V?$basic_string@DU?$char_traits@D@std@@V?$allocator@D@2@@std@@@2@@2@@std@@@2@@std@@@std@@QAEAAV?$_List_val@U?$_List_simple_types@U?$pair@$$CBV?$basic_string@DU?$char_traits@D@std@@V?$allocator@D@2@@std@@V?$set@V?$basic_string@DU?$char_traits@D@std@@V?$allocator@D@2@@std@@U?$less@V?$basic_string@DU?$char_traits@D@std@@V?$allocator@D@2@@std@@@2@V?$allocator@V?$basic_string@DU?$char_traits@D@std@@V?$allocator@D@2@@std@@@2@@2@@std@@@std@@@2@XZ 1001cf70 f i Configuration.obj
 0001:0001bf70       ?_Getal@?$_List_alloc@U?$_List_base_types@U?$pair@$$CBV?$basic_string@DU?$char_traits@D@std@@V?$allocator@D@2@@std@@V?$set@V?$basic_string@DU?$char_traits@D@std@@V?$allocator@D@2@@std@@U?$less@V?$basic_string@DU?$char_traits@D@std@@V?$allocator@D@2@@std@@@2@V?$allocator@V?$basic_string@DU?$char_traits@D@std@@V?$allocator@D@2@@std@@@2@@2@@std@@V?$allocator@U?$pair@$$CBV?$basic_string@DU?$char_traits@D@std@@V?$allocator@D@2@@std@@V?$set@V?$basic_string@DU?$char_traits@D@std@@V?$allocator@D@2@@std@@U?$less@V?$basic_string@DU?$char_traits@D@std@@V?$allocator@D@2@@std@@@2@V?$allocator@V?$basic_string@DU?$char_traits@D@std@@V?$allocator@D@2@@std@@@2@@2@@std@@@2@@std@@@std@@QAEAAV?$allocator@U?$_List_node@U?$pair@$$CBV?$basic_string@DU?$char_traits@D@std@@V?$allocator@D@2@@std@@V?$set@V?$basic_string@DU?$char_traits@D@std@@V?$allocator@D@2@@std@@U?$less@V?$basic_string@DU?$char_traits@D@std@@V?$allocator@D@2@@std@@@2@V?$allocator@V?$basic_string@DU?$char_traits@D@std@@V?$allocator@D@2@@std@@@2@@2@@std@@PAX@std@@@2@XZ 1001cf70 f i Configuration.obj
 0001:0001bf70       ?_Getal@?$_Vector_alloc@U?$_Vec_base_types@PAV?$ConfigValue@M@@V?$allocator@PAV?$ConfigValue@M@@@std@@@std@@@std@@QAEAAV?$allocator@PAV?$ConfigValue@M@@@2@XZ 1001cf70 f i Configuration.obj
 0001:0001bf70       ?_Getal@?$_List_alloc@U?$_List_base_types@U?$pair@$$CBV?$basic_string@DU?$char_traits@D@std@@V?$allocator@D@2@@std@@UskinInfo@@@std@@V?$allocator@U?$pair@$$CBV?$basic_string@DU?$char_traits@D@std@@V?$allocator@D@2@@std@@UskinInfo@@@std@@@2@@std@@@std@@QBEABV?$allocator@U?$_List_node@U?$pair@$$CBV?$basic_string@DU?$char_traits@D@std@@V?$allocator@D@2@@std@@UskinInfo@@@std@@PAX@std@@@2@XZ 1001cf70 f i Hooks.obj
 0001:0001bf70       ?_Getal@?$_List_alloc@U?$_List_base_types@U?$pair@QADPAD@std@@V?$allocator@U?$pair@QADPAD@std@@@2@@std@@@std@@QAEAAV?$allocator@U?$_List_node@U?$pair@QADPAD@std@@PAX@std@@@2@XZ 1001cf70 f i Hooks.obj
 0001:0001bf70       ?_Getal@?$_Vector_alloc@U?$_Vec_base_types@V?$_List_unchecked_iterator@V?$_List_val@U?$_List_simple_types@U?$pair@$$CBV?$basic_string@DU?$char_traits@D@std@@V?$allocator@D@2@@std@@V12@@std@@@std@@@std@@@std@@V?$allocator@V?$_List_unchecked_iterator@V?$_List_val@U?$_List_simple_types@U?$pair@$$CBV?$basic_string@DU?$char_traits@D@std@@V?$allocator@D@2@@std@@V12@@std@@@std@@@std@@@std@@@2@@std@@@std@@QBEABV?$allocator@V?$_List_unchecked_iterator@V?$_List_val@U?$_List_simple_types@U?$pair@$$CBV?$basic_string@DU?$char_traits@D@std@@V?$allocator@D@2@@std@@V12@@std@@@std@@@std@@@std@@@2@XZ 1001cf70 f i Configuration.obj
 0001:0001bf70       ?_Getcomp@?$_Tree_comp_alloc@V?$_Tset_traits@V?$basic_string@DU?$char_traits@D@std@@V?$allocator@D@2@@std@@U?$less@V?$basic_string@DU?$char_traits@D@std@@V?$allocator@D@2@@std@@@2@V?$allocator@V?$basic_string@DU?$char_traits@D@std@@V?$allocator@D@2@@std@@@2@$0A@@std@@@std@@QAEAAU?$less@V?$basic_string@DU?$char_traits@D@std@@V?$allocator@D@2@@std@@@2@XZ 1001cf70 f i Hooks.obj
 0001:0001bf70       ?_Get_data@?$_Vector_alloc@U?$_Vec_base_types@V?$_List_unchecked_iterator@V?$_List_val@U?$_List_simple_types@U?$pair@$$CBV?$basic_string@DU?$char_traits@D@std@@V?$allocator@D@2@@std@@V12@@std@@@std@@@std@@@std@@V?$allocator@V?$_List_unchecked_iterator@V?$_List_val@U?$_List_simple_types@U?$pair@$$CBV?$basic_string@DU?$char_traits@D@std@@V?$allocator@D@2@@std@@V12@@std@@@std@@@std@@@std@@@2@@std@@@std@@QAEAAV?$_Vector_val@U?$_Simple_types@V?$_List_unchecked_iterator@V?$_List_val@U?$_List_simple_types@U?$pair@$$CBV?$basic_string@DU?$char_traits@D@std@@V?$allocator@D@2@@std@@V12@@std@@@std@@@std@@@std@@@std@@@2@XZ 1001cf70 f i Configuration.obj
 0001:0001bf70       ?_Getal@?$_Vector_alloc@U?$_Vec_base_types@V?$basic_string@DU?$char_traits@D@std@@V?$allocator@D@2@@std@@V?$allocator@V?$basic_string@DU?$char_traits@D@std@@V?$allocator@D@2@@std@@@2@@std@@@std@@QAEAAV?$allocator@V?$basic_string@DU?$char_traits@D@std@@V?$allocator@D@2@@std@@@2@XZ 1001cf70 f i Configuration.obj
 0001:0001bf70       ?_Get_data@?$_Vector_alloc@U?$_Vec_base_types@PAURecvTable@@V?$allocator@PAURecvTable@@@std@@@std@@@std@@QAEAAV?$_Vector_val@U?$_Simple_types@PAURecvTable@@@std@@@2@XZ 1001cf70 f i NetVarManager.obj
 0001:0001bf70       ?_Get_data@?$_List_alloc@U?$_List_base_types@U?$pair@$$CBV?$basic_string@DU?$char_traits@D@std@@V?$allocator@D@2@@std@@V?$set@V?$basic_string@DU?$char_traits@D@std@@V?$allocator@D@2@@std@@U?$less@V?$basic_string@DU?$char_traits@D@std@@V?$allocator@D@2@@std@@@2@V?$allocator@V?$basic_string@DU?$char_traits@D@std@@V?$allocator@D@2@@std@@@2@@2@@std@@V?$allocator@U?$pair@$$CBV?$basic_string@DU?$char_traits@D@std@@V?$allocator@D@2@@std@@V?$set@V?$basic_string@DU?$char_traits@D@std@@V?$allocator@D@2@@std@@U?$less@V?$basic_string@DU?$char_traits@D@std@@V?$allocator@D@2@@std@@@2@V?$allocator@V?$basic_string@DU?$char_traits@D@std@@V?$allocator@D@2@@std@@@2@@2@@std@@@2@@std@@@std@@QBEABV?$_List_val@U?$_List_simple_types@U?$pair@$$CBV?$basic_string@DU?$char_traits@D@std@@V?$allocator@D@2@@std@@V?$set@V?$basic_string@DU?$char_traits@D@std@@V?$allocator@D@2@@std@@U?$less@V?$basic_string@DU?$char_traits@D@std@@V?$allocator@D@2@@std@@@2@V?$allocator@V?$basic_string@DU?$char_traits@D@std@@V?$allocator@D@2@@std@@@2@@2@@std@@@std@@@2@XZ 1001cf70 f i Hooks.obj
 0001:0001bf70       ?_Getal@?$_String_alloc@U?$_String_base_types@DV?$allocator@D@std@@@std@@@std@@QAEAAV?$allocator@D@2@XZ 1001cf70 f i Parser.obj
 0001:0001bf70       ?_Get_data@?$_Vector_alloc@U?$_Vec_base_types@VVector@@V?$allocator@VVector@@@std@@@std@@@std@@QBEABV?$_Vector_val@U?$_Simple_types@VVector@@@std@@@2@XZ 1001cf70 f i ESP.obj
 0001:0001bf70       ?_Getal@?$_Vector_alloc@U?$_Vec_base_types@V?$_List_unchecked_iterator@V?$_List_val@U?$_List_simple_types@U?$pair@$$CBV?$basic_string@DU?$char_traits@D@std@@V?$allocator@D@2@@std@@UskinInfo@@@std@@@std@@@std@@@std@@V?$allocator@V?$_List_unchecked_iterator@V?$_List_val@U?$_List_simple_types@U?$pair@$$CBV?$basic_string@DU?$char_traits@D@std@@V?$allocator@D@2@@std@@UskinInfo@@@std@@@std@@@std@@@std@@@2@@std@@@std@@QBEABV?$allocator@V?$_List_unchecked_iterator@V?$_List_val@U?$_List_simple_types@U?$pair@$$CBV?$basic_string@DU?$char_traits@D@std@@V?$allocator@D@2@@std@@UskinInfo@@@std@@@std@@@std@@@std@@@2@XZ 1001cf70 f i Configuration.obj
 0001:0001bf70       ?_Getal@?$_List_alloc@U?$_List_base_types@U?$pair@$$CBV?$basic_string@DU?$char_traits@D@std@@V?$allocator@D@2@@std@@V?$set@V?$basic_string@DU?$char_traits@D@std@@V?$allocator@D@2@@std@@U?$less@V?$basic_string@DU?$char_traits@D@std@@V?$allocator@D@2@@std@@@2@V?$allocator@V?$basic_string@DU?$char_traits@D@std@@V?$allocator@D@2@@std@@@2@@2@@std@@V?$allocator@U?$pair@$$CBV?$basic_string@DU?$char_traits@D@std@@V?$allocator@D@2@@std@@V?$set@V?$basic_string@DU?$char_traits@D@std@@V?$allocator@D@2@@std@@U?$less@V?$basic_string@DU?$char_traits@D@std@@V?$allocator@D@2@@std@@@2@V?$allocator@V?$basic_string@DU?$char_traits@D@std@@V?$allocator@D@2@@std@@@2@@2@@std@@@2@@std@@@std@@QBEABV?$allocator@U?$_List_node@U?$pair@$$CBV?$basic_string@DU?$char_traits@D@std@@V?$allocator@D@2@@std@@V?$set@V?$basic_string@DU?$char_traits@D@std@@V?$allocator@D@2@@std@@U?$less@V?$basic_string@DU?$char_traits@D@std@@V?$allocator@D@2@@std@@@2@V?$allocator@V?$basic_string@DU?$char_traits@D@std@@V?$allocator@D@2@@std@@@2@@2@@std@@PAX@std@@@2@XZ 1001cf70 f i Hooks.obj
 0001:0001bf70       ?_Get_data@?$_Vector_alloc@U?$_Vec_base_types@HV?$allocator@H@std@@@std@@@std@@QBEABV?$_Vector_val@U?$_Simple_types@H@std@@@2@XZ 1001cf70 f i LegitBot.obj
 0001:0001bf90       ?_Lmost@?$_Tree@V?$_Tset_traits@V?$basic_string@DU?$char_traits@D@std@@V?$allocator@D@2@@std@@U?$less@V?$basic_string@DU?$char_traits@D@std@@V?$allocator@D@2@@std@@@2@V?$allocator@V?$basic_string@DU?$char_traits@D@std@@V?$allocator@D@2@@std@@@2@$0A@@std@@@std@@IBEAAPAU?$_Tree_node@V?$basic_string@DU?$char_traits@D@std@@V?$allocator@D@2@@std@@PAX@2@XZ 1001cf90 f i Configuration.obj
 0001:0001bf90       ?_Lmost@?$_Tree@V?$_Tmap_traits@W4ItemDefinitionIndexx@@UDefItem_t@@U?$less@W4ItemDefinitionIndexx@@@std@@V?$allocator@U?$pair@$$CBW4ItemDefinitionIndexx@@UDefItem_t@@@std@@@4@$0A@@std@@@std@@IBEAAPAU?$_Tree_node@U?$pair@$$CBW4ItemDefinitionIndexx@@UDefItem_t@@@std@@PAX@2@XZ 1001cf90 f i recvproxy.obj
 0001:0001bfb0       ?_Lrotate@?$_Tree@V?$_Tset_traits@V?$basic_string@DU?$char_traits@D@std@@V?$allocator@D@2@@std@@U?$less@V?$basic_string@DU?$char_traits@D@std@@V?$allocator@D@2@@std@@@2@V?$allocator@V?$basic_string@DU?$char_traits@D@std@@V?$allocator@D@2@@std@@@2@$0A@@std@@@std@@IAEXPAU?$_Tree_node@V?$basic_string@DU?$char_traits@D@std@@V?$allocator@D@2@@std@@PAX@2@@Z 1001cfb0 f i Configuration.obj
 0001:0001bfb0       ?_Lrotate@?$_Tree@V?$_Tmap_traits@W4ItemDefinitionIndexx@@UDefItem_t@@U?$less@W4ItemDefinitionIndexx@@@std@@V?$allocator@U?$pair@$$CBW4ItemDefinitionIndexx@@UDefItem_t@@@std@@@4@$0A@@std@@@std@@IAEXPAU?$_Tree_node@U?$pair@$$CBW4ItemDefinitionIndexx@@UDefItem_t@@@std@@PAX@2@@Z 1001cfb0 f i recvproxy.obj
 0001:0001c050       ?_Min@?$_Tree_comp_alloc@V?$_Tset_traits@V?$basic_string@DU?$char_traits@D@std@@V?$allocator@D@2@@std@@U?$less@V?$basic_string@DU?$char_traits@D@std@@V?$allocator@D@2@@std@@@2@V?$allocator@V?$basic_string@DU?$char_traits@D@std@@V?$allocator@D@2@@std@@@2@$0A@@std@@@std@@SAPAU?$_Tree_node@V?$basic_string@DU?$char_traits@D@std@@V?$allocator@D@2@@std@@PAX@2@PAU32@@Z 1001d050 f i Configuration.obj
 0001:0001c050       ?_Min@?$_Tree_comp_alloc@V?$_Tmap_traits@W4ItemDefinitionIndexx@@UDefItem_t@@U?$less@W4ItemDefinitionIndexx@@@std@@V?$allocator@U?$pair@$$CBW4ItemDefinitionIndexx@@UDefItem_t@@@std@@@4@$0A@@std@@@std@@SAPAU?$_Tree_node@U?$pair@$$CBW4ItemDefinitionIndexx@@UDefItem_t@@@std@@PAX@2@PAU32@@Z 1001d050 f i recvproxy.obj
 0001:0001c070       ?_Min@?$_Tree_val@U?$_Tree_simple_types@U?$pair@$$CBW4ItemDefinitionIndexx@@UDefItem_t@@@std@@@std@@@std@@SAPAU?$_Tree_node@U?$pair@$$CBW4ItemDefinitionIndexx@@UDefItem_t@@@std@@PAX@2@PAU32@@Z 1001d070 f i recvproxy.obj
 0001:0001c070       ?_Min@?$_Tree_val@U?$_Tree_simple_types@V?$basic_string@DU?$char_traits@D@std@@V?$allocator@D@2@@std@@@std@@@std@@SAPAU?$_Tree_node@V?$basic_string@DU?$char_traits@D@std@@V?$allocator@D@2@@std@@PAX@2@PAU32@@Z 1001d070 f i Configuration.obj
 0001:0001c090       ?_Mysize@?$_Tree_comp_alloc@V?$_Tmap_traits@W4ItemDefinitionIndexx@@UDefItem_t@@U?$less@W4ItemDefinitionIndexx@@@std@@V?$allocator@U?$pair@$$CBW4ItemDefinitionIndexx@@UDefItem_t@@@std@@@4@$0A@@std@@@std@@QAEAAIXZ 1001d090 f i recvproxy.obj
 0001:0001c090       ?_Mysize@?$_Tree_comp_alloc@V?$_Tmap_traits@W4ItemDefinitionIndexx@@UDefItem_t@@U?$less@W4ItemDefinitionIndexx@@@std@@V?$allocator@U?$pair@$$CBW4ItemDefinitionIndexx@@UDefItem_t@@@std@@@4@$0A@@std@@@std@@QBEABIXZ 1001d090 f i recvproxy.obj
 0001:0001c090       ?_Mysize@?$_Tree_comp_alloc@V?$_Tset_traits@V?$basic_string@DU?$char_traits@D@std@@V?$allocator@D@2@@std@@U?$less@V?$basic_string@DU?$char_traits@D@std@@V?$allocator@D@2@@std@@@2@V?$allocator@V?$basic_string@DU?$char_traits@D@std@@V?$allocator@D@2@@std@@@2@$0A@@std@@@std@@QAEAAIXZ 1001d090 f i Configuration.obj
 0001:0001c0b0       ?_Root@?$_Tree@V?$_Tset_traits@V?$basic_string@DU?$char_traits@D@std@@V?$allocator@D@2@@std@@U?$less@V?$basic_string@DU?$char_traits@D@std@@V?$allocator@D@2@@std@@@2@V?$allocator@V?$basic_string@DU?$char_traits@D@std@@V?$allocator@D@2@@std@@@2@$0A@@std@@@std@@IBEAAPAU?$_Tree_node@V?$basic_string@DU?$char_traits@D@std@@V?$allocator@D@2@@std@@PAX@2@XZ 1001d0b0 f i Configuration.obj
 0001:0001c0b0       ?_Root@?$_Tree@V?$_Tmap_traits@W4ItemDefinitionIndexx@@UDefItem_t@@U?$less@W4ItemDefinitionIndexx@@@std@@V?$allocator@U?$pair@$$CBW4ItemDefinitionIndexx@@UDefItem_t@@@std@@@4@$0A@@std@@@std@@IBEAAPAU?$_Tree_node@U?$pair@$$CBW4ItemDefinitionIndexx@@UDefItem_t@@@std@@PAX@2@XZ 1001d0b0 f i recvproxy.obj
 0001:0001c0d0       ?_Rrotate@?$_Tree@V?$_Tmap_traits@W4ItemDefinitionIndexx@@UDefItem_t@@U?$less@W4ItemDefinitionIndexx@@@std@@V?$allocator@U?$pair@$$CBW4ItemDefinitionIndexx@@UDefItem_t@@@std@@@4@$0A@@std@@@std@@IAEXPAU?$_Tree_node@U?$pair@$$CBW4ItemDefinitionIndexx@@UDefItem_t@@@std@@PAX@2@@Z 1001d0d0 f i recvproxy.obj
 0001:0001c0d0       ?_Rrotate@?$_Tree@V?$_Tset_traits@V?$basic_string@DU?$char_traits@D@std@@V?$allocator@D@2@@std@@U?$less@V?$basic_string@DU?$char_traits@D@std@@V?$allocator@D@2@@std@@@2@V?$allocator@V?$basic_string@DU?$char_traits@D@std@@V?$allocator@D@2@@std@@@2@$0A@@std@@@std@@IAEXPAU?$_Tree_node@V?$basic_string@DU?$char_traits@D@std@@V?$allocator@D@2@@std@@PAX@2@@Z 1001d0d0 f i Configuration.obj
 0001:0001c170       ?_Tidy@?$_Tree@V?$_Tmap_traits@W4ItemDefinitionIndexx@@UDefItem_t@@U?$less@W4ItemDefinitionIndexx@@@std@@V?$allocator@U?$pair@$$CBW4ItemDefinitionIndexx@@UDefItem_t@@@std@@@4@$0A@@std@@@std@@IAEXXZ 1001d170 f i recvproxy.obj
 0001:0001c1c0       ?begin@?$_Tree@V?$_Tmap_traits@W4ItemDefinitionIndexx@@UDefItem_t@@U?$less@W4ItemDefinitionIndexx@@@std@@V?$allocator@U?$pair@$$CBW4ItemDefinitionIndexx@@UDefItem_t@@@std@@@4@$0A@@std@@@std@@QAE?AV?$_Tree_iterator@V?$_Tree_val@U?$_Tree_simple_types@U?$pair@$$CBW4ItemDefinitionIndexx@@UDefItem_t@@@std@@@std@@@std@@@2@XZ 1001d1c0 f i recvproxy.obj
 0001:0001c220       ?clear@?$_Tree@V?$_Tmap_traits@W4ItemDefinitionIndexx@@UDefItem_t@@U?$less@W4ItemDefinitionIndexx@@@std@@V?$allocator@U?$pair@$$CBW4ItemDefinitionIndexx@@UDefItem_t@@@std@@@4@$0A@@std@@@std@@QAEXXZ 1001d220 f i recvproxy.obj
 0001:0001c2c0       ?deallocate@?$allocator@U?$_Tree_node@U?$pair@$$CBW4ItemDefinitionIndexx@@UDefItem_t@@@std@@PAX@std@@@std@@QAEXQAU?$_Tree_node@U?$pair@$$CBW4ItemDefinitionIndexx@@UDefItem_t@@@std@@PAX@2@I@Z 1001d2c0 f i recvproxy.obj
 0001:0001c2e0       ?end@?$_Tree@V?$_Tmap_traits@W4ItemDefinitionIndexx@@UDefItem_t@@U?$less@W4ItemDefinitionIndexx@@@std@@V?$allocator@U?$pair@$$CBW4ItemDefinitionIndexx@@UDefItem_t@@@std@@@4@$0A@@std@@@std@@QAE?AV?$_Tree_iterator@V?$_Tree_val@U?$_Tree_simple_types@U?$pair@$$CBW4ItemDefinitionIndexx@@UDefItem_t@@@std@@@std@@@std@@@2@XZ 1001d2e0 f i recvproxy.obj
 0001:0001c340       ?category@error_condition@std@@QBEABVerror_category@2@XZ 1001d340 f i Utilities.obj
 0001:0001c340       ?end@?$initializer_list@V?$basic_string@DU?$char_traits@D@std@@V?$allocator@D@2@@std@@@std@@QBEPBV?$basic_string@DU?$char_traits@D@std@@V?$allocator@D@2@@2@XZ 1001d340 f i Hooks.obj
 0001:0001c340       ?end@TextRange@ImGuiTextFilter@@QBEPBDXZ 1001d340 f i imgui.obj
 0001:0001c340       ?end@?$initializer_list@H@std@@QBEPBHXZ 1001d340 f i LegitBot.obj
 0001:0001c340       ?end@?$initializer_list@U?$pair@$$CBW4ItemDefinitionIndexx@@UDefItem_t@@@std@@@std@@QBEPBU?$pair@$$CBW4ItemDefinitionIndexx@@UDefItem_t@@@2@XZ 1001d340 f i recvproxy.obj
 0001:0001c340       ?category@error_code@std@@QBEABVerror_category@2@XZ 1001d340 f i Utilities.obj
 0001:0001c360       ?erase@?$_Tree@V?$_Tmap_traits@W4ItemDefinitionIndexx@@UDefItem_t@@U?$less@W4ItemDefinitionIndexx@@@std@@V?$allocator@U?$pair@$$CBW4ItemDefinitionIndexx@@UDefItem_t@@@std@@@4@$0A@@std@@@std@@QAE?AV?$_Tree_iterator@V?$_Tree_val@U?$_Tree_simple_types@U?$pair@$$CBW4ItemDefinitionIndexx@@UDefItem_t@@@std@@@std@@@std@@@2@V?$_Tree_const_iterator@V?$_Tree_val@U?$_Tree_simple_types@U?$pair@$$CBW4ItemDefinitionIndexx@@UDefItem_t@@@std@@@std@@@std@@@2@0@Z 1001d360 f i recvproxy.obj
 0001:0001c420       ?erase@?$_Tree@V?$_Tmap_traits@W4ItemDefinitionIndexx@@UDefItem_t@@U?$less@W4ItemDefinitionIndexx@@@std@@V?$allocator@U?$pair@$$CBW4ItemDefinitionIndexx@@UDefItem_t@@@std@@@4@$0A@@std@@@std@@QAE?AV?$_Tree_iterator@V?$_Tree_val@U?$_Tree_simple_types@U?$pair@$$CBW4ItemDefinitionIndexx@@UDefItem_t@@@std@@@std@@@std@@@2@V?$_Tree_const_iterator@V?$_Tree_val@U?$_Tree_simple_types@U?$pair@$$CBW4ItemDefinitionIndexx@@UDefItem_t@@@std@@@std@@@std@@@2@@Z 1001d420 f i recvproxy.obj
 0001:0001c8d0       ?insert@?$_Tree@V?$_Tmap_traits@W4ItemDefinitionIndexx@@UDefItem_t@@U?$less@W4ItemDefinitionIndexx@@@std@@V?$allocator@U?$pair@$$CBW4ItemDefinitionIndexx@@UDefItem_t@@@std@@@4@$0A@@std@@@std@@QAEXV?$initializer_list@U?$pair@$$CBW4ItemDefinitionIndexx@@UDefItem_t@@@std@@@2@@Z 1001d8d0 f i recvproxy.obj
 0001:0001c900       ?max_size@?$_Default_allocator_traits@V?$allocator@U?$_Tree_node@U?$pair@$$CBW4ItemDefinitionIndexx@@UDefItem_t@@@std@@PAX@std@@@std@@@std@@SAIABV?$allocator@U?$_Tree_node@U?$pair@$$CBW4ItemDefinitionIndexx@@UDefItem_t@@@std@@PAX@std@@@2@@Z 1001d900 f i recvproxy.obj
 0001:0001c910       ?max_size@?$_Tree@V?$_Tmap_traits@W4ItemDefinitionIndexx@@UDefItem_t@@U?$less@W4ItemDefinitionIndexx@@@std@@V?$allocator@U?$pair@$$CBW4ItemDefinitionIndexx@@UDefItem_t@@@std@@@4@$0A@@std@@@std@@QBEIXZ 1001d910 f i recvproxy.obj
 0001:0001c930       ?size@?$_Tree@V?$_Tmap_traits@W4ItemDefinitionIndexx@@UDefItem_t@@U?$less@W4ItemDefinitionIndexx@@@std@@V?$allocator@U?$pair@$$CBW4ItemDefinitionIndexx@@UDefItem_t@@@std@@@4@$0A@@std@@@std@@QBEIXZ 1001d930 f i recvproxy.obj
 0001:0001c950       ?CanHit@@YA_NPAVC_BaseEntity@@ABVVector@@PAM@Z 1001d950 f   Autowall.obj
 0001:0001cac0       ?CanWallbang@@YA_NAAH@Z    1001dac0 f   Autowall.obj
 0001:0001cda0       ?HandleBulletPenetration@@YA_NPAVCSWeaponInfo@@AAUFireBulletData@@@Z 1001dda0 f   Autowall.obj
 0001:0001d200       ?GetHitgroupDamageMult@@YAMH@Z 1001e200 f   Autowall.obj
 0001:0001d280       ?IsArmored@@YA_NPAVC_BaseEntity@@HH@Z 1001e280 f   Autowall.obj
 0001:0001d2e0       ?ScaleDamage@@YAXHPAVC_BaseEntity@@MAAM@Z 1001e2e0 f   Autowall.obj
 0001:0001d4b0       ?SimulateFireBullet@@YA_NPAVC_BaseEntity@@0PAVCBaseCombatWeapon@@AAUFireBulletData@@@Z 1001e4b0 f   Autowall.obj
 0001:0001d740       ?kjqfotoqnmgwb@@YAHXZ      1001e740 f   Autowall.obj
 0001:0001d7b0       ?nwoxnvwdkbov@@YAHXZ       1001e7b0 f   Autowall.obj
 0001:0001d820       ?akdshenopfbqd@@YAHXZ      1001e820 f   Autowall.obj
 0001:0001d890       ??$pow@MNX@@YANMN@Z        1001e890 f i Autowall.obj
 0001:0001d8c0       ??0CBaseTrace@@QAE@XZ      1001e8c0 f i Autowall.obj
 0001:0001d8f0       ??0CGameTrace@@QAE@XZ      1001e8f0 f i Autowall.obj
 0001:0001d910       ??0CTraceFilter@@QAE@XZ    1001e910 f i Autowall.obj
 0001:0001d930       ??0FireBulletData@@QAE@ABVVector@@@Z 1001e930 f i Autowall.obj
 0001:0001d980       ??0ITraceFilter@@QAE@XZ    1001e980 f i Autowall.obj
 0001:0001d9a0       ??4CTraceFilter@@QAEAAV0@$$QAV0@@Z 1001e9a0 f i Autowall.obj
 0001:0001d9d0       ??4Vector@@QAEAAV0@ABV0@@Z 1001e9d0 f i Autowall.obj
 0001:0001da10       ??DVector@@QBE?AV0@M@Z     1001ea10 f i Autowall.obj
 0001:0001da60       ??GVector@@QBE?AV0@ABV0@@Z 1001ea60 f i Autowall.obj
 0001:0001dab0       ??HVector@@QBE?AV0@ABV0@@Z 1001eab0 f i Autowall.obj
 0001:0001db00       ??_0Vector@@QAEAAV0@M@Z    1001eb00 f i Autowall.obj
 0001:0001db70       ?ArmorValue@C_BaseEntity@@QAEHXZ 1001eb70 f i Autowall.obj
 0001:0001db90       ?GetActiveWeaponHandle@C_BaseEntity@@QAEPAXXZ 1001eb90 f i Autowall.obj
 0001:0001dbb0       ?GetCSWpnData@CBaseCombatWeapon@@QAEPAVCSWeaponInfo@@XZ 1001ebb0 f i Autowall.obj
 0001:0001dbe0       ?GetEyePosition@C_BaseEntity@@QAE?AVVector@@XZ 1001ebe0 f i Autowall.obj
 0001:0001dc40       ?GetOrigin@C_BaseEntity@@QAE?AVVector@@XZ 1001ec40 f i Autowall.obj
 0001:0001dc70       ?CL_AllocElight@IVEffects@@QAEPAUdlight_t@@H@Z 1001ec70 f i ESP.obj
 0001:0001dc70       ?GetSurfaceData@IPhysicsSurfaceProps@@QAEPAUsurfacedata_t@@H@Z 1001ec70 f i Autowall.obj
 0001:0001dca0       ?GetTeamNum@C_BaseEntity@@QAEHXZ 1001eca0 f i Autowall.obj
 0001:0001dcc0       ?GetViewAngles@IVEngineClient@@QAEXAAVVector@@@Z 1001ecc0 f i Autowall.obj
 0001:0001dcf0       ?GetViewOffset@C_BaseEntity@@QAE?AVVector@@XZ 1001ecf0 f i Autowall.obj
 0001:0001dd20       ?HasHelmet@C_BaseEntity@@QAE_NXZ 1001ed20 f i Autowall.obj
 0001:0001dd40       ?Length@Vector@@QBEMXZ     1001ed40 f i Autowall.obj
 0001:0001dd60       ?ShouldHitEntity@CTraceFilter@@UAE_NPAVC_BaseEntity@@H@Z 1001ed60 f i Autowall.obj
 0001:0001dd90       ?VectorAdd@@YAXABVVector@@0AAV1@@Z 1001ed90 f i Autowall.obj
 0001:0001dde0       ?VectorLength@@YAMABVVector@@@Z 1001ede0 f i Autowall.obj
 0001:0001de30       ?VectorMultiply@@YAXABVVector@@MAAV1@@Z 1001ee30 f i Autowall.obj
 0001:0001de80       ?VectorNormalize@@YAMAAVVector@@@Z 1001ee80 f i Autowall.obj
 0001:0001def0       ?VectorSubtract@@YAXABVVector@@0AAV1@@Z 1001eef0 f i Autowall.obj
 0001:0001df40       ?m_bHasHeavyArmor@C_BaseEntity@@QAE_NXZ 1001ef40 f i Autowall.obj
 0001:0001df60       ?sqrt@@YAMM@Z              1001ef60 f i Autowall.obj
 0001:0001df80       _sqrtf                     1001ef80 f i Autowall.obj
 0001:0001dfb0       ?InitKeyValues@@YAXPAVKeyValues@@PBD@Z 1001efb0 f   Chams.obj
 0001:0001e060       ?LoadFromBuffer@@YAXPAVKeyValues@@PBD1@Z 1001f060 f   Chams.obj
 0001:0001e0f0       ?ForceMaterial@@YAXVColor@@PAVIMaterial@@_N2@Z 1001f0f0 f   Chams.obj
 0001:0001e220       ?CreateMaterial@@YAPAVIMaterial@@_N00@Z 1001f220 f   Chams.obj
 0001:0001e380       ?mtptkwdfwsj@@YAHXZ        1001f380 f   Chams.obj
 0001:0001e3f0       ?fpkevrtlvpf@@YAHXZ        1001f3f0 f   Chams.obj
 0001:0001e460       ?umswhvovk@@YAHXZ          1001f460 f   Chams.obj
 0001:0001e4d0       ?CreateMaterial@CMaterialSystem@@QAEPAVIMaterial@@PBDPAVKeyValues@@@Z 1001f4d0 f i Chams.obj
 0001:0001e500       ?ForcedMaterialOverride@IVModelRender@@QAEXPAVIMaterial@@W4OverrideType_t@@H@Z 1001f500 f i Chams.obj
 0001:0001e530       ?IncrementReferenceCount@IMaterial@@QAEXXZ 1001f530 f i Chams.obj
 0001:0001e550       ?SetBlend@CVRenderView@@QAEXM@Z 1001f550 f i Chams.obj
 0001:0001e580       ?SetColorModulation@CVRenderView@@QAEXPBM@Z 1001f580 f i Chams.obj
 0001:0001e5b0       ?a@Color@@QBEHXZ           1001f5b0 f i Chams.obj
 0001:0001e5d0       ?b@Color@@QBEHXZ           1001f5d0 f i Chams.obj
 0001:0001e5f0       ?g@Color@@QBEHXZ           1001f5f0 f i Chams.obj
 0001:0001e610       ?r@Color@@QBEHXZ           1001f610 f i Chams.obj
 0001:0001e630       ___local_stdio_printf_options 1001f630 f i Chams.obj
 0001:0001e640       __vsprintf_s_l             1001f640 f i Chams.obj
 0001:0001e690       _sprintf_s                 1001f690 f i Chams.obj
 0001:0001e6d0       ?SetupValue@CConfig@@AAEXAAHHV?$basic_string@DU?$char_traits@D@std@@V?$allocator@D@2@@std@@1@Z 1001f6d0 f   Configuration.obj
 0001:0001e7c0       ?SetupValue@CConfig@@AAEXAA_N_NV?$basic_string@DU?$char_traits@D@std@@V?$allocator@D@2@@std@@2@Z 1001f7c0 f   Configuration.obj
 0001:0001e8b0       ?SetupValue@CConfig@@AAEXAAMMV?$basic_string@DU?$char_traits@D@std@@V?$allocator@D@2@@std@@1@Z 1001f8b0 f   Configuration.obj
 0001:0001e9a0       ?Setup@CConfig@@QAEXXZ     1001f9a0 f   Configuration.obj
 0001:00021470       ?Save@CConfig@@QAEXXZ      10022470 f   Configuration.obj
 0001:00021d10       ?Load@CConfig@@QAEXXZ      10022d10 f   Configuration.obj
 0001:000225d0       ?srucsssfblxy@@YAHXZ       100235d0 f   Configuration.obj
 0001:00022640       ?ydwjueiinozuk@@YAHXZ      10023640 f   Configuration.obj
 0001:000226b0       ??$?0$0A@$00$01$02$03@?$XorString@$04$01@XorCompileTime@@QAE@PBDU?$integer_sequence@I$0A@$00$01$02$03@std@@@Z 100236b0 f i Configuration.obj
 0001:00022770       ??$?0$0A@$00$01$02$03@?$XorString@$04$02@XorCompileTime@@QAE@PBDU?$integer_sequence@I$0A@$00$01$02$03@std@@@Z 10023770 f i Configuration.obj
 0001:00022830       ??$?0$0A@$00$01$02$03@?$XorString@$04$03@XorCompileTime@@QAE@PBDU?$integer_sequence@I$0A@$00$01$02$03@std@@@Z 10023830 f i Configuration.obj
 0001:000228f0       ??$?0$0A@$00$01$02$03@?$XorString@$04$04@XorCompileTime@@QAE@PBDU?$integer_sequence@I$0A@$00$01$02$03@std@@@Z 100238f0 f i Configuration.obj
 0001:000229b0       ??$?0$0A@$00$01$02$03@?$XorString@$04$05@XorCompileTime@@QAE@PBDU?$integer_sequence@I$0A@$00$01$02$03@std@@@Z 100239b0 f i Configuration.obj
 0001:00022a70       ??$?0$0A@$00$01$02$03@?$XorString@$04$06@XorCompileTime@@QAE@PBDU?$integer_sequence@I$0A@$00$01$02$03@std@@@Z 10023a70 f i Configuration.obj
 0001:00022b30       ??$?0$0A@$00$01$02$03@?$XorString@$04$0A@@XorCompileTime@@QAE@PBDU?$integer_sequence@I$0A@$00$01$02$03@std@@@Z 10023b30 f i Configuration.obj
 0001:00022bf0       ??$?0AAU?$equal_to@PAD@std@@M@?$_Compressed_pair@U?$equal_to@PAD@std@@M$00@std@@QAE@U_One_then_variadic_args_t@1@AAU?$equal_to@PAD@1@$$QAM@Z 10023bf0 f i Hooks.obj
 0001:00022bf0       ??$?0AAU?$equal_to@V?$basic_string@DU?$char_traits@D@std@@V?$allocator@D@2@@std@@@std@@M@?$_Compressed_pair@U?$equal_to@V?$basic_string@DU?$char_traits@D@std@@V?$allocator@D@2@@std@@@std@@M$00@std@@QAE@U_One_then_variadic_args_t@1@AAU?$equal_to@V?$basic_string@DU?$char_traits@D@std@@V?$allocator@D@2@@std@@@1@$$QAM@Z 10023bf0 f i Configuration.obj
 0001:00022c20       ??$?0AAU?$hash@V?$basic_string@DU?$char_traits@D@std@@V?$allocator@D@2@@std@@@std@@U_One_then_variadic_args_t@1@AAU?$equal_to@V?$basic_string@DU?$char_traits@D@std@@V?$allocator@D@2@@std@@@1@M@?$_Compressed_pair@U?$hash@V?$basic_string@DU?$char_traits@D@std@@V?$allocator@D@2@@std@@@std@@V?$_Compressed_pair@U?$equal_to@V?$basic_string@DU?$char_traits@D@std@@V?$allocator@D@2@@std@@@std@@M$00@2@$00@std@@QAE@U_One_then_variadic_args_t@1@AAU?$hash@V?$basic_string@DU?$char_traits@D@std@@V?$allocator@D@2@@std@@@1@$$QAU21@AAU?$equal_to@V?$basic_string@DU?$char_traits@D@std@@V?$allocator@D@2@@std@@@1@$$QAM@Z 10023c20 f i Configuration.obj
 0001:00022c20       ??$?0AAU?$hash@PAD@std@@U_One_then_variadic_args_t@1@AAU?$equal_to@PAD@1@M@?$_Compressed_pair@U?$hash@PAD@std@@V?$_Compressed_pair@U?$equal_to@PAD@std@@M$00@2@$00@std@@QAE@U_One_then_variadic_args_t@1@AAU?$hash@PAD@1@$$QAU21@AAU?$equal_to@PAD@1@$$QAM@Z 10023c20 f i Hooks.obj
 0001:00022c70       ??$?0ABV?$allocator@U?$pair@$$CBV?$basic_string@DU?$char_traits@D@std@@V?$allocator@D@2@@std@@UskinInfo@@@std@@@std@@$$V@?$_Compressed_pair@V?$allocator@U?$_List_node@U?$pair@$$CBV?$basic_string@DU?$char_traits@D@std@@V?$allocator@D@2@@std@@UskinInfo@@@std@@PAX@std@@@std@@V?$_List_val@U?$_List_simple_types@U?$pair@$$CBV?$basic_string@DU?$char_traits@D@std@@V?$allocator@D@2@@std@@UskinInfo@@@std@@@std@@@2@$00@std@@QAE@U_One_then_variadic_args_t@1@ABV?$allocator@U?$pair@$$CBV?$basic_string@DU?$char_traits@D@std@@V?$allocator@D@2@@std@@UskinInfo@@@std@@@1@@Z 10023c70 f i Configuration.obj
 0001:00022c70       ??$?0ABV?$allocator@U?$pair@$$CBV?$basic_string@DU?$char_traits@D@std@@V?$allocator@D@2@@std@@V12@@std@@@std@@$$V@?$_Compressed_pair@V?$allocator@U?$_List_node@U?$pair@$$CBV?$basic_string@DU?$char_traits@D@std@@V?$allocator@D@2@@std@@V12@@std@@PAX@std@@@std@@V?$_List_val@U?$_List_simple_types@U?$pair@$$CBV?$basic_string@DU?$char_traits@D@std@@V?$allocator@D@2@@std@@V12@@std@@@std@@@2@$00@std@@QAE@U_One_then_variadic_args_t@1@ABV?$allocator@U?$pair@$$CBV?$basic_string@DU?$char_traits@D@std@@V?$allocator@D@2@@std@@V12@@std@@@1@@Z 10023c70 f i Configuration.obj
 0001:00022c70       ??$?0ABV?$allocator@U?$pair@QADPAD@std@@@std@@$$V@?$_Compressed_pair@V?$allocator@U?$_List_node@U?$pair@QADPAD@std@@PAX@std@@@std@@V?$_List_val@U?$_List_simple_types@U?$pair@QADPAD@std@@@std@@@2@$00@std@@QAE@U_One_then_variadic_args_t@1@ABV?$allocator@U?$pair@QADPAD@std@@@1@@Z 10023c70 f i Hooks.obj
 0001:00022c70       ??$?0ABV?$allocator@U?$pair@$$CBV?$basic_string@DU?$char_traits@D@std@@V?$allocator@D@2@@std@@V?$set@V?$basic_string@DU?$char_traits@D@std@@V?$allocator@D@2@@std@@U?$less@V?$basic_string@DU?$char_traits@D@std@@V?$allocator@D@2@@std@@@2@V?$allocator@V?$basic_string@DU?$char_traits@D@std@@V?$allocator@D@2@@std@@@2@@2@@std@@@std@@$$V@?$_Compressed_pair@V?$allocator@U?$_List_node@U?$pair@$$CBV?$basic_string@DU?$char_traits@D@std@@V?$allocator@D@2@@std@@V?$set@V?$basic_string@DU?$char_traits@D@std@@V?$allocator@D@2@@std@@U?$less@V?$basic_string@DU?$char_traits@D@std@@V?$allocator@D@2@@std@@@2@V?$allocator@V?$basic_string@DU?$char_traits@D@std@@V?$allocator@D@2@@std@@@2@@2@@std@@PAX@std@@@std@@V?$_List_val@U?$_List_simple_types@U?$pair@$$CBV?$basic_string@DU?$char_traits@D@std@@V?$allocator@D@2@@std@@V?$set@V?$basic_string@DU?$char_traits@D@std@@V?$allocator@D@2@@std@@U?$less@V?$basic_string@DU?$char_traits@D@std@@V?$allocator@D@2@@std@@@2@V?$allocator@V?$basic_string@DU?$char_traits@D@std@@V?$allocator@D@2@@std@@@2@@2@@std@@@std@@@2@$00@std@@QAE@U_One_then_variadic_args_t@1@ABV?$allocator@U?$pair@$$CBV?$basic_string@DU?$char_traits@D@std@@V?$allocator@D@2@@std@@V?$set@V?$basic_string@DU?$char_traits@D@std@@V?$allocator@D@2@@std@@U?$less@V?$basic_string@DU?$char_traits@D@std@@V?$allocator@D@2@@std@@@2@V?$allocator@V?$basic_string@DU?$char_traits@D@std@@V?$allocator@D@2@@std@@@2@@2@@std@@@1@@Z 10023c70 f i Configuration.obj
 0001:00022ca0       ??$?0ABV?$allocator@U?$pair@$$CBV?$basic_string@DU?$char_traits@D@std@@V?$allocator@D@2@@std@@UskinInfo@@@std@@@std@@X@?$_List_alloc@U?$_List_base_types@U?$pair@$$CBV?$basic_string@DU?$char_traits@D@std@@V?$allocator@D@2@@std@@UskinInfo@@@std@@V?$allocator@U?$pair@$$CBV?$basic_string@DU?$char_traits@D@std@@V?$allocator@D@2@@std@@UskinInfo@@@std@@@2@@std@@@std@@QAE@ABV?$allocator@U?$pair@$$CBV?$basic_string@DU?$char_traits@D@std@@V?$allocator@D@2@@std@@UskinInfo@@@std@@@1@@Z 10023ca0 f i Configuration.obj
 0001:00022cf0       ??$?0ABV?$allocator@U?$pair@$$CBV?$basic_string@DU?$char_traits@D@std@@V?$allocator@D@2@@std@@UskinInfo@@@std@@@std@@X@?$_List_buy@U?$pair@$$CBV?$basic_string@DU?$char_traits@D@std@@V?$allocator@D@2@@std@@UskinInfo@@@std@@V?$allocator@U?$pair@$$CBV?$basic_string@DU?$char_traits@D@std@@V?$allocator@D@2@@std@@UskinInfo@@@std@@@2@@std@@QAE@ABV?$allocator@U?$pair@$$CBV?$basic_string@DU?$char_traits@D@std@@V?$allocator@D@2@@std@@UskinInfo@@@std@@@1@@Z 10023cf0 f i Configuration.obj
 0001:00022d20       ??$?0ABV?$allocator@U?$pair@$$CBV?$basic_string@DU?$char_traits@D@std@@V?$allocator@D@2@@std@@V12@@std@@@std@@X@?$_List_alloc@U?$_List_base_types@U?$pair@$$CBV?$basic_string@DU?$char_traits@D@std@@V?$allocator@D@2@@std@@V12@@std@@V?$allocator@U?$pair@$$CBV?$basic_string@DU?$char_traits@D@std@@V?$allocator@D@2@@std@@V12@@std@@@2@@std@@@std@@QAE@ABV?$allocator@U?$pair@$$CBV?$basic_string@DU?$char_traits@D@std@@V?$allocator@D@2@@std@@V12@@std@@@1@@Z 10023d20 f i Configuration.obj
 0001:00022d70       ??$?0ABV?$allocator@U?$pair@$$CBV?$basic_string@DU?$char_traits@D@std@@V?$allocator@D@2@@std@@V12@@std@@@std@@X@?$_List_buy@U?$pair@$$CBV?$basic_string@DU?$char_traits@D@std@@V?$allocator@D@2@@std@@V12@@std@@V?$allocator@U?$pair@$$CBV?$basic_string@DU?$char_traits@D@std@@V?$allocator@D@2@@std@@V12@@std@@@2@@std@@QAE@ABV?$allocator@U?$pair@$$CBV?$basic_string@DU?$char_traits@D@std@@V?$allocator@D@2@@std@@V12@@std@@@1@@Z 10023d70 f i Configuration.obj
 0001:00022da0       ??$?0ABV?$allocator@U?$pair@$$CBV?$basic_string@DU?$char_traits@D@std@@V?$allocator@D@2@@std@@V?$set@V?$basic_string@DU?$char_traits@D@std@@V?$allocator@D@2@@std@@U?$less@V?$basic_string@DU?$char_traits@D@std@@V?$allocator@D@2@@std@@@2@V?$allocator@V?$basic_string@DU?$char_traits@D@std@@V?$allocator@D@2@@std@@@2@@2@@std@@@std@@X@?$_List_alloc@U?$_List_base_types@U?$pair@$$CBV?$basic_string@DU?$char_traits@D@std@@V?$allocator@D@2@@std@@V?$set@V?$basic_string@DU?$char_traits@D@std@@V?$allocator@D@2@@std@@U?$less@V?$basic_string@DU?$char_traits@D@std@@V?$allocator@D@2@@std@@@2@V?$allocator@V?$basic_string@DU?$char_traits@D@std@@V?$allocator@D@2@@std@@@2@@2@@std@@V?$allocator@U?$pair@$$CBV?$basic_string@DU?$char_traits@D@std@@V?$allocator@D@2@@std@@V?$set@V?$basic_string@DU?$char_traits@D@std@@V?$allocator@D@2@@std@@U?$less@V?$basic_string@DU?$char_traits@D@std@@V?$allocator@D@2@@std@@@2@V?$allocator@V?$basic_string@DU?$char_traits@D@std@@V?$allocator@D@2@@std@@@2@@2@@std@@@2@@std@@@std@@QAE@ABV?$allocator@U?$pair@$$CBV?$basic_string@DU?$char_traits@D@std@@V?$allocator@D@2@@std@@V?$set@V?$basic_string@DU?$char_traits@D@std@@V?$allocator@D@2@@std@@U?$less@V?$basic_string@DU?$char_traits@D@std@@V?$allocator@D@2@@std@@@2@V?$allocator@V?$basic_string@DU?$char_traits@D@std@@V?$allocator@D@2@@std@@@2@@2@@std@@@1@@Z 10023da0 f i Configuration.obj
 0001:00022df0       ??$?0ABV?$allocator@U?$pair@$$CBV?$basic_string@DU?$char_traits@D@std@@V?$allocator@D@2@@std@@V?$set@V?$basic_string@DU?$char_traits@D@std@@V?$allocator@D@2@@std@@U?$less@V?$basic_string@DU?$char_traits@D@std@@V?$allocator@D@2@@std@@@2@V?$allocator@V?$basic_string@DU?$char_traits@D@std@@V?$allocator@D@2@@std@@@2@@2@@std@@@std@@X@?$_List_buy@U?$pair@$$CBV?$basic_string@DU?$char_traits@D@std@@V?$allocator@D@2@@std@@V?$set@V?$basic_string@DU?$char_traits@D@std@@V?$allocator@D@2@@std@@U?$less@V?$basic_string@DU?$char_traits@D@std@@V?$allocator@D@2@@std@@@2@V?$allocator@V?$basic_string@DU?$char_traits@D@std@@V?$allocator@D@2@@std@@@2@@2@@std@@V?$allocator@U?$pair@$$CBV?$basic_string@DU?$char_traits@D@std@@V?$allocator@D@2@@std@@V?$set@V?$basic_string@DU?$char_traits@D@std@@V?$allocator@D@2@@std@@U?$less@V?$basic_string@DU?$char_traits@D@std@@V?$allocator@D@2@@std@@@2@V?$allocator@V?$basic_string@DU?$char_traits@D@std@@V?$allocator@D@2@@std@@@2@@2@@std@@@2@@std@@QAE@ABV?$allocator@U?$pair@$$CBV?$basic_string@DU?$char_traits@D@std@@V?$allocator@D@2@@std@@V?$set@V?$basic_string@DU?$char_traits@D@std@@V?$allocator@D@2@@std@@U?$less@V?$basic_string@DU?$char_traits@D@std@@V?$allocator@D@2@@std@@@2@V?$allocator@V?$basic_string@DU?$char_traits@D@std@@V?$allocator@D@2@@std@@@2@@2@@std@@@1@@Z 10023df0 f i Configuration.obj
 0001:00022e20       ??$?0PADX@?$basic_string@DU?$char_traits@D@std@@V?$allocator@D@2@@std@@QAE@PAD0ABV?$allocator@D@1@@Z 10023e20 f i Configuration.obj
 0001:00022eb0       ??$?0U?$pair@$$CBV?$basic_string@DU?$char_traits@D@std@@V?$allocator@D@2@@std@@UskinInfo@@@std@@@?$allocator@U?$_List_node@U?$pair@$$CBV?$basic_string@DU?$char_traits@D@std@@V?$allocator@D@2@@std@@UskinInfo@@@std@@PAX@std@@@std@@QAE@ABV?$allocator@U?$pair@$$CBV?$basic_string@DU?$char_traits@D@std@@V?$allocator@D@2@@std@@UskinInfo@@@std@@@1@@Z 10023eb0 f i Configuration.obj
 0001:00022eb0       ??$?0U_Exact_args_t@std@@$0A@@?$tuple@$$V@std@@QAE@U_Exact_args_t@1@@Z 10023eb0 f i Hooks.obj
 0001:00022eb0       ??$?0U?$pair@QADPAD@std@@@?$allocator@U?$_List_node@U?$pair@QADPAD@std@@PAX@std@@@std@@QAE@ABV?$allocator@U?$pair@QADPAD@std@@@1@@Z 10023eb0 f i Hooks.obj
 0001:00022eb0       ??0?$tuple@$$V@std@@QAE@ABV01@@Z 10023eb0 f i Hooks.obj
 0001:00022eb0       ??$?0U?$pair@$$CBV?$basic_string@DU?$char_traits@D@std@@V?$allocator@D@2@@std@@V12@@std@@@?$allocator@V?$_List_unchecked_iterator@V?$_List_val@U?$_List_simple_types@U?$pair@$$CBV?$basic_string@DU?$char_traits@D@std@@V?$allocator@D@2@@std@@V12@@std@@@std@@@std@@@std@@@std@@QAE@ABV?$allocator@U?$pair@$$CBV?$basic_string@DU?$char_traits@D@std@@V?$allocator@D@2@@std@@V12@@std@@@1@@Z 10023eb0 f i Configuration.obj
 0001:00022eb0       ??$?0U?$pair@$$CBV?$basic_string@DU?$char_traits@D@std@@V?$allocator@D@2@@std@@V12@@std@@@?$allocator@U?$_List_node@U?$pair@$$CBV?$basic_string@DU?$char_traits@D@std@@V?$allocator@D@2@@std@@V12@@std@@PAX@std@@@std@@QAE@ABV?$allocator@U?$pair@$$CBV?$basic_string@DU?$char_traits@D@std@@V?$allocator@D@2@@std@@V12@@std@@@1@@Z 10023eb0 f i Configuration.obj
 0001:00022eb0       ??$?0U?$pair@$$CBV?$basic_string@DU?$char_traits@D@std@@V?$allocator@D@2@@std@@V?$set@V?$basic_string@DU?$char_traits@D@std@@V?$allocator@D@2@@std@@U?$less@V?$basic_string@DU?$char_traits@D@std@@V?$allocator@D@2@@std@@@2@V?$allocator@V?$basic_string@DU?$char_traits@D@std@@V?$allocator@D@2@@std@@@2@@2@@std@@@?$allocator@V?$_List_unchecked_iterator@V?$_List_val@U?$_List_simple_types@U?$pair@$$CBV?$basic_string@DU?$char_traits@D@std@@V?$allocator@D@2@@std@@V?$set@V?$basic_string@DU?$char_traits@D@std@@V?$allocator@D@2@@std@@U?$less@V?$basic_string@DU?$char_traits@D@std@@V?$allocator@D@2@@std@@@2@V?$allocator@V?$basic_string@DU?$char_traits@D@std@@V?$allocator@D@2@@std@@@2@@2@@std@@@std@@@std@@@std@@@std@@QAE@ABV?$allocator@U?$pair@$$CBV?$basic_string@DU?$char_traits@D@std@@V?$allocator@D@2@@std@@V?$set@V?$basic_string@DU?$char_traits@D@std@@V?$allocator@D@2@@std@@U?$less@V?$basic_string@DU?$char_traits@D@std@@V?$allocator@D@2@@std@@@2@V?$allocator@V?$basic_string@DU?$char_traits@D@std@@V?$allocator@D@2@@std@@@2@@2@@std@@@1@@Z 10023eb0 f i Configuration.obj
 0001:00022eb0       ??4ITraceFilter@@QAEAAV0@$$QAV0@@Z 10023eb0 f i Autowall.obj
 0001:00022eb0       ??$?0V?$shared_ptr@VNode@valve_parser@@@std@@@?$allocator@U_Container_proxy@std@@@std@@QAE@ABV?$allocator@V?$shared_ptr@VNode@valve_parser@@@std@@@1@@Z 10023eb0 f i Hooks.obj
 0001:00022eb0       ??$?0U?$integral_constant@_N$00@std@@@_Unused_parameter@std@@QAE@$$QAU?$integral_constant@_N$00@1@@Z 10023eb0 f i Parser.obj
 0001:00022eb0       ??$?0U?$pair@$$CBV?$basic_string@DU?$char_traits@D@std@@V?$allocator@D@2@@std@@UskinInfo@@@std@@@?$allocator@V?$_List_unchecked_iterator@V?$_List_val@U?$_List_simple_types@U?$pair@$$CBV?$basic_string@DU?$char_traits@D@std@@V?$allocator@D@2@@std@@UskinInfo@@@std@@@std@@@std@@@std@@@std@@QAE@ABV?$allocator@U?$pair@$$CBV?$basic_string@DU?$char_traits@D@std@@V?$allocator@D@2@@std@@UskinInfo@@@std@@@1@@Z 10023eb0 f i Configuration.obj
 0001:00022eb0       ??$?0V?$shared_ptr@VNode@valve_parser@@@std@@@?$allocator@PAV?$shared_ptr@VNode@valve_parser@@@std@@@std@@QAE@ABV?$allocator@V?$shared_ptr@VNode@valve_parser@@@std@@@1@@Z 10023eb0 f i Hooks.obj
 0001:00022eb0       ??$?0U?$pair@QADPAD@std@@@?$allocator@V?$_List_unchecked_iterator@V?$_List_val@U?$_List_simple_types@U?$pair@QADPAD@std@@@std@@@std@@@std@@@std@@QAE@ABV?$allocator@U?$pair@QADPAD@std@@@1@@Z 10023eb0 f i Hooks.obj
 0001:00022eb0       ??$?0U?$pair@$$CBV?$basic_string@DU?$char_traits@D@std@@V?$allocator@D@2@@std@@V?$set@V?$basic_string@DU?$char_traits@D@std@@V?$allocator@D@2@@std@@U?$less@V?$basic_string@DU?$char_traits@D@std@@V?$allocator@D@2@@std@@@2@V?$allocator@V?$basic_string@DU?$char_traits@D@std@@V?$allocator@D@2@@std@@@2@@2@@std@@@?$allocator@U?$_List_node@U?$pair@$$CBV?$basic_string@DU?$char_traits@D@std@@V?$allocator@D@2@@std@@V?$set@V?$basic_string@DU?$char_traits@D@std@@V?$allocator@D@2@@std@@U?$less@V?$basic_string@DU?$char_traits@D@std@@V?$allocator@D@2@@std@@@2@V?$allocator@V?$basic_string@DU?$char_traits@D@std@@V?$allocator@D@2@@std@@@2@@2@@std@@PAX@std@@@std@@QAE@ABV?$allocator@U?$pair@$$CBV?$basic_string@DU?$char_traits@D@std@@V?$allocator@D@2@@std@@V?$set@V?$basic_string@DU?$char_traits@D@std@@V?$allocator@D@2@@std@@U?$less@V?$basic_string@DU?$char_traits@D@std@@V?$allocator@D@2@@std@@@2@V?$allocator@V?$basic_string@DU?$char_traits@D@std@@V?$allocator@D@2@@std@@@2@@2@@std@@@1@@Z 10023eb0 f i Configuration.obj
 0001:00022ec0       ??$?0ABV?$allocator@D@std@@$$V@?$_Compressed_pair@V?$allocator@D@std@@V?$_String_val@U?$_Simple_types@D@std@@@2@$00@std@@QAE@U_One_then_variadic_args_t@1@ABV?$allocator@D@1@@Z 10023ec0 f i Parser.obj
 0001:00022ec0       ??$?0V?$allocator@D@std@@$$V@?$_Compressed_pair@V?$allocator@D@std@@V?$_String_val@U?$_Simple_types@D@std@@@2@$00@std@@QAE@U_One_then_variadic_args_t@1@$$QAV?$allocator@D@1@@Z 10023ec0 f i Configuration.obj
 0001:00022ef0       ??$?0V?$allocator@D@std@@X@?$_String_alloc@U?$_String_base_types@DV?$allocator@D@std@@@std@@@std@@QAE@$$QAV?$allocator@D@1@@Z 10023ef0 f i Configuration.obj
 0001:00022ef0       ??$?0ABV?$allocator@D@std@@X@?$_String_alloc@U?$_String_base_types@DV?$allocator@D@std@@@std@@@std@@QAE@ABV?$allocator@D@1@@Z 10023ef0 f i Parser.obj
 0001:00022f20       ??$?HDU?$char_traits@D@std@@V?$allocator@D@1@@std@@YA?AV?$basic_string@DU?$char_traits@D@std@@V?$allocator@D@2@@0@$$QAV10@0@Z 10023f20 f i Configuration.obj
 0001:00022fd0       ??$?HDU?$char_traits@D@std@@V?$allocator@D@1@@std@@YA?AV?$basic_string@DU?$char_traits@D@std@@V?$allocator@D@2@@0@$$QAV10@QBD@Z 10023fd0 f i Configuration.obj
 0001:00023010       ??$_Destroy_range1@V?$allocator@V?$_List_unchecked_iterator@V?$_List_val@U?$_List_simple_types@U?$pair@$$CBV?$basic_string@DU?$char_traits@D@std@@V?$allocator@D@2@@std@@V12@@std@@@std@@@std@@@std@@@std@@@std@@YAXPAV?$_List_unchecked_iterator@V?$_List_val@U?$_List_simple_types@U?$pair@$$CBV?$basic_string@DU?$char_traits@D@std@@V?$allocator@D@2@@std@@V12@@std@@@std@@@std@@@0@0AAV?$allocator@V?$_List_unchecked_iterator@V?$_List_val@U?$_List_simple_types@U?$pair@$$CBV?$basic_string@DU?$char_traits@D@std@@V?$allocator@D@2@@std@@V12@@std@@@std@@@std@@@std@@@0@U?$integral_constant@_N$00@0@@Z 10024010 f i Configuration.obj
 0001:00023010       ??$_Destroy_range1@V?$allocator@PAV?$ConfigValue@_N@@@std@@@std@@YAXPAPAV?$ConfigValue@_N@@0AAV?$allocator@PAV?$ConfigValue@_N@@@0@U?$integral_constant@_N$00@0@@Z 10024010 f i Configuration.obj
 0001:00023010       ??$_Destroy_range1@V?$allocator@PAV?$shared_ptr@VNode@valve_parser@@@std@@@std@@@std@@YAXPAPAV?$shared_ptr@VNode@valve_parser@@@0@0AAV?$allocator@PAV?$shared_ptr@VNode@valve_parser@@@std@@@0@U?$integral_constant@_N$00@0@@Z 10024010 f i Hooks.obj
 0001:00023010       ??$__vcrt_va_start_verify_argument_type@PBD@@YAXXZ 10024010 f i ESP.obj
 0001:00023010       ??$_Destroy_range1@V?$allocator@V?$_List_unchecked_iterator@V?$_List_val@U?$_List_simple_types@U?$pair@$$CBV?$basic_string@DU?$char_traits@D@std@@V?$allocator@D@2@@std@@V?$set@V?$basic_string@DU?$char_traits@D@std@@V?$allocator@D@2@@std@@U?$less@V?$basic_string@DU?$char_traits@D@std@@V?$allocator@D@2@@std@@@2@V?$allocator@V?$basic_string@DU?$char_traits@D@std@@V?$allocator@D@2@@std@@@2@@2@@std@@@std@@@std@@@std@@@std@@@std@@YAXPAV?$_List_unchecked_iterator@V?$_List_val@U?$_List_simple_types@U?$pair@$$CBV?$basic_string@DU?$char_traits@D@std@@V?$allocator@D@2@@std@@V?$set@V?$basic_string@DU?$char_traits@D@std@@V?$allocator@D@2@@std@@U?$less@V?$basic_string@DU?$char_traits@D@std@@V?$allocator@D@2@@std@@@2@V?$allocator@V?$basic_string@DU?$char_traits@D@std@@V?$allocator@D@2@@std@@@2@@2@@std@@@std@@@std@@@0@0AAV?$allocator@V?$_List_unchecked_iterator@V?$_List_val@U?$_List_simple_types@U?$pair@$$CBV?$basic_string@DU?$char_traits@D@std@@V?$allocator@D@2@@std@@V?$set@V?$basic_string@DU?$char_traits@D@std@@V?$allocator@D@2@@std@@U?$less@V?$basic_string@DU?$char_traits@D@std@@V?$allocator@D@2@@std@@@2@V?$allocator@V?$basic_string@DU?$char_traits@D@std@@V?$allocator@D@2@@std@@@2@@2@@std@@@std@@@std@@@std@@@0@U?$integral_constant@_N$00@0@@Z 10024010 f i Configuration.obj
 0001:00023010       ??$destroy@PAU?$_List_node@U?$pair@$$CBV?$basic_string@DU?$char_traits@D@std@@V?$allocator@D@2@@std@@V12@@std@@PAX@std@@@?$_Default_allocator_traits@V?$allocator@U?$_List_node@U?$pair@$$CBV?$basic_string@DU?$char_traits@D@std@@V?$allocator@D@2@@std@@V12@@std@@PAX@std@@@std@@@std@@SAXAAV?$allocator@U?$_List_node@U?$pair@$$CBV?$basic_string@DU?$char_traits@D@std@@V?$allocator@D@2@@std@@V12@@std@@PAX@std@@@1@QAPAU?$_List_node@U?$pair@$$CBV?$basic_string@DU?$char_traits@D@std@@V?$allocator@D@2@@std@@V12@@std@@PAX@1@@Z 10024010 f i Configuration.obj
 0001:00023010       ??3@YAXPAXUImPlacementNewDummy@@0@Z 10024010 f i imgui.obj
 0001:00023010       ??$destroy@PAV?$ConfigValue@M@@@?$_Default_allocator_traits@V?$allocator@PAV?$ConfigValue@M@@@std@@@std@@SAXAAV?$allocator@PAV?$ConfigValue@M@@@1@QAPAV?$ConfigValue@M@@@Z 10024010 f i Configuration.obj
 0001:00023010       ??$destroy@U?$pair@QADPAD@std@@@?$_Default_allocator_traits@V?$allocator@U?$_List_node@U?$pair@QADPAD@std@@PAX@std@@@std@@@std@@SAXAAV?$allocator@U?$_List_node@U?$pair@QADPAD@std@@PAX@std@@@1@QAU?$pair@QADPAD@1@@Z 10024010 f i Hooks.obj
 0001:00023010       ??$destroy@PAV?$shared_ptr@VNode@valve_parser@@@std@@@?$_Default_allocator_traits@V?$allocator@PAV?$shared_ptr@VNode@valve_parser@@@std@@@std@@@std@@SAXAAV?$allocator@PAV?$shared_ptr@VNode@valve_parser@@@std@@@1@QAPAV?$shared_ptr@VNode@valve_parser@@@1@@Z 10024010 f i Hooks.obj
 0001:00023010       ??$destroy@H@?$_Default_allocator_traits@V?$allocator@H@std@@@std@@SAXAAV?$allocator@H@1@QAH@Z 10024010 f i RageBot.obj
 0001:00023010       ??$destroy@PAV?$ConfigValue@_N@@@?$_Default_allocator_traits@V?$allocator@PAV?$ConfigValue@_N@@@std@@@std@@SAXAAV?$allocator@PAV?$ConfigValue@_N@@@1@QAPAV?$ConfigValue@_N@@@Z 10024010 f i Configuration.obj
 0001:00023010       ??$__vcrt_va_start_verify_argument_type@QBD@@YAXXZ 10024010 f i imguicolorpicker.obj
 0001:00023010       ??$destroy@PAV?$ConfigValue@H@@@?$_Default_allocator_traits@V?$allocator@PAV?$ConfigValue@H@@@std@@@std@@SAXAAV?$allocator@PAV?$ConfigValue@H@@@1@QAPAV?$ConfigValue@H@@@Z 10024010 f i Configuration.obj
 0001:00023010       ??$destroy@PAU?$_Tree_node@V?$basic_string@DU?$char_traits@D@std@@V?$allocator@D@2@@std@@PAX@std@@@?$_Default_allocator_traits@V?$allocator@U?$_Tree_node@V?$basic_string@DU?$char_traits@D@std@@V?$allocator@D@2@@std@@PAX@std@@@std@@@std@@SAXAAV?$allocator@U?$_Tree_node@V?$basic_string@DU?$char_traits@D@std@@V?$allocator@D@2@@std@@PAX@std@@@1@QAPAU?$_Tree_node@V?$basic_string@DU?$char_traits@D@std@@V?$allocator@D@2@@std@@PAX@1@@Z 10024010 f i Configuration.obj
 0001:00023010       ??$_Destroy_range1@V?$allocator@PAURecvTable@@@std@@@std@@YAXPAPAURecvTable@@0AAV?$allocator@PAURecvTable@@@0@U?$integral_constant@_N$00@0@@Z 10024010 f i NetVarManager.obj
 0001:00023010       ??$_Destroy_range1@V?$allocator@V?$_List_unchecked_iterator@V?$_List_val@U?$_List_simple_types@U?$pair@$$CBV?$basic_string@DU?$char_traits@D@std@@V?$allocator@D@2@@std@@UskinInfo@@@std@@@std@@@std@@@std@@@std@@@std@@YAXPAV?$_List_unchecked_iterator@V?$_List_val@U?$_List_simple_types@U?$pair@$$CBV?$basic_string@DU?$char_traits@D@std@@V?$allocator@D@2@@std@@UskinInfo@@@std@@@std@@@std@@@0@0AAV?$allocator@V?$_List_unchecked_iterator@V?$_List_val@U?$_List_simple_types@U?$pair@$$CBV?$basic_string@DU?$char_traits@D@std@@V?$allocator@D@2@@std@@UskinInfo@@@std@@@std@@@std@@@std@@@0@U?$integral_constant@_N$00@0@@Z 10024010 f i Configuration.obj
 0001:00023010       ??$destroy@_S@?$_Default_allocator_traits@V?$allocator@_S@std@@@std@@SAXAAV?$allocator@_S@1@QA_S@Z 10024010 f i Parser.obj
 0001:00023010       ??$_Destroy_range1@V?$allocator@H@std@@@std@@YAXPAH0AAV?$allocator@H@0@U?$integral_constant@_N$00@0@@Z 10024010 f i LegitBot.obj
 0001:00023010       ??$destroy@PAU?$_Tree_node@U?$pair@$$CBW4ItemDefinitionIndexx@@UDefItem_t@@@std@@PAX@std@@@?$_Default_allocator_traits@V?$allocator@U?$_Tree_node@U?$pair@$$CBW4ItemDefinitionIndexx@@UDefItem_t@@@std@@PAX@std@@@std@@@std@@SAXAAV?$allocator@U?$_Tree_node@U?$pair@$$CBW4ItemDefinitionIndexx@@UDefItem_t@@@std@@PAX@std@@@1@QAPAU?$_Tree_node@U?$pair@$$CBW4ItemDefinitionIndexx@@UDefItem_t@@@std@@PAX@1@@Z 10024010 f i recvproxy.obj
 0001:00023010       ??$_Destroy_range1@V?$allocator@V?$_List_unchecked_iterator@V?$_List_val@U?$_List_simple_types@U?$pair@QADPAD@std@@@std@@@std@@@std@@@std@@@std@@YAXPAV?$_List_unchecked_iterator@V?$_List_val@U?$_List_simple_types@U?$pair@QADPAD@std@@@std@@@std@@@0@0AAV?$allocator@V?$_List_unchecked_iterator@V?$_List_val@U?$_List_simple_types@U?$pair@QADPAD@std@@@std@@@std@@@std@@@0@U?$integral_constant@_N$00@0@@Z 10024010 f i Hooks.obj
 0001:00023010       ??$_Destroy_range1@V?$allocator@_S@std@@@std@@YAXPA_S0AAV?$allocator@_S@0@U?$integral_constant@_N$00@0@@Z 10024010 f i Parser.obj
 0001:00023010       ??$destroy@PAU?$_List_node@U?$pair@$$CBV?$basic_string@DU?$char_traits@D@std@@V?$allocator@D@2@@std@@UskinInfo@@@std@@PAX@std@@@?$_Default_allocator_traits@V?$allocator@U?$_List_node@U?$pair@$$CBV?$basic_string@DU?$char_traits@D@std@@V?$allocator@D@2@@std@@UskinInfo@@@std@@PAX@std@@@std@@@std@@SAXAAV?$allocator@U?$_List_node@U?$pair@$$CBV?$basic_string@DU?$char_traits@D@std@@V?$allocator@D@2@@std@@UskinInfo@@@std@@PAX@std@@@1@QAPAU?$_List_node@U?$pair@$$CBV?$basic_string@DU?$char_traits@D@std@@V?$allocator@D@2@@std@@UskinInfo@@@std@@PAX@1@@Z 10024010 f i Configuration.obj
 0001:00023010       ??$_Destroy_range1@V?$allocator@PAV?$ConfigValue@H@@@std@@@std@@YAXPAPAV?$ConfigValue@H@@0AAV?$allocator@PAV?$ConfigValue@H@@@0@U?$integral_constant@_N$00@0@@Z 10024010 f i Configuration.obj
 0001:00023010       ??$destroy@PAD@?$_Default_allocator_traits@V?$allocator@D@std@@@std@@SAXAAV?$allocator@D@1@QAPAD@Z 10024010 f i Parser.obj
 0001:00023010       ??$destroy@U?$pair@$$CBW4ItemDefinitionIndexx@@UDefItem_t@@@std@@@?$_Default_allocator_traits@V?$allocator@U?$_Tree_node@U?$pair@$$CBW4ItemDefinitionIndexx@@UDefItem_t@@@std@@PAX@std@@@std@@@std@@SAXAAV?$allocator@U?$_Tree_node@U?$pair@$$CBW4ItemDefinitionIndexx@@UDefItem_t@@@std@@PAX@std@@@1@QAU?$pair@$$CBW4ItemDefinitionIndexx@@UDefItem_t@@@1@@Z 10024010 f i recvproxy.obj
 0001:00023010       ??3@YAXPAX0@Z              10024010 f i Parser.obj
 0001:00023010       ??$_Destroy_range1@V?$allocator@VVector@@@std@@@std@@YAXPAVVector@@0AAV?$allocator@VVector@@@0@U?$integral_constant@_N$00@0@@Z 10024010 f i ESP.obj
 0001:00023010       ??$destroy@PAURecvTable@@@?$_Default_allocator_traits@V?$allocator@PAURecvTable@@@std@@@std@@SAXAAV?$allocator@PAURecvTable@@@1@QAPAURecvTable@@@Z 10024010 f i NetVarManager.obj
 0001:00023010       ??$_Destroy_range1@V?$allocator@PAV?$ConfigValue@M@@@std@@@std@@YAXPAPAV?$ConfigValue@M@@0AAV?$allocator@PAV?$ConfigValue@M@@@0@U?$integral_constant@_N$00@0@@Z 10024010 f i Configuration.obj
 0001:00023010       ??$destroy@PAU?$_List_node@U?$pair@$$CBV?$basic_string@DU?$char_traits@D@std@@V?$allocator@D@2@@std@@V?$set@V?$basic_string@DU?$char_traits@D@std@@V?$allocator@D@2@@std@@U?$less@V?$basic_string@DU?$char_traits@D@std@@V?$allocator@D@2@@std@@@2@V?$allocator@V?$basic_string@DU?$char_traits@D@std@@V?$allocator@D@2@@std@@@2@@2@@std@@PAX@std@@@?$_Default_allocator_traits@V?$allocator@U?$_List_node@U?$pair@$$CBV?$basic_string@DU?$char_traits@D@std@@V?$allocator@D@2@@std@@V?$set@V?$basic_string@DU?$char_traits@D@std@@V?$allocator@D@2@@std@@U?$less@V?$basic_string@DU?$char_traits@D@std@@V?$allocator@D@2@@std@@@2@V?$allocator@V?$basic_string@DU?$char_traits@D@std@@V?$allocator@D@2@@std@@@2@@2@@std@@PAX@std@@@std@@@std@@SAXAAV?$allocator@U?$_List_node@U?$pair@$$CBV?$basic_string@DU?$char_traits@D@std@@V?$allocator@D@2@@std@@V?$set@V?$basic_string@DU?$char_traits@D@std@@V?$allocator@D@2@@std@@U?$less@V?$basic_string@DU?$char_traits@D@std@@V?$allocator@D@2@@std@@@2@V?$allocator@V?$basic_string@DU?$char_traits@D@std@@V?$allocator@D@2@@std@@@2@@2@@std@@PAX@std@@@1@QAPAU?$_List_node@U?$pair@$$CBV?$basic_string@DU?$char_traits@D@std@@V?$allocator@D@2@@std@@V?$set@V?$basic_string@DU?$char_traits@D@std@@V?$allocator@D@2@@std@@U?$less@V?$basic_string@DU?$char_traits@D@std@@V?$allocator@D@2@@std@@@2@V?$allocator@V?$basic_string@DU?$char_traits@D@std@@V?$allocator@D@2@@std@@@2@@2@@std@@PAX@1@@Z 10024010 f i Configuration.obj
 0001:00023010       ??$destroy@VVector@@@?$_Default_allocator_traits@V?$allocator@VVector@@@std@@@std@@SAXAAV?$allocator@VVector@@@1@QAVVector@@@Z 10024010 f i GrenadePrediction.obj
 0001:00023010       ??$destroy@PAU?$_List_node@U?$pair@QADPAD@std@@PAX@std@@@?$_Default_allocator_traits@V?$allocator@U?$_List_node@U?$pair@QADPAD@std@@PAX@std@@@std@@@std@@SAXAAV?$allocator@U?$_List_node@U?$pair@QADPAD@std@@PAX@std@@@1@QAPAU?$_List_node@U?$pair@QADPAD@std@@PAX@1@@Z 10024010 f i Hooks.obj
 0001:00023010       ??$destroy@U_Container_proxy@std@@@?$_Default_allocator_traits@V?$allocator@U_Container_proxy@std@@@std@@@std@@SAXAAV?$allocator@U_Container_proxy@std@@@1@QAU_Container_proxy@1@@Z 10024010 f i Hooks.obj
 0001:00023010       ?_Enable_shared@std@@YAXPDX0@Z 10024010 f i Parser.obj
 0001:00023010       ??$_Pocca@V?$allocator@D@std@@@std@@YAXAAV?$allocator@D@0@ABV10@U?$integral_constant@_N$0A@@0@@Z 10024010 f i Configuration.obj
 0001:00023020       ??$_Destroy_range1@V?$allocator@V?$basic_string@DU?$char_traits@D@std@@V?$allocator@D@2@@std@@@std@@@std@@YAXPAV?$basic_string@DU?$char_traits@D@std@@V?$allocator@D@2@@0@0AAV?$allocator@V?$basic_string@DU?$char_traits@D@std@@V?$allocator@D@2@@std@@@0@U?$integral_constant@_N$0A@@0@@Z 10024020 f i Configuration.obj
 0001:00023060       ??$_Destroy_range@V?$allocator@PAV?$ConfigValue@M@@@std@@@std@@YAXPAPAV?$ConfigValue@M@@0AAV?$allocator@PAV?$ConfigValue@M@@@0@@Z 10024060 f i Configuration.obj
 0001:00023060       ??$_Destroy_range@V?$allocator@H@std@@@std@@YAXPAH0AAV?$allocator@H@0@@Z 10024060 f i LegitBot.obj
 0001:00023060       ??$_Destroy_range@V?$allocator@V?$_List_unchecked_iterator@V?$_List_val@U?$_List_simple_types@U?$pair@$$CBV?$basic_string@DU?$char_traits@D@std@@V?$allocator@D@2@@std@@V?$set@V?$basic_string@DU?$char_traits@D@std@@V?$allocator@D@2@@std@@U?$less@V?$basic_string@DU?$char_traits@D@std@@V?$allocator@D@2@@std@@@2@V?$allocator@V?$basic_string@DU?$char_traits@D@std@@V?$allocator@D@2@@std@@@2@@2@@std@@@std@@@std@@@std@@@std@@@std@@YAXPAV?$_List_unchecked_iterator@V?$_List_val@U?$_List_simple_types@U?$pair@$$CBV?$basic_string@DU?$char_traits@D@std@@V?$allocator@D@2@@std@@V?$set@V?$basic_string@DU?$char_traits@D@std@@V?$allocator@D@2@@std@@U?$less@V?$basic_string@DU?$char_traits@D@std@@V?$allocator@D@2@@std@@@2@V?$allocator@V?$basic_string@DU?$char_traits@D@std@@V?$allocator@D@2@@std@@@2@@2@@std@@@std@@@std@@@0@0AAV?$allocator@V?$_List_unchecked_iterator@V?$_List_val@U?$_List_simple_types@U?$pair@$$CBV?$basic_string@DU?$char_traits@D@std@@V?$allocator@D@2@@std@@V?$set@V?$basic_string@DU?$char_traits@D@std@@V?$allocator@D@2@@std@@U?$less@V?$basic_string@DU?$char_traits@D@std@@V?$allocator@D@2@@std@@@2@V?$allocator@V?$basic_string@DU?$char_traits@D@std@@V?$allocator@D@2@@std@@@2@@2@@std@@@std@@@std@@@std@@@0@@Z 10024060 f i Configuration.obj
 0001:00023060       ??$_Destroy_range@V?$allocator@PAV?$ConfigValue@_N@@@std@@@std@@YAXPAPAV?$ConfigValue@_N@@0AAV?$allocator@PAV?$ConfigValue@_N@@@0@@Z 10024060 f i Configuration.obj
 0001:00023060       ??$_Destroy_range@V?$allocator@VVector@@@std@@@std@@YAXPAVVector@@0AAV?$allocator@VVector@@@0@@Z 10024060 f i ESP.obj
 0001:00023060       ??$_Destroy_range@V?$allocator@PAV?$shared_ptr@VNode@valve_parser@@@std@@@std@@@std@@YAXPAPAV?$shared_ptr@VNode@valve_parser@@@0@0AAV?$allocator@PAV?$shared_ptr@VNode@valve_parser@@@std@@@0@@Z 10024060 f i Hooks.obj
 0001:00023060       ??$_Destroy_range@V?$allocator@V?$_List_unchecked_iterator@V?$_List_val@U?$_List_simple_types@U?$pair@QADPAD@std@@@std@@@std@@@std@@@std@@@std@@YAXPAV?$_List_unchecked_iterator@V?$_List_val@U?$_List_simple_types@U?$pair@QADPAD@std@@@std@@@std@@@0@0AAV?$allocator@V?$_List_unchecked_iterator@V?$_List_val@U?$_List_simple_types@U?$pair@QADPAD@std@@@std@@@std@@@std@@@0@@Z 10024060 f i Hooks.obj
 0001:00023060       ??$_Destroy_range@V?$allocator@PAV?$ConfigValue@H@@@std@@@std@@YAXPAPAV?$ConfigValue@H@@0AAV?$allocator@PAV?$ConfigValue@H@@@0@@Z 10024060 f i Configuration.obj
 0001:00023060       ??$_Destroy_range@V?$allocator@PAURecvTable@@@std@@@std@@YAXPAPAURecvTable@@0AAV?$allocator@PAURecvTable@@@0@@Z 10024060 f i NetVarManager.obj
 0001:00023060       ??$_Destroy_range@V?$allocator@V?$_List_unchecked_iterator@V?$_List_val@U?$_List_simple_types@U?$pair@$$CBV?$basic_string@DU?$char_traits@D@std@@V?$allocator@D@2@@std@@UskinInfo@@@std@@@std@@@std@@@std@@@std@@@std@@YAXPAV?$_List_unchecked_iterator@V?$_List_val@U?$_List_simple_types@U?$pair@$$CBV?$basic_string@DU?$char_traits@D@std@@V?$allocator@D@2@@std@@UskinInfo@@@std@@@std@@@std@@@0@0AAV?$allocator@V?$_List_unchecked_iterator@V?$_List_val@U?$_List_simple_types@U?$pair@$$CBV?$basic_string@DU?$char_traits@D@std@@V?$allocator@D@2@@std@@UskinInfo@@@std@@@std@@@std@@@std@@@0@@Z 10024060 f i Configuration.obj
 0001:00023060       ??$_Destroy_range@V?$allocator@V?$_List_unchecked_iterator@V?$_List_val@U?$_List_simple_types@U?$pair@$$CBV?$basic_string@DU?$char_traits@D@std@@V?$allocator@D@2@@std@@V12@@std@@@std@@@std@@@std@@@std@@@std@@YAXPAV?$_List_unchecked_iterator@V?$_List_val@U?$_List_simple_types@U?$pair@$$CBV?$basic_string@DU?$char_traits@D@std@@V?$allocator@D@2@@std@@V12@@std@@@std@@@std@@@0@0AAV?$allocator@V?$_List_unchecked_iterator@V?$_List_val@U?$_List_simple_types@U?$pair@$$CBV?$basic_string@DU?$char_traits@D@std@@V?$allocator@D@2@@std@@V12@@std@@@std@@@std@@@std@@@0@@Z 10024060 f i Configuration.obj
 0001:00023060       ??$_Destroy_range@V?$allocator@_S@std@@@std@@YAXPA_S0AAV?$allocator@_S@0@@Z 10024060 f i Parser.obj
 0001:00023090       ??$_Destroy_range@V?$allocator@V?$basic_string@DU?$char_traits@D@std@@V?$allocator@D@2@@std@@@std@@@std@@YAXPAV?$basic_string@DU?$char_traits@D@std@@V?$allocator@D@2@@0@0AAV?$allocator@V?$basic_string@DU?$char_traits@D@std@@V?$allocator@D@2@@std@@@0@@Z 10024090 f i Configuration.obj
 0001:000230c0       ??$_Floating_to_string@M@std@@YA?AV?$basic_string@DU?$char_traits@D@std@@V?$allocator@D@2@@0@PBDM@Z 100240c0 f i Configuration.obj
 0001:000231a0       ??$_Integral_to_string@DH@std@@YA?AV?$basic_string@DU?$char_traits@D@std@@V?$allocator@D@2@@0@H@Z 100241a0 f i Configuration.obj
 0001:00023250       ??$_Pocca@V?$allocator@D@std@@@std@@YAXAAV?$allocator@D@0@ABV10@@Z 10024250 f i Configuration.obj
 0001:00023270       ??$_Pocma@V?$allocator@D@std@@@std@@YAXAAV?$allocator@D@0@0@Z 10024270 f i Configuration.obj
 0001:00023290       ??$_Pocma@V?$allocator@D@std@@@std@@YAXAAV?$allocator@D@0@0U?$integral_constant@_N$00@0@@Z 10024290 f i Configuration.obj
 0001:00023730       ??$_Rechecked@PAV?$_List_unchecked_iterator@V?$_List_val@U?$_List_simple_types@U?$pair@$$CBV?$basic_string@DU?$char_traits@D@std@@V?$allocator@D@2@@std@@V12@@std@@@std@@@std@@@std@@PAV12@@std@@YAAAPAV?$_List_unchecked_iterator@V?$_List_val@U?$_List_simple_types@U?$pair@$$CBV?$basic_string@DU?$char_traits@D@std@@V?$allocator@D@2@@std@@V12@@std@@@std@@@std@@@0@AAPAV10@PAV10@@Z 10024730 f i Configuration.obj
 0001:00023730       ??$_Rechecked@PAPAV?$ConfigValue@H@@PAPAV1@@std@@YAAAPAPAV?$ConfigValue@H@@AAPAPAV1@PAPAV1@@Z 10024730 f i Configuration.obj
 0001:00023730       ??$_Rechecked@PAVVector@@PAV1@@std@@YAAAPAVVector@@AAPAV1@PAV1@@Z 10024730 f i GrenadePrediction.obj
 0001:00023730       ??$_Rechecked@PAPAV?$ConfigValue@_N@@PAPAV1@@std@@YAAAPAPAV?$ConfigValue@_N@@AAPAPAV1@PAPAV1@@Z 10024730 f i Configuration.obj
 0001:00023730       ??$_Rechecked@V?$_String_val@U?$_Simple_types@D@std@@@std@@@std@@YAAAV?$_String_iterator@V?$_String_val@U?$_Simple_types@D@std@@@std@@@0@AAV10@QAD@Z 10024730 f i Hooks.obj
 0001:00023730       ??$_Rechecked@PAV?$basic_string@DU?$char_traits@D@std@@V?$allocator@D@2@@std@@PAV12@@std@@YAAAPAV?$basic_string@DU?$char_traits@D@std@@V?$allocator@D@2@@0@AAPAV10@PAV10@@Z 10024730 f i Hooks.obj
 0001:00023730       ??$_Rechecked@PAHPAH@std@@YAAAPAHAAPAHPAH@Z 10024730 f i LegitBot.obj
 0001:00023730       ??$_Rechecked@PAPAV?$ConfigValue@M@@PAPAV1@@std@@YAAAPAPAV?$ConfigValue@M@@AAPAPAV1@PAPAV1@@Z 10024730 f i Configuration.obj
 0001:00023730       ??$_Rechecked@PAPAV?$shared_ptr@VNode@valve_parser@@@std@@PAPAV12@@std@@YAAAPAPAV?$shared_ptr@VNode@valve_parser@@@0@AAPAPAV10@PAPAV10@@Z 10024730 f i Hooks.obj
 0001:00023730       ??$_Rechecked@PAV?$_List_unchecked_iterator@V?$_List_val@U?$_List_simple_types@U?$pair@$$CBV?$basic_string@DU?$char_traits@D@std@@V?$allocator@D@2@@std@@V?$set@V?$basic_string@DU?$char_traits@D@std@@V?$allocator@D@2@@std@@U?$less@V?$basic_string@DU?$char_traits@D@std@@V?$allocator@D@2@@std@@@2@V?$allocator@V?$basic_string@DU?$char_traits@D@std@@V?$allocator@D@2@@std@@@2@@2@@std@@@std@@@std@@@std@@PAV12@@std@@YAAAPAV?$_List_unchecked_iterator@V?$_List_val@U?$_List_simple_types@U?$pair@$$CBV?$basic_string@DU?$char_traits@D@std@@V?$allocator@D@2@@std@@V?$set@V?$basic_string@DU?$char_traits@D@std@@V?$allocator@D@2@@std@@U?$less@V?$basic_string@DU?$char_traits@D@std@@V?$allocator@D@2@@std@@@2@V?$allocator@V?$basic_string@DU?$char_traits@D@std@@V?$allocator@D@2@@std@@@2@@2@@std@@@std@@@std@@@0@AAPAV10@PAV10@@Z 10024730 f i Configuration.obj
 0001:00023730       ??$_Rechecked@PAV?$_List_unchecked_iterator@V?$_List_val@U?$_List_simple_types@U?$pair@$$CBV?$basic_string@DU?$char_traits@D@std@@V?$allocator@D@2@@std@@UskinInfo@@@std@@@std@@@std@@@std@@PAV12@@std@@YAAAPAV?$_List_unchecked_iterator@V?$_List_val@U?$_List_simple_types@U?$pair@$$CBV?$basic_string@DU?$char_traits@D@std@@V?$allocator@D@2@@std@@UskinInfo@@@std@@@std@@@std@@@0@AAPAV10@PAV10@@Z 10024730 f i Configuration.obj
 0001:00023730       ??$_Rechecked@PA_SPA_S@std@@YAAAPA_SAAPA_SPA_S@Z 10024730 f i Parser.obj
 0001:00023730       ??$_Rechecked@PAV?$shared_ptr@VNode@valve_parser@@@std@@PAV12@@std@@YAAAPAV?$shared_ptr@VNode@valve_parser@@@0@AAPAV10@PAV10@@Z 10024730 f i Parser.obj
 0001:00023730       ??$_Rechecked@PAPAURecvTable@@PAPAU1@@std@@YAAAPAPAURecvTable@@AAPAPAU1@PAPAU1@@Z 10024730 f i NetVarManager.obj
 0001:00023730       ??$_Rechecked@PAV?$_List_unchecked_iterator@V?$_List_val@U?$_List_simple_types@U?$pair@QADPAD@std@@@std@@@std@@@std@@PAV12@@std@@YAAAPAV?$_List_unchecked_iterator@V?$_List_val@U?$_List_simple_types@U?$pair@QADPAD@std@@@std@@@std@@@0@AAPAV10@PAV10@@Z 10024730 f i Hooks.obj
 0001:00023740       ??$_UIntegral_to_buff@DI@std@@YAPADPADI@Z 10024740 f i Configuration.obj
 0001:00023800       ??$addressof@PAD@std@@YAPAPADAAPAD@Z 10024800 f i Parser.obj
 0001:00023800       ??$addressof@PAV?$shared_ptr@VNode@valve_parser@@@std@@@std@@YAPAPAV?$shared_ptr@VNode@valve_parser@@@0@AAPAV10@@Z 10024800 f i Hooks.obj
 0001:00023800       ??$move@AAV?$allocator@D@std@@@std@@YA$$QAV?$allocator@D@0@AAV10@@Z 10024800 f i Configuration.obj
 0001:00023800       ??$forward@AAPAU?$_List_node@U?$pair@$$CBV?$basic_string@DU?$char_traits@D@std@@V?$allocator@D@2@@std@@UskinInfo@@@std@@PAX@std@@@std@@YAAAPAU?$_List_node@U?$pair@$$CBV?$basic_string@DU?$char_traits@D@std@@V?$allocator@D@2@@std@@UskinInfo@@@std@@PAX@0@AAPAU10@@Z 10024800 f i Configuration.obj
 0001:00023800       ??$_Kfn@$$CBV?$basic_string@DU?$char_traits@D@std@@V?$allocator@D@2@@std@@UskinInfo@@@?$_Umap_traits@V?$basic_string@DU?$char_traits@D@std@@V?$allocator@D@2@@std@@UskinInfo@@V?$_Uhash_compare@V?$basic_string@DU?$char_traits@D@std@@V?$allocator@D@2@@std@@U?$hash@V?$basic_string@DU?$char_traits@D@std@@V?$allocator@D@2@@std@@@2@U?$equal_to@V?$basic_string@DU?$char_traits@D@std@@V?$allocator@D@2@@std@@@2@@2@V?$allocator@U?$pair@$$CBV?$basic_string@DU?$char_traits@D@std@@V?$allocator@D@2@@std@@UskinInfo@@@std@@@2@$0A@@std@@SAABV?$basic_string@DU?$char_traits@D@std@@V?$allocator@D@2@@1@ABU?$pair@$$CBV?$basic_string@DU?$char_traits@D@std@@V?$allocator@D@2@@std@@UskinInfo@@@1@@Z 10024800 f i Hooks.obj
 0001:00023800       ??$_Unchecked@PAPAV?$ConfigValue@H@@@std@@YAPAPAV?$ConfigValue@H@@PAPAV1@@Z 10024800 f i Configuration.obj
 0001:00023800       ??$forward@U_One_then_variadic_args_t@std@@@std@@YA$$QAU_One_then_variadic_args_t@0@AAU10@@Z 10024800 f i Configuration.obj
 0001:00023800       ??$addressof@PAU?$_List_node@U?$pair@$$CBV?$basic_string@DU?$char_traits@D@std@@V?$allocator@D@2@@std@@UskinInfo@@@std@@PAX@std@@@std@@YAPAPAU?$_List_node@U?$pair@$$CBV?$basic_string@DU?$char_traits@D@std@@V?$allocator@D@2@@std@@UskinInfo@@@std@@PAX@0@AAPAU10@@Z 10024800 f i Configuration.obj
 0001:00023800       ??$_Unchecked@PAPAV?$ConfigValue@_N@@@std@@YAPAPAV?$ConfigValue@_N@@PAPAV1@@Z 10024800 f i Configuration.obj
 0001:00023800       ??$_Ptr_move_cat@_S_S@std@@YA?AU_Really_trivial_ptr_iterator_tag@0@ABQA_S0@Z 10024800 f i Parser.obj
 0001:00023800       ??$move@AAD@std@@YA$$QADAAD@Z 10024800 f i recvproxy.obj
 0001:00023800       ??$_Unchecked@PAD@std@@YAPADPAD@Z 10024800 f i Configuration.obj
 0001:00023800       ??$_Ptr_move_cat@V?$_List_unchecked_iterator@V?$_List_val@U?$_List_simple_types@U?$pair@$$CBV?$basic_string@DU?$char_traits@D@std@@V?$allocator@D@2@@std@@UskinInfo@@@std@@@std@@@std@@@std@@V12@@std@@YA?AU_Trivially_copyable_ptr_iterator_tag@0@ABQAV?$_List_unchecked_iterator@V?$_List_val@U?$_List_simple_types@U?$pair@$$CBV?$basic_string@DU?$char_traits@D@std@@V?$allocator@D@2@@std@@UskinInfo@@@std@@@std@@@std@@@0@0@Z 10024800 f i Configuration.obj
 0001:00023800       ??$_Unfancy@V?$_List_unchecked_iterator@V?$_List_val@U?$_List_simple_types@U?$pair@$$CBV?$basic_string@DU?$char_traits@D@std@@V?$allocator@D@2@@std@@V12@@std@@@std@@@std@@@std@@@std@@YAPAV?$_List_unchecked_iterator@V?$_List_val@U?$_List_simple_types@U?$pair@$$CBV?$basic_string@DU?$char_traits@D@std@@V?$allocator@D@2@@std@@V12@@std@@@std@@@std@@@0@PAV10@@Z 10024800 f i Configuration.obj
 0001:00023800       ??$_Unfancy@PAV?$ConfigValue@M@@@std@@YAPAPAV?$ConfigValue@M@@PAPAV1@@Z 10024800 f i Configuration.obj
 0001:00023800       ??$move@AAVVector@@@std@@YA$$QAVVector@@AAV1@@Z 10024800 f i GrenadePrediction.obj
 0001:00023800       ??$addressof@$$CBV?$_List_val@U?$_List_simple_types@U?$pair@$$CBV?$basic_string@DU?$char_traits@D@std@@V?$allocator@D@2@@std@@UskinInfo@@@std@@@std@@@std@@@std@@YAPBV?$_List_val@U?$_List_simple_types@U?$pair@$$CBV?$basic_string@DU?$char_traits@D@std@@V?$allocator@D@2@@std@@UskinInfo@@@std@@@std@@@0@ABV10@@Z 10024800 f i Hooks.obj
 0001:00023800       ??$addressof@$$CBV?$_List_val@U?$_List_simple_types@U?$pair@$$CBV?$basic_string@DU?$char_traits@D@std@@V?$allocator@D@2@@std@@V?$set@V?$basic_string@DU?$char_traits@D@std@@V?$allocator@D@2@@std@@U?$less@V?$basic_string@DU?$char_traits@D@std@@V?$allocator@D@2@@std@@@2@V?$allocator@V?$basic_string@DU?$char_traits@D@std@@V?$allocator@D@2@@std@@@2@@2@@std@@@std@@@std@@@std@@YAPBV?$_List_val@U?$_List_simple_types@U?$pair@$$CBV?$basic_string@DU?$char_traits@D@std@@V?$allocator@D@2@@std@@V?$set@V?$basic_string@DU?$char_traits@D@std@@V?$allocator@D@2@@std@@U?$less@V?$basic_string@DU?$char_traits@D@std@@V?$allocator@D@2@@std@@@2@V?$allocator@V?$basic_string@DU?$char_traits@D@std@@V?$allocator@D@2@@std@@@2@@2@@std@@@std@@@0@ABV10@@Z 10024800 f i Hooks.obj
 0001:00023800       ??$_Ptr_move_cat@PAV?$ConfigValue@M@@PAV1@@std@@YA?AU_Really_trivial_ptr_iterator_tag@0@ABQAPAV?$ConfigValue@M@@0@Z 10024800 f i Configuration.obj
 0001:00023800       ??$_Unchecked@PAV?$shared_ptr@VNode@valve_parser@@@std@@@std@@YAPAV?$shared_ptr@VNode@valve_parser@@@0@PAV10@@Z 10024800 f i Parser.obj
 0001:00023800       ??$move@AAV?$_List_unchecked_iterator@V?$_List_val@U?$_List_simple_types@U?$pair@$$CBV?$basic_string@DU?$char_traits@D@std@@V?$allocator@D@2@@std@@V12@@std@@@std@@@std@@@std@@@std@@YA$$QAV?$_List_unchecked_iterator@V?$_List_val@U?$_List_simple_types@U?$pair@$$CBV?$basic_string@DU?$char_traits@D@std@@V?$allocator@D@2@@std@@V12@@std@@@std@@@std@@@0@AAV10@@Z 10024800 f i Configuration.obj
 0001:00023800       ??$forward@PAV?$ConfigValue@_N@@@std@@YA$$QAPAV?$ConfigValue@_N@@AAPAV1@@Z 10024800 f i Configuration.obj
 0001:00023800       ??$forward@V?$_List_unchecked_iterator@V?$_List_val@U?$_List_simple_types@U?$pair@$$CBV?$basic_string@DU?$char_traits@D@std@@V?$allocator@D@2@@std@@V12@@std@@@std@@@std@@@std@@@std@@YA$$QAV?$_List_unchecked_iterator@V?$_List_val@U?$_List_simple_types@U?$pair@$$CBV?$basic_string@DU?$char_traits@D@std@@V?$allocator@D@2@@std@@V12@@std@@@std@@@std@@@0@AAV10@@Z 10024800 f i Configuration.obj
 0001:00023800       ??$_Unfancy@_S@std@@YAPA_SPA_S@Z 10024800 f i Parser.obj
 0001:00023800       ??$_Unfancy@V?$shared_ptr@VNode@valve_parser@@@std@@@std@@YAPAV?$shared_ptr@VNode@valve_parser@@@0@PAV10@@Z 10024800 f i Parser.obj
 0001:00023800       ??$addressof@$$CBU?$pair@$$CBW4ItemDefinitionIndexx@@UDefItem_t@@@std@@@std@@YAPBU?$pair@$$CBW4ItemDefinitionIndexx@@UDefItem_t@@@0@ABU10@@Z 10024800 f i Hooks.obj
 0001:00023800       ??$forward@PAV?$ConfigValue@M@@@std@@YA$$QAPAV?$ConfigValue@M@@AAPAV1@@Z 10024800 f i Configuration.obj
 0001:00023800       ??$_Unfancy@H@std@@YAPAHPAH@Z 10024800 f i RageBot.obj
 0001:00023800       ??$_Ptr_move_cat@PAURecvTable@@PAU1@@std@@YA?AU_Really_trivial_ptr_iterator_tag@0@ABQAPAURecvTable@@0@Z 10024800 f i NetVarManager.obj
 0001:00023800       ??$forward@ABU?$less@W4ItemDefinitionIndexx@@@std@@@std@@YAABU?$less@W4ItemDefinitionIndexx@@@0@ABU10@@Z 10024800 f i recvproxy.obj
 0001:00023800       ??$forward@AAU?$equal_to@PAD@std@@@std@@YAAAU?$equal_to@PAD@0@AAU10@@Z 10024800 f i Hooks.obj
 0001:00023800       ??$_Unfancy@PAV?$ConfigValue@H@@@std@@YAPAPAV?$ConfigValue@H@@PAPAV1@@Z 10024800 f i Configuration.obj
 0001:00023800       ??$forward@AAU?$hash@PAD@std@@@std@@YAAAU?$hash@PAD@0@AAU10@@Z 10024800 f i Hooks.obj
 0001:00023800       ??$move@AAV?$allocator@H@std@@@std@@YA$$QAV?$allocator@H@0@AAV10@@Z 10024800 f i Utilities.obj
 0001:00023800       ??$_Unchecked@PBH@std@@YAPBHPBH@Z 10024800 f i LegitBot.obj
 0001:00023800       ??$forward@V?$tuple@ABV?$basic_string@DU?$char_traits@D@std@@V?$allocator@D@2@@std@@@std@@@std@@YA$$QAV?$tuple@ABV?$basic_string@DU?$char_traits@D@std@@V?$allocator@D@2@@std@@@0@AAV10@@Z 10024800 f i Hooks.obj
 0001:00023800       ??$_Kfn@$$CBW4ItemDefinitionIndexx@@UDefItem_t@@@?$_Tmap_traits@W4ItemDefinitionIndexx@@UDefItem_t@@U?$less@W4ItemDefinitionIndexx@@@std@@V?$allocator@U?$pair@$$CBW4ItemDefinitionIndexx@@UDefItem_t@@@std@@@4@$0A@@std@@SAABW4ItemDefinitionIndexx@@ABU?$pair@$$CBW4ItemDefinitionIndexx@@UDefItem_t@@@1@@Z 10024800 f i recvproxy.obj
 0001:00023800       ??$forward@V?$shared_ptr@VNode@valve_parser@@@std@@@std@@YA$$QAV?$shared_ptr@VNode@valve_parser@@@0@AAV10@@Z 10024800 f i Parser.obj
 0001:00023800       ??$forward@ABQAD@std@@YAABQADABQAD@Z 10024800 f i Parser.obj
 0001:00023800       ?_Kfn@?$_Tset_traits@V?$basic_string@DU?$char_traits@D@std@@V?$allocator@D@2@@std@@U?$less@V?$basic_string@DU?$char_traits@D@std@@V?$allocator@D@2@@std@@@2@V?$allocator@V?$basic_string@DU?$char_traits@D@std@@V?$allocator@D@2@@std@@@2@$0A@@std@@SAABV?$basic_string@DU?$char_traits@D@std@@V?$allocator@D@2@@2@ABV32@@Z 10024800 f i Hooks.obj
 0001:00023800       ??$_Const_cast@$$CBD@std@@YAPADPBD@Z 10024800 f i Hooks.obj
 0001:00023800       ??$forward@AAPAU?$_List_node@U?$pair@QADPAD@std@@PAX@std@@@std@@YAAAPAU?$_List_node@U?$pair@QADPAD@std@@PAX@0@AAPAU10@@Z 10024800 f i Hooks.obj
 0001:00023800       ??$addressof@PAU?$_Tree_node@U?$pair@$$CBW4ItemDefinitionIndexx@@UDefItem_t@@@std@@PAX@std@@@std@@YAPAPAU?$_Tree_node@U?$pair@$$CBW4ItemDefinitionIndexx@@UDefItem_t@@@std@@PAX@0@AAPAU10@@Z 10024800 f i recvproxy.obj
 0001:00023800       ??$_Refancy@PAD$0A@@std@@YAPADPAD@Z 10024800 f i Hooks.obj
 0001:00023800       ??$forward@V?$_Tree_const_iterator@V?$_Tree_val@U?$_Tree_simple_types@V?$basic_string@DU?$char_traits@D@std@@V?$allocator@D@2@@std@@@std@@@std@@@std@@@std@@YA$$QAV?$_Tree_const_iterator@V?$_Tree_val@U?$_Tree_simple_types@V?$basic_string@DU?$char_traits@D@std@@V?$allocator@D@2@@std@@@std@@@std@@@0@AAV10@@Z 10024800 f i Hooks.obj
 0001:00023800       ??$forward@ABV?$allocator@V?$_List_unchecked_iterator@V?$_List_val@U?$_List_simple_types@U?$pair@$$CBV?$basic_string@DU?$char_traits@D@std@@V?$allocator@D@2@@std@@UskinInfo@@@std@@@std@@@std@@@std@@@std@@@std@@YAABV?$allocator@V?$_List_unchecked_iterator@V?$_List_val@U?$_List_simple_types@U?$pair@$$CBV?$basic_string@DU?$char_traits@D@std@@V?$allocator@D@2@@std@@UskinInfo@@@std@@@std@@@std@@@std@@@0@ABV10@@Z 10024800 f i Configuration.obj
 0001:00023800       ??$forward@V?$_List_unchecked_iterator@V?$_List_val@U?$_List_simple_types@U?$pair@QADPAD@std@@@std@@@std@@@std@@@std@@YA$$QAV?$_List_unchecked_iterator@V?$_List_val@U?$_List_simple_types@U?$pair@QADPAD@std@@@std@@@std@@@0@AAV10@@Z 10024800 f i Hooks.obj
 0001:00023800       ??$forward@ABV?$shared_ptr@VNode@valve_parser@@@std@@@std@@YAABV?$shared_ptr@VNode@valve_parser@@@0@ABV10@@Z 10024800 f i Parser.obj
 0001:00023800       ??$move@AAV?$vector@HV?$allocator@H@std@@@std@@@std@@YA$$QAV?$vector@HV?$allocator@H@std@@@0@AAV10@@Z 10024800 f i Utilities.obj
 0001:00023800       ??$forward@U_Zero_then_variadic_args_t@std@@@std@@YA$$QAU_Zero_then_variadic_args_t@0@AAU10@@Z 10024800 f i recvproxy.obj
 0001:00023800       ??$forward@V?$_List_unchecked_iterator@V?$_List_val@U?$_List_simple_types@U?$pair@$$CBV?$basic_string@DU?$char_traits@D@std@@V?$allocator@D@2@@std@@UskinInfo@@@std@@@std@@@std@@@std@@@std@@YA$$QAV?$_List_unchecked_iterator@V?$_List_val@U?$_List_simple_types@U?$pair@$$CBV?$basic_string@DU?$char_traits@D@std@@V?$allocator@D@2@@std@@UskinInfo@@@std@@@std@@@std@@@0@AAV10@@Z 10024800 f i Configuration.obj
 0001:00023800       ??$addressof@U?$pair@$$CBV?$basic_string@DU?$char_traits@D@std@@V?$allocator@D@2@@std@@V?$set@V?$basic_string@DU?$char_traits@D@std@@V?$allocator@D@2@@std@@U?$less@V?$basic_string@DU?$char_traits@D@std@@V?$allocator@D@2@@std@@@2@V?$allocator@V?$basic_string@DU?$char_traits@D@std@@V?$allocator@D@2@@std@@@2@@2@@std@@@std@@YAPAU?$pair@$$CBV?$basic_string@DU?$char_traits@D@std@@V?$allocator@D@2@@std@@V?$set@V?$basic_string@DU?$char_traits@D@std@@V?$allocator@D@2@@std@@U?$less@V?$basic_string@DU?$char_traits@D@std@@V?$allocator@D@2@@std@@@2@V?$allocator@V?$basic_string@DU?$char_traits@D@std@@V?$allocator@D@2@@std@@@2@@2@@0@AAU10@@Z 10024800 f i Configuration.obj
 0001:00023800       ??$_Unchecked@PAV?$basic_string@DU?$char_traits@D@std@@V?$allocator@D@2@@std@@@std@@YAPAV?$basic_string@DU?$char_traits@D@std@@V?$allocator@D@2@@0@PAV10@@Z 10024800 f i Hooks.obj
 0001:00023800       ??$_Unchecked@PAH@std@@YAPAHPAH@Z 10024800 f i LegitBot.obj
 0001:00023800       ??$move@AAV?$shared_ptr@VNode@valve_parser@@@std@@@std@@YA$$QAV?$shared_ptr@VNode@valve_parser@@@0@AAV10@@Z 10024800 f i Parser.obj
 0001:00023800       ??$forward@AB_S@std@@YAAB_SAB_S@Z 10024800 f i Parser.obj
 0001:00023800       ??$move@AAV?$tuple@ABV?$basic_string@DU?$char_traits@D@std@@V?$allocator@D@2@@std@@@std@@@std@@YA$$QAV?$tuple@ABV?$basic_string@DU?$char_traits@D@std@@V?$allocator@D@2@@std@@@0@AAV10@@Z 10024800 f i Hooks.obj
 0001:00023800       ??$move@AAV?$_List_unchecked_iterator@V?$_List_val@U?$_List_simple_types@U?$pair@QADPAD@std@@@std@@@std@@@std@@@std@@YA$$QAV?$_List_unchecked_iterator@V?$_List_val@U?$_List_simple_types@U?$pair@QADPAD@std@@@std@@@std@@@0@AAV10@@Z 10024800 f i Hooks.obj
 0001:00023800       ??$addressof@$$CBV?$basic_string@DU?$char_traits@D@std@@V?$allocator@D@2@@std@@@std@@YAPBV?$basic_string@DU?$char_traits@D@std@@V?$allocator@D@2@@0@ABV10@@Z 10024800 f i Configuration.obj
 0001:00023800       ??$move@AAV?$_List_unchecked_iterator@V?$_List_val@U?$_List_simple_types@U?$pair@$$CBV?$basic_string@DU?$char_traits@D@std@@V?$allocator@D@2@@std@@V?$set@V?$basic_string@DU?$char_traits@D@std@@V?$allocator@D@2@@std@@U?$less@V?$basic_string@DU?$char_traits@D@std@@V?$allocator@D@2@@std@@@2@V?$allocator@V?$basic_string@DU?$char_traits@D@std@@V?$allocator@D@2@@std@@@2@@2@@std@@@std@@@std@@@std@@@std@@YA$$QAV?$_List_unchecked_iterator@V?$_List_val@U?$_List_simple_types@U?$pair@$$CBV?$basic_string@DU?$char_traits@D@std@@V?$allocator@D@2@@std@@V?$set@V?$basic_string@DU?$char_traits@D@std@@V?$allocator@D@2@@std@@U?$less@V?$basic_string@DU?$char_traits@D@std@@V?$allocator@D@2@@std@@@2@V?$allocator@V?$basic_string@DU?$char_traits@D@std@@V?$allocator@D@2@@std@@@2@@2@@std@@@std@@@std@@@0@AAV10@@Z 10024800 f i Configuration.obj
 0001:00023800       ??$_Unchecked@PAV?$_List_unchecked_iterator@V?$_List_val@U?$_List_simple_types@U?$pair@$$CBV?$basic_string@DU?$char_traits@D@std@@V?$allocator@D@2@@std@@V?$set@V?$basic_string@DU?$char_traits@D@std@@V?$allocator@D@2@@std@@U?$less@V?$basic_string@DU?$char_traits@D@std@@V?$allocator@D@2@@std@@@2@V?$allocator@V?$basic_string@DU?$char_traits@D@std@@V?$allocator@D@2@@std@@@2@@2@@std@@@std@@@std@@@std@@@std@@YAPAV?$_List_unchecked_iterator@V?$_List_val@U?$_List_simple_types@U?$pair@$$CBV?$basic_string@DU?$char_traits@D@std@@V?$allocator@D@2@@std@@V?$set@V?$basic_string@DU?$char_traits@D@std@@V?$allocator@D@2@@std@@U?$less@V?$basic_string@DU?$char_traits@D@std@@V?$allocator@D@2@@std@@@2@V?$allocator@V?$basic_string@DU?$char_traits@D@std@@V?$allocator@D@2@@std@@@2@@2@@std@@@std@@@std@@@0@PAV10@@Z 10024800 f i Configuration.obj
 0001:00023800       ??$_Unchecked@PAVVector@@@std@@YAPAVVector@@PAV1@@Z 10024800 f i GrenadePrediction.obj
 0001:00023800       ??$_Unfancy_maybe_null@H@std@@YAPAHPAH@Z 10024800 f i Utilities.obj
 0001:00023800       ??$forward@ABQAURecvTable@@@std@@YAABQAURecvTable@@ABQAU1@@Z 10024800 f i NetVarManager.obj
 0001:00023800       ??$addressof@V?$_String_val@U?$_Simple_types@D@std@@@std@@@std@@YAPAV?$_String_val@U?$_Simple_types@D@std@@@0@AAV10@@Z 10024800 f i Configuration.obj
 0001:00023800       ??$forward@AAPAU?$_Tree_node@V?$basic_string@DU?$char_traits@D@std@@V?$allocator@D@2@@std@@PAX@std@@@std@@YAAAPAU?$_Tree_node@V?$basic_string@DU?$char_traits@D@std@@V?$allocator@D@2@@std@@PAX@0@AAPAU10@@Z 10024800 f i Hooks.obj
 0001:00023800       ??$_Ptr_move_cat@V?$_List_unchecked_iterator@V?$_List_val@U?$_List_simple_types@U?$pair@$$CBV?$basic_string@DU?$char_traits@D@std@@V?$allocator@D@2@@std@@V12@@std@@@std@@@std@@@std@@V12@@std@@YA?AU_Trivially_copyable_ptr_iterator_tag@0@ABQAV?$_List_unchecked_iterator@V?$_List_val@U?$_List_simple_types@U?$pair@$$CBV?$basic_string@DU?$char_traits@D@std@@V?$allocator@D@2@@std@@V12@@std@@@std@@@std@@@0@0@Z 10024800 f i Configuration.obj
 0001:00023800       ??$_Convert_size@I@std@@YAII@Z 10024800 f i Parser.obj
 0001:00023800       ??$forward@V?$_List_iterator@V?$_List_val@U?$_List_simple_types@U?$pair@$$CBV?$basic_string@DU?$char_traits@D@std@@V?$allocator@D@2@@std@@UskinInfo@@@std@@@std@@@std@@@std@@@std@@YA$$QAV?$_List_iterator@V?$_List_val@U?$_List_simple_types@U?$pair@$$CBV?$basic_string@DU?$char_traits@D@std@@V?$allocator@D@2@@std@@UskinInfo@@@std@@@std@@@std@@@0@AAV10@@Z 10024800 f i Hooks.obj
 0001:00023800       ??$_Kfn@$$CBV?$basic_string@DU?$char_traits@D@std@@V?$allocator@D@2@@std@@V12@@?$_Umap_traits@V?$basic_string@DU?$char_traits@D@std@@V?$allocator@D@2@@std@@V12@V?$_Uhash_compare@V?$basic_string@DU?$char_traits@D@std@@V?$allocator@D@2@@std@@U?$hash@V?$basic_string@DU?$char_traits@D@std@@V?$allocator@D@2@@std@@@2@U?$equal_to@V?$basic_string@DU?$char_traits@D@std@@V?$allocator@D@2@@std@@@2@@2@V?$allocator@U?$pair@$$CBV?$basic_string@DU?$char_traits@D@std@@V?$allocator@D@2@@std@@V12@@std@@@2@$0A@@std@@SAABV?$basic_string@DU?$char_traits@D@std@@V?$allocator@D@2@@1@ABU?$pair@$$CBV?$basic_string@DU?$char_traits@D@std@@V?$allocator@D@2@@std@@V12@@1@@Z 10024800 f i Hooks.obj
 0001:00023800       ??$addressof@$$CBV?$_Tree_val@U?$_Tree_simple_types@U?$pair@$$CBW4ItemDefinitionIndexx@@UDefItem_t@@@std@@@std@@@std@@@std@@YAPBV?$_Tree_val@U?$_Tree_simple_types@U?$pair@$$CBW4ItemDefinitionIndexx@@UDefItem_t@@@std@@@std@@@0@ABV10@@Z 10024800 f i Hooks.obj
 0001:00023800       ??$forward@ABV?$allocator@U?$pair@$$CBV?$basic_string@DU?$char_traits@D@std@@V?$allocator@D@2@@std@@V12@@std@@@std@@@std@@YAABV?$allocator@U?$pair@$$CBV?$basic_string@DU?$char_traits@D@std@@V?$allocator@D@2@@std@@V12@@std@@@0@ABV10@@Z 10024800 f i Configuration.obj
 0001:00023800       ??$forward@ABVVector@@@std@@YAABVVector@@ABV1@@Z 10024800 f i GrenadePrediction.obj
 0001:00023800       ??$addressof@V?$_Deque_val@U?$_Deque_simple_types@V?$shared_ptr@VNode@valve_parser@@@std@@@std@@@std@@@std@@YAPAV?$_Deque_val@U?$_Deque_simple_types@V?$shared_ptr@VNode@valve_parser@@@std@@@std@@@0@AAV10@@Z 10024800 f i Hooks.obj
 0001:00023800       ??$addressof@V?$_Tree_val@U?$_Tree_simple_types@U?$pair@$$CBW4ItemDefinitionIndexx@@UDefItem_t@@@std@@@std@@@std@@@std@@YAPAV?$_Tree_val@U?$_Tree_simple_types@U?$pair@$$CBW4ItemDefinitionIndexx@@UDefItem_t@@@std@@@std@@@0@AAV10@@Z 10024800 f i recvproxy.obj
 0001:00023800       ??$forward@ABV?$allocator@V?$_List_unchecked_iterator@V?$_List_val@U?$_List_simple_types@U?$pair@$$CBV?$basic_string@DU?$char_traits@D@std@@V?$allocator@D@2@@std@@V12@@std@@@std@@@std@@@std@@@std@@@std@@YAABV?$allocator@V?$_List_unchecked_iterator@V?$_List_val@U?$_List_simple_types@U?$pair@$$CBV?$basic_string@DU?$char_traits@D@std@@V?$allocator@D@2@@std@@V12@@std@@@std@@@std@@@std@@@0@ABV10@@Z 10024800 f i Configuration.obj
 0001:00023800       ??$addressof@U?$pair@$$CBV?$basic_string@DU?$char_traits@D@std@@V?$allocator@D@2@@std@@UskinInfo@@@std@@@std@@YAPAU?$pair@$$CBV?$basic_string@DU?$char_traits@D@std@@V?$allocator@D@2@@std@@UskinInfo@@@0@AAU10@@Z 10024800 f i Configuration.obj
 0001:00023800       ??$_Unchecked@PAPAURecvTable@@@std@@YAPAPAURecvTable@@PAPAU1@@Z 10024800 f i NetVarManager.obj
 0001:00023800       ??$move@AAV?$basic_string@DU?$char_traits@D@std@@V?$allocator@D@2@@std@@@std@@YA$$QAV?$basic_string@DU?$char_traits@D@std@@V?$allocator@D@2@@0@AAV10@@Z 10024800 f i Configuration.obj
 0001:00023800       ??$_Ptr_move_cat@HH@std@@YA?AU_Really_trivial_ptr_iterator_tag@0@ABQAH0@Z 10024800 f i RageBot.obj
 0001:00023800       ??$addressof@PAU?$_List_node@U?$pair@QADPAD@std@@PAX@std@@@std@@YAPAPAU?$_List_node@U?$pair@QADPAD@std@@PAX@0@AAPAU10@@Z 10024800 f i Hooks.obj
 0001:00023800       ??$forward@ABV?$allocator@H@std@@@std@@YAABV?$allocator@H@0@ABV10@@Z 10024800 f i LegitBot.obj
 0001:00023800       ??$move@AAV?$_List_unchecked_iterator@V?$_List_val@U?$_List_simple_types@U?$pair@$$CBV?$basic_string@DU?$char_traits@D@std@@V?$allocator@D@2@@std@@UskinInfo@@@std@@@std@@@std@@@std@@@std@@YA$$QAV?$_List_unchecked_iterator@V?$_List_val@U?$_List_simple_types@U?$pair@$$CBV?$basic_string@DU?$char_traits@D@std@@V?$allocator@D@2@@std@@UskinInfo@@@std@@@std@@@std@@@0@AAV10@@Z 10024800 f i Configuration.obj
 0001:00023800       ??$forward@V?$allocator@D@std@@@std@@YA$$QAV?$allocator@D@0@AAV10@@Z 10024800 f i Configuration.obj
 0001:00023800       ??$_Ptr_copy_cat@$$CBHH@std@@YA?AU_Really_trivial_ptr_iterator_tag@0@ABQBHABQAH@Z 10024800 f i LegitBot.obj
 0001:00023800       ??$forward@AAU?$pair@$$CBV?$basic_string@DU?$char_traits@D@std@@V?$allocator@D@2@@std@@UskinInfo@@@std@@@std@@YAAAU?$pair@$$CBV?$basic_string@DU?$char_traits@D@std@@V?$allocator@D@2@@std@@UskinInfo@@@0@AAU10@@Z 10024800 f i Hooks.obj
 0001:00023800       ??$_Ptr_copy_cat@PAV?$shared_ptr@VNode@valve_parser@@@std@@PAV12@@std@@YA?AU_Really_trivial_ptr_iterator_tag@0@ABQAPAV?$shared_ptr@VNode@valve_parser@@@0@0@Z 10024800 f i Hooks.obj
 0001:00023800       ??$move@AAV?$shared_ptr@VObject@valve_parser@@@std@@@std@@YA$$QAV?$shared_ptr@VObject@valve_parser@@@0@AAV10@@Z 10024800 f i Parser.obj
 0001:00023800       ??$forward@ABU?$less@V?$basic_string@DU?$char_traits@D@std@@V?$allocator@D@2@@std@@@std@@@std@@YAABU?$less@V?$basic_string@DU?$char_traits@D@std@@V?$allocator@D@2@@std@@@0@ABU10@@Z 10024800 f i Hooks.obj
 0001:00023800       ??$forward@ABV?$allocator@U?$pair@QADPAD@std@@@std@@@std@@YAABV?$allocator@U?$pair@QADPAD@std@@@0@ABV10@@Z 10024800 f i Hooks.obj
 0001:00023800       ??$forward@ABV?$allocator@V?$basic_string@DU?$char_traits@D@std@@V?$allocator@D@2@@std@@@std@@@std@@YAABV?$allocator@V?$basic_string@DU?$char_traits@D@std@@V?$allocator@D@2@@std@@@0@ABV10@@Z 10024800 f i Hooks.obj
 0001:00023800       ??$addressof@V?$_Tree_val@U?$_Tree_simple_types@V?$basic_string@DU?$char_traits@D@std@@V?$allocator@D@2@@std@@@std@@@std@@@std@@YAPAV?$_Tree_val@U?$_Tree_simple_types@V?$basic_string@DU?$char_traits@D@std@@V?$allocator@D@2@@std@@@std@@@0@AAV10@@Z 10024800 f i Configuration.obj
 0001:00023800       ??$addressof@PAU?$_Tree_node@V?$basic_string@DU?$char_traits@D@std@@V?$allocator@D@2@@std@@PAX@std@@@std@@YAPAPAU?$_Tree_node@V?$basic_string@DU?$char_traits@D@std@@V?$allocator@D@2@@std@@PAX@0@AAPAU10@@Z 10024800 f i Configuration.obj
 0001:00023800       ??$forward@ABUpiecewise_construct_t@std@@@std@@YAABUpiecewise_construct_t@0@ABU10@@Z 10024800 f i Hooks.obj
 0001:00023800       ??$forward@ABU?$pair@$$CBW4ItemDefinitionIndexx@@UDefItem_t@@@std@@@std@@YAABU?$pair@$$CBW4ItemDefinitionIndexx@@UDefItem_t@@@0@ABU10@@Z 10024800 f i recvproxy.obj
 0001:00023800       ??$forward@PAVDocument@valve_parser@@@std@@YA$$QAPAVDocument@valve_parser@@AAPAV12@@Z 10024800 f i Parser.obj
 0001:00023800       ??$forward@M@std@@YA$$QAMAAM@Z 10024800 f i Configuration.obj
 0001:00023800       ??$move@AAPAV?$ConfigValue@_N@@@std@@YA$$QAPAV?$ConfigValue@_N@@AAPAV1@@Z 10024800 f i Configuration.obj
 0001:00023800       ??$addressof@V?$basic_string@DU?$char_traits@D@std@@V?$allocator@D@2@@std@@@std@@YAPAV?$basic_string@DU?$char_traits@D@std@@V?$allocator@D@2@@0@AAV10@@Z 10024800 f i Configuration.obj
 0001:00023800       ??$_Unfancy@V?$_List_unchecked_iterator@V?$_List_val@U?$_List_simple_types@U?$pair@$$CBV?$basic_string@DU?$char_traits@D@std@@V?$allocator@D@2@@std@@V?$set@V?$basic_string@DU?$char_traits@D@std@@V?$allocator@D@2@@std@@U?$less@V?$basic_string@DU?$char_traits@D@std@@V?$allocator@D@2@@std@@@2@V?$allocator@V?$basic_string@DU?$char_traits@D@std@@V?$allocator@D@2@@std@@@2@@2@@std@@@std@@@std@@@std@@@std@@YAPAV?$_List_unchecked_iterator@V?$_List_val@U?$_List_simple_types@U?$pair@$$CBV?$basic_string@DU?$char_traits@D@std@@V?$allocator@D@2@@std@@V?$set@V?$basic_string@DU?$char_traits@D@std@@V?$allocator@D@2@@std@@U?$less@V?$basic_string@DU?$char_traits@D@std@@V?$allocator@D@2@@std@@@2@V?$allocator@V?$basic_string@DU?$char_traits@D@std@@V?$allocator@D@2@@std@@@2@@2@@std@@@std@@@std@@@0@PAV10@@Z 10024800 f i Configuration.obj
 0001:00023800       ??$_Kfn@$$CBV?$basic_string@DU?$char_traits@D@std@@V?$allocator@D@2@@std@@V?$set@V?$basic_string@DU?$char_traits@D@std@@V?$allocator@D@2@@std@@U?$less@V?$basic_string@DU?$char_traits@D@std@@V?$allocator@D@2@@std@@@2@V?$allocator@V?$basic_string@DU?$char_traits@D@std@@V?$allocator@D@2@@std@@@2@@2@@?$_Umap_traits@V?$basic_string@DU?$char_traits@D@std@@V?$allocator@D@2@@std@@V?$set@V?$basic_string@DU?$char_traits@D@std@@V?$allocator@D@2@@std@@U?$less@V?$basic_string@DU?$char_traits@D@std@@V?$allocator@D@2@@std@@@2@V?$allocator@V?$basic_string@DU?$char_traits@D@std@@V?$allocator@D@2@@std@@@2@@2@V?$_Uhash_compare@V?$basic_string@DU?$char_traits@D@std@@V?$allocator@D@2@@std@@U?$hash@V?$basic_string@DU?$char_traits@D@std@@V?$allocator@D@2@@std@@@2@U?$equal_to@V?$basic_string@DU?$char_traits@D@std@@V?$allocator@D@2@@std@@@2@@2@V?$allocator@U?$pair@$$CBV?$basic_string@DU?$char_traits@D@std@@V?$allocator@D@2@@std@@V?$set@V?$basic_string@DU?$char_traits@D@std@@V?$allocator@D@2@@std@@U?$less@V?$basic_string@DU?$char_traits@D@std@@V?$allocator@D@2@@std@@@2@V?$allocator@V?$basic_string@DU?$char_traits@D@std@@V?$allocator@D@2@@std@@@2@@2@@std@@@2@$0A@@std@@SAABV?$basic_string@DU?$char_traits@D@std@@V?$allocator@D@2@@1@ABU?$pair@$$CBV?$basic_string@DU?$char_traits@D@std@@V?$allocator@D@2@@std@@V?$set@V?$basic_string@DU?$char_traits@D@std@@V?$allocator@D@2@@std@@U?$less@V?$basic_string@DU?$char_traits@D@std@@V?$allocator@D@2@@std@@@2@V?$allocator@V?$basic_string@DU?$char_traits@D@std@@V?$allocator@D@2@@std@@@2@@2@@1@@Z 10024800 f i Hooks.obj
 0001:00023800       ??$forward@V?$_List_unchecked_iterator@V?$_List_val@U?$_List_simple_types@U?$pair@$$CBV?$basic_string@DU?$char_traits@D@std@@V?$allocator@D@2@@std@@V?$set@V?$basic_string@DU?$char_traits@D@std@@V?$allocator@D@2@@std@@U?$less@V?$basic_string@DU?$char_traits@D@std@@V?$allocator@D@2@@std@@@2@V?$allocator@V?$basic_string@DU?$char_traits@D@std@@V?$allocator@D@2@@std@@@2@@2@@std@@@std@@@std@@@std@@@std@@YA$$QAV?$_List_unchecked_iterator@V?$_List_val@U?$_List_simple_types@U?$pair@$$CBV?$basic_string@DU?$char_traits@D@std@@V?$allocator@D@2@@std@@V?$set@V?$basic_string@DU?$char_traits@D@std@@V?$allocator@D@2@@std@@U?$less@V?$basic_string@DU?$char_traits@D@std@@V?$allocator@D@2@@std@@@2@V?$allocator@V?$basic_string@DU?$char_traits@D@std@@V?$allocator@D@2@@std@@@2@@2@@std@@@std@@@std@@@0@AAV10@@Z 10024800 f i Configuration.obj
 0001:00023800       ??$forward@V?$_List_iterator@V?$_List_val@U?$_List_simple_types@U?$pair@$$CBV?$basic_string@DU?$char_traits@D@std@@V?$allocator@D@2@@std@@V?$set@V?$basic_string@DU?$char_traits@D@std@@V?$allocator@D@2@@std@@U?$less@V?$basic_string@DU?$char_traits@D@std@@V?$allocator@D@2@@std@@@2@V?$allocator@V?$basic_string@DU?$char_traits@D@std@@V?$allocator@D@2@@std@@@2@@2@@std@@@std@@@std@@@std@@@std@@YA$$QAV?$_List_iterator@V?$_List_val@U?$_List_simple_types@U?$pair@$$CBV?$basic_string@DU?$char_traits@D@std@@V?$allocator@D@2@@std@@V?$set@V?$basic_string@DU?$char_traits@D@std@@V?$allocator@D@2@@std@@U?$less@V?$basic_string@DU?$char_traits@D@std@@V?$allocator@D@2@@std@@@2@V?$allocator@V?$basic_string@DU?$char_traits@D@std@@V?$allocator@D@2@@std@@@2@@2@@std@@@std@@@std@@@0@AAV10@@Z 10024800 f i Hooks.obj
 0001:00023800       ??$addressof@PAU?$_List_node@U?$pair@$$CBV?$basic_string@DU?$char_traits@D@std@@V?$allocator@D@2@@std@@V12@@std@@PAX@std@@@std@@YAPAPAU?$_List_node@U?$pair@$$CBV?$basic_string@DU?$char_traits@D@std@@V?$allocator@D@2@@std@@V12@@std@@PAX@0@AAPAU10@@Z 10024800 f i Configuration.obj
 0001:00023800       ??$forward@V?$allocator@V?$shared_ptr@VNode@valve_parser@@@std@@@std@@@std@@YA$$QAV?$allocator@V?$shared_ptr@VNode@valve_parser@@@std@@@0@AAV10@@Z 10024800 f i Hooks.obj
 0001:00023800       ??$forward@AAU?$pair@$$CBV?$basic_string@DU?$char_traits@D@std@@V?$allocator@D@2@@std@@V?$set@V?$basic_string@DU?$char_traits@D@std@@V?$allocator@D@2@@std@@U?$less@V?$basic_string@DU?$char_traits@D@std@@V?$allocator@D@2@@std@@@2@V?$allocator@V?$basic_string@DU?$char_traits@D@std@@V?$allocator@D@2@@std@@@2@@2@@std@@@std@@YAAAU?$pair@$$CBV?$basic_string@DU?$char_traits@D@std@@V?$allocator@D@2@@std@@V?$set@V?$basic_string@DU?$char_traits@D@std@@V?$allocator@D@2@@std@@U?$less@V?$basic_string@DU?$char_traits@D@std@@V?$allocator@D@2@@std@@@2@V?$allocator@V?$basic_string@DU?$char_traits@D@std@@V?$allocator@D@2@@std@@@2@@2@@0@AAU10@@Z 10024800 f i Hooks.obj
 0001:00023800       ??$forward@AAU?$pair@$$CBW4ItemDefinitionIndexx@@UDefItem_t@@@std@@@std@@YAAAU?$pair@$$CBW4ItemDefinitionIndexx@@UDefItem_t@@@0@AAU10@@Z 10024800 f i recvproxy.obj
 0001:00023800       ??$forward@U_Container_proxy@std@@@std@@YA$$QAU_Container_proxy@0@AAU10@@Z 10024800 f i Hooks.obj
 0001:00023800       ??$_Ptr_move_cat@PAV?$ConfigValue@H@@PAV1@@std@@YA?AU_Really_trivial_ptr_iterator_tag@0@ABQAPAV?$ConfigValue@H@@0@Z 10024800 f i Configuration.obj
 0001:00023800       ??$forward@V?$tuple@$$V@std@@@std@@YA$$QAV?$tuple@$$V@0@AAV10@@Z 10024800 f i Hooks.obj
 0001:00023800       ??$_Unchecked@PAPAV?$ConfigValue@M@@@std@@YAPAPAV?$ConfigValue@M@@PAPAV1@@Z 10024800 f i Configuration.obj
 0001:00023800       ??$addressof@$$CBV?$_List_val@U?$_List_simple_types@U?$pair@$$CBV?$basic_string@DU?$char_traits@D@std@@V?$allocator@D@2@@std@@V12@@std@@@std@@@std@@@std@@YAPBV?$_List_val@U?$_List_simple_types@U?$pair@$$CBV?$basic_string@DU?$char_traits@D@std@@V?$allocator@D@2@@std@@V12@@std@@@std@@@0@ABV10@@Z 10024800 f i Hooks.obj
 0001:00023800       ??$forward@AAPAU?$_List_node@U?$pair@$$CBV?$basic_string@DU?$char_traits@D@std@@V?$allocator@D@2@@std@@V12@@std@@PAX@std@@@std@@YAAAPAU?$_List_node@U?$pair@$$CBV?$basic_string@DU?$char_traits@D@std@@V?$allocator@D@2@@std@@V12@@std@@PAX@0@AAPAU10@@Z 10024800 f i Configuration.obj
 0001:00023800       ?select_on_container_copy_construction@?$_Default_allocator_traits@V?$allocator@D@std@@@std@@SA?AV?$allocator@D@2@ABV32@@Z 10024800 f i Configuration.obj
 0001:00023800       ??$addressof@V?$_List_val@U?$_List_simple_types@U?$pair@$$CBV?$basic_string@DU?$char_traits@D@std@@V?$allocator@D@2@@std@@V12@@std@@@std@@@std@@@std@@YAPAV?$_List_val@U?$_List_simple_types@U?$pair@$$CBV?$basic_string@DU?$char_traits@D@std@@V?$allocator@D@2@@std@@V12@@std@@@std@@@0@AAV10@@Z 10024800 f i Hooks.obj
 0001:00023800       ??$addressof@U?$pair@QADPAD@std@@@std@@YAPAU?$pair@QADPAD@0@AAU10@@Z 10024800 f i Hooks.obj
 0001:00023800       ??$forward@ABV?$_List_unchecked_iterator@V?$_List_val@U?$_List_simple_types@U?$pair@$$CBV?$basic_string@DU?$char_traits@D@std@@V?$allocator@D@2@@std@@V12@@std@@@std@@@std@@@std@@@std@@YAABV?$_List_unchecked_iterator@V?$_List_val@U?$_List_simple_types@U?$pair@$$CBV?$basic_string@DU?$char_traits@D@std@@V?$allocator@D@2@@std@@V12@@std@@@std@@@std@@@0@ABV10@@Z 10024800 f i Configuration.obj
 0001:00023800       ??$forward@ABV?$_List_unchecked_iterator@V?$_List_val@U?$_List_simple_types@U?$pair@$$CBV?$basic_string@DU?$char_traits@D@std@@V?$allocator@D@2@@std@@V?$set@V?$basic_string@DU?$char_traits@D@std@@V?$allocator@D@2@@std@@U?$less@V?$basic_string@DU?$char_traits@D@std@@V?$allocator@D@2@@std@@@2@V?$allocator@V?$basic_string@DU?$char_traits@D@std@@V?$allocator@D@2@@std@@@2@@2@@std@@@std@@@std@@@std@@@std@@YAABV?$_List_unchecked_iterator@V?$_List_val@U?$_List_simple_types@U?$pair@$$CBV?$basic_string@DU?$char_traits@D@std@@V?$allocator@D@2@@std@@V?$set@V?$basic_string@DU?$char_traits@D@std@@V?$allocator@D@2@@std@@U?$less@V?$basic_string@DU?$char_traits@D@std@@V?$allocator@D@2@@std@@@2@V?$allocator@V?$basic_string@DU?$char_traits@D@std@@V?$allocator@D@2@@std@@@2@@2@@std@@@std@@@std@@@0@ABV10@@Z 10024800 f i Configuration.obj
 0001:00023800       ??$forward@ABV?$allocator@V?$_List_unchecked_iterator@V?$_List_val@U?$_List_simple_types@U?$pair@QADPAD@std@@@std@@@std@@@std@@@std@@@std@@YAABV?$allocator@V?$_List_unchecked_iterator@V?$_List_val@U?$_List_simple_types@U?$pair@QADPAD@std@@@std@@@std@@@std@@@0@ABV10@@Z 10024800 f i Hooks.obj
 0001:00023800       ??$forward@V?$_List_iterator@V?$_List_val@U?$_List_simple_types@U?$pair@$$CBV?$basic_string@DU?$char_traits@D@std@@V?$allocator@D@2@@std@@V12@@std@@@std@@@std@@@std@@@std@@YA$$QAV?$_List_iterator@V?$_List_val@U?$_List_simple_types@U?$pair@$$CBV?$basic_string@DU?$char_traits@D@std@@V?$allocator@D@2@@std@@V12@@std@@@std@@@std@@@0@AAV10@@Z 10024800 f i Hooks.obj
 0001:00023800       ??$_Unchecked@PAPAV?$shared_ptr@VNode@valve_parser@@@std@@@std@@YAPAPAV?$shared_ptr@VNode@valve_parser@@@0@PAPAV10@@Z 10024800 f i Hooks.obj
 0001:00023800       ??$forward@VVector@@@std@@YA$$QAVVector@@AAV1@@Z 10024800 f i GrenadePrediction.obj
 0001:00023800       ??$forward@V?$allocator@H@std@@@std@@YA$$QAV?$allocator@H@0@AAV10@@Z 10024800 f i Utilities.obj
 0001:00023800       ??$forward@ABV?$allocator@V?$_List_unchecked_iterator@V?$_List_val@U?$_List_simple_types@U?$pair@$$CBV?$basic_string@DU?$char_traits@D@std@@V?$allocator@D@2@@std@@V?$set@V?$basic_string@DU?$char_traits@D@std@@V?$allocator@D@2@@std@@U?$less@V?$basic_string@DU?$char_traits@D@std@@V?$allocator@D@2@@std@@@2@V?$allocator@V?$basic_string@DU?$char_traits@D@std@@V?$allocator@D@2@@std@@@2@@2@@std@@@std@@@std@@@std@@@std@@@std@@YAABV?$allocator@V?$_List_unchecked_iterator@V?$_List_val@U?$_List_simple_types@U?$pair@$$CBV?$basic_string@DU?$char_traits@D@std@@V?$allocator@D@2@@std@@V?$set@V?$basic_string@DU?$char_traits@D@std@@V?$allocator@D@2@@std@@U?$less@V?$basic_string@DU?$char_traits@D@std@@V?$allocator@D@2@@std@@@2@V?$allocator@V?$basic_string@DU?$char_traits@D@std@@V?$allocator@D@2@@std@@@2@@2@@std@@@std@@@std@@@std@@@0@ABV10@@Z 10024800 f i Configuration.obj
 0001:00023800       ??$forward@H@std@@YA$$QAHAAH@Z 10024800 f i RageBot.obj
 0001:00023800       ??$forward@_N@std@@YA$$QA_NAA_N@Z 10024800 f i recvproxy.obj
 0001:00023800       ??$addressof@V?$_List_val@U?$_List_simple_types@U?$pair@$$CBV?$basic_string@DU?$char_traits@D@std@@V?$allocator@D@2@@std@@V?$set@V?$basic_string@DU?$char_traits@D@std@@V?$allocator@D@2@@std@@U?$less@V?$basic_string@DU?$char_traits@D@std@@V?$allocator@D@2@@std@@@2@V?$allocator@V?$basic_string@DU?$char_traits@D@std@@V?$allocator@D@2@@std@@@2@@2@@std@@@std@@@std@@@std@@YAPAV?$_List_val@U?$_List_simple_types@U?$pair@$$CBV?$basic_string@DU?$char_traits@D@std@@V?$allocator@D@2@@std@@V?$set@V?$basic_string@DU?$char_traits@D@std@@V?$allocator@D@2@@std@@U?$less@V?$basic_string@DU?$char_traits@D@std@@V?$allocator@D@2@@std@@@2@V?$allocator@V?$basic_string@DU?$char_traits@D@std@@V?$allocator@D@2@@std@@@2@@2@@std@@@std@@@0@AAV10@@Z 10024800 f i Hooks.obj
 0001:00023800       ??$forward@AAV?$_List_iterator@V?$_List_val@U?$_List_simple_types@U?$pair@$$CBV?$basic_string@DU?$char_traits@D@std@@V?$allocator@D@2@@std@@V12@@std@@@std@@@std@@@std@@@std@@YAAAV?$_List_iterator@V?$_List_val@U?$_List_simple_types@U?$pair@$$CBV?$basic_string@DU?$char_traits@D@std@@V?$allocator@D@2@@std@@V12@@std@@@std@@@std@@@0@AAV10@@Z 10024800 f i Hooks.obj
 0001:00023800       ??$_Unchecked@PBV?$basic_string@DU?$char_traits@D@std@@V?$allocator@D@2@@std@@@std@@YAPBV?$basic_string@DU?$char_traits@D@std@@V?$allocator@D@2@@0@PBV10@@Z 10024800 f i Hooks.obj
 0001:00023800       ??$addressof@V?$_List_val@U?$_List_simple_types@U?$pair@$$CBV?$basic_string@DU?$char_traits@D@std@@V?$allocator@D@2@@std@@UskinInfo@@@std@@@std@@@std@@@std@@YAPAV?$_List_val@U?$_List_simple_types@U?$pair@$$CBV?$basic_string@DU?$char_traits@D@std@@V?$allocator@D@2@@std@@UskinInfo@@@std@@@std@@@0@AAV10@@Z 10024800 f i Hooks.obj
 0001:00023800       ??$move@AAPAV?$ConfigValue@M@@@std@@YA$$QAPAV?$ConfigValue@M@@AAPAV1@@Z 10024800 f i Configuration.obj
 0001:00023800       ??$_Unchecked@PAV?$_List_unchecked_iterator@V?$_List_val@U?$_List_simple_types@U?$pair@QADPAD@std@@@std@@@std@@@std@@@std@@YAPAV?$_List_unchecked_iterator@V?$_List_val@U?$_List_simple_types@U?$pair@QADPAD@std@@@std@@@std@@@0@PAV10@@Z 10024800 f i Hooks.obj
 0001:00023800       ??$forward@ABV?$_List_unchecked_iterator@V?$_List_val@U?$_List_simple_types@U?$pair@QADPAD@std@@@std@@@std@@@std@@@std@@YAABV?$_List_unchecked_iterator@V?$_List_val@U?$_List_simple_types@U?$pair@QADPAD@std@@@std@@@std@@@0@ABV10@@Z 10024800 f i Hooks.obj
 0001:00023800       ??$_Unfancy@VVector@@@std@@YAPAVVector@@PAV1@@Z 10024800 f i GrenadePrediction.obj
 0001:00023800       ??$addressof@U?$pair@$$CBW4ItemDefinitionIndexx@@UDefItem_t@@@std@@@std@@YAPAU?$pair@$$CBW4ItemDefinitionIndexx@@UDefItem_t@@@0@AAU10@@Z 10024800 f i recvproxy.obj
 0001:00023800       ??$forward@AAV?$_Tree_iterator@V?$_Tree_val@U?$_Tree_simple_types@U?$pair@$$CBW4ItemDefinitionIndexx@@UDefItem_t@@@std@@@std@@@std@@@std@@@std@@YAAAV?$_Tree_iterator@V?$_Tree_val@U?$_Tree_simple_types@U?$pair@$$CBW4ItemDefinitionIndexx@@UDefItem_t@@@std@@@std@@@std@@@0@AAV10@@Z 10024800 f i recvproxy.obj
 0001:00023800       ??$_Ptr_move_cat@PAV?$ConfigValue@_N@@PAV1@@std@@YA?AU_Really_trivial_ptr_iterator_tag@0@ABQAPAV?$ConfigValue@_N@@0@Z 10024800 f i Configuration.obj
 0001:00023800       ??$move@AAPAV_Ref_count_base@std@@@std@@YA$$QAPAV_Ref_count_base@0@AAPAV10@@Z 10024800 f i Parser.obj
 0001:00023800       ??$forward@AAU?$hash@V?$basic_string@DU?$char_traits@D@std@@V?$allocator@D@2@@std@@@std@@@std@@YAAAU?$hash@V?$basic_string@DU?$char_traits@D@std@@V?$allocator@D@2@@std@@@0@AAU10@@Z 10024800 f i Configuration.obj
 0001:00023800       ??$_Unchecked@PAV?$_List_unchecked_iterator@V?$_List_val@U?$_List_simple_types@U?$pair@$$CBV?$basic_string@DU?$char_traits@D@std@@V?$allocator@D@2@@std@@UskinInfo@@@std@@@std@@@std@@@std@@@std@@YAPAV?$_List_unchecked_iterator@V?$_List_val@U?$_List_simple_types@U?$pair@$$CBV?$basic_string@DU?$char_traits@D@std@@V?$allocator@D@2@@std@@UskinInfo@@@std@@@std@@@std@@@0@PAV10@@Z 10024800 f i Configuration.obj
 0001:00023800       ??$move@AAPAV?$ConfigValue@H@@@std@@YA$$QAPAV?$ConfigValue@H@@AAPAV1@@Z 10024800 f i Configuration.obj
 0001:00023800       ??$_Unchecked@PA_S@std@@YAPA_SPA_S@Z 10024800 f i Parser.obj
 0001:00023800       ??$forward@V?$_Tree_iterator@V?$_Tree_val@U?$_Tree_simple_types@U?$pair@$$CBW4ItemDefinitionIndexx@@UDefItem_t@@@std@@@std@@@std@@@std@@@std@@YA$$QAV?$_Tree_iterator@V?$_Tree_val@U?$_Tree_simple_types@U?$pair@$$CBW4ItemDefinitionIndexx@@UDefItem_t@@@std@@@std@@@std@@@0@AAV10@@Z 10024800 f i recvproxy.obj
 0001:00023800       ??$move@AAV?$shared_ptr@VKeyValue@valve_parser@@@std@@@std@@YA$$QAV?$shared_ptr@VKeyValue@valve_parser@@@0@AAV10@@Z 10024800 f i Parser.obj
 0001:00023800       ??$forward@AAPAU?$_Tree_node@U?$pair@$$CBW4ItemDefinitionIndexx@@UDefItem_t@@@std@@PAX@std@@@std@@YAAAPAU?$_Tree_node@U?$pair@$$CBW4ItemDefinitionIndexx@@UDefItem_t@@@std@@PAX@0@AAPAU10@@Z 10024800 f i recvproxy.obj
 0001:00023800       ??$forward@ABV?$allocator@D@std@@@std@@YAABV?$allocator@D@0@ABV10@@Z 10024800 f i Parser.obj
 0001:00023800       ??$forward@ABV?$allocator@U?$pair@$$CBV?$basic_string@DU?$char_traits@D@std@@V?$allocator@D@2@@std@@UskinInfo@@@std@@@std@@@std@@YAABV?$allocator@U?$pair@$$CBV?$basic_string@DU?$char_traits@D@std@@V?$allocator@D@2@@std@@UskinInfo@@@std@@@0@ABV10@@Z 10024800 f i Configuration.obj
 0001:00023800       ??$forward@AAPAU?$_List_node@U?$pair@$$CBV?$basic_string@DU?$char_traits@D@std@@V?$allocator@D@2@@std@@V?$set@V?$basic_string@DU?$char_traits@D@std@@V?$allocator@D@2@@std@@U?$less@V?$basic_string@DU?$char_traits@D@std@@V?$allocator@D@2@@std@@@2@V?$allocator@V?$basic_string@DU?$char_traits@D@std@@V?$allocator@D@2@@std@@@2@@2@@std@@PAX@std@@@std@@YAAAPAU?$_List_node@U?$pair@$$CBV?$basic_string@DU?$char_traits@D@std@@V?$allocator@D@2@@std@@V?$set@V?$basic_string@DU?$char_traits@D@std@@V?$allocator@D@2@@std@@U?$less@V?$basic_string@DU?$char_traits@D@std@@V?$allocator@D@2@@std@@@2@V?$allocator@V?$basic_string@DU?$char_traits@D@std@@V?$allocator@D@2@@std@@@2@@2@@std@@PAX@0@AAPAU10@@Z 10024800 f i Configuration.obj
 0001:00023800       ??$move@AAV?$vector@V?$shared_ptr@VNode@valve_parser@@@std@@V?$allocator@V?$shared_ptr@VNode@valve_parser@@@std@@@2@@std@@@std@@YA$$QAV?$vector@V?$shared_ptr@VNode@valve_parser@@@std@@V?$allocator@V?$shared_ptr@VNode@valve_parser@@@std@@@2@@0@AAV10@@Z 10024800 f i Hooks.obj
 0001:00023800       ??$forward@ABV?$allocator@U?$pair@$$CBV?$basic_string@DU?$char_traits@D@std@@V?$allocator@D@2@@std@@V?$set@V?$basic_string@DU?$char_traits@D@std@@V?$allocator@D@2@@std@@U?$less@V?$basic_string@DU?$char_traits@D@std@@V?$allocator@D@2@@std@@@2@V?$allocator@V?$basic_string@DU?$char_traits@D@std@@V?$allocator@D@2@@std@@@2@@2@@std@@@std@@@std@@YAABV?$allocator@U?$pair@$$CBV?$basic_string@DU?$char_traits@D@std@@V?$allocator@D@2@@std@@V?$set@V?$basic_string@DU?$char_traits@D@std@@V?$allocator@D@2@@std@@U?$less@V?$basic_string@DU?$char_traits@D@std@@V?$allocator@D@2@@std@@@2@V?$allocator@V?$basic_string@DU?$char_traits@D@std@@V?$allocator@D@2@@std@@@2@@2@@std@@@0@ABV10@@Z 10024800 f i Configuration.obj
 0001:00023800       ??$forward@AAU?$equal_to@V?$basic_string@DU?$char_traits@D@std@@V?$allocator@D@2@@std@@@std@@@std@@YAAAU?$equal_to@V?$basic_string@DU?$char_traits@D@std@@V?$allocator@D@2@@std@@@0@AAU10@@Z 10024800 f i Configuration.obj
 0001:00023800       ??$addressof@V?$_Vector_val@U?$_Simple_types@PAURecvTable@@@std@@@std@@@std@@YAPAV?$_Vector_val@U?$_Simple_types@PAURecvTable@@@std@@@0@AAV10@@Z 10024800 f i NetVarManager.obj
 0001:00023800       ??$move@AAPAVNode@valve_parser@@@std@@YA$$QAPAVNode@valve_parser@@AAPAV12@@Z 10024800 f i Parser.obj
 0001:00023800       ??$_Unfancy@V?$_List_unchecked_iterator@V?$_List_val@U?$_List_simple_types@U?$pair@$$CBV?$basic_string@DU?$char_traits@D@std@@V?$allocator@D@2@@std@@UskinInfo@@@std@@@std@@@std@@@std@@@std@@YAPAV?$_List_unchecked_iterator@V?$_List_val@U?$_List_simple_types@U?$pair@$$CBV?$basic_string@DU?$char_traits@D@std@@V?$allocator@D@2@@std@@UskinInfo@@@std@@@std@@@std@@@0@PAV10@@Z 10024800 f i Configuration.obj
 0001:00023800       ??$move@AAH@std@@YA$$QAHAAH@Z 10024800 f i RageBot.obj
 0001:00023800       ??$forward@AAV?$_List_iterator@V?$_List_val@U?$_List_simple_types@U?$pair@$$CBV?$basic_string@DU?$char_traits@D@std@@V?$allocator@D@2@@std@@UskinInfo@@@std@@@std@@@std@@@std@@@std@@YAAAV?$_List_iterator@V?$_List_val@U?$_List_simple_types@U?$pair@$$CBV?$basic_string@DU?$char_traits@D@std@@V?$allocator@D@2@@std@@UskinInfo@@@std@@@std@@@std@@@0@AAV10@@Z 10024800 f i Hooks.obj
 0001:00023800       ??$addressof@V?$_Vector_val@U?$_Simple_types@_S@std@@@std@@@std@@YAPAV?$_Vector_val@U?$_Simple_types@_S@std@@@0@AAV10@@Z 10024800 f i Parser.obj
 0001:00023800       ??$forward@V?$basic_string@DU?$char_traits@D@std@@V?$allocator@D@2@@std@@@std@@YA$$QAV?$basic_string@DU?$char_traits@D@std@@V?$allocator@D@2@@0@AAV10@@Z 10024800 f i Hooks.obj
 0001:00023800       ??$addressof@V?$_Vector_val@U?$_Simple_types@VVector@@@std@@@std@@@std@@YAPAV?$_Vector_val@U?$_Simple_types@VVector@@@std@@@0@AAV10@@Z 10024800 f i GrenadePrediction.obj
 0001:00023800       ??$_Unfancy@PAURecvTable@@@std@@YAPAPAURecvTable@@PAPAU1@@Z 10024800 f i NetVarManager.obj
 0001:00023800       ??$_Unfancy@V?$basic_string@DU?$char_traits@D@std@@V?$allocator@D@2@@std@@@std@@YAPAV?$basic_string@DU?$char_traits@D@std@@V?$allocator@D@2@@0@PAV10@@Z 10024800 f i Configuration.obj
 0001:00023800       ??$addressof@U?$pair@$$CBV?$basic_string@DU?$char_traits@D@std@@V?$allocator@D@2@@std@@V12@@std@@@std@@YAPAU?$pair@$$CBV?$basic_string@DU?$char_traits@D@std@@V?$allocator@D@2@@std@@V12@@0@AAU10@@Z 10024800 f i Configuration.obj
 0001:00023800       ??$_Ptr_move_cat@V?$_List_unchecked_iterator@V?$_List_val@U?$_List_simple_types@U?$pair@$$CBV?$basic_string@DU?$char_traits@D@std@@V?$allocator@D@2@@std@@V?$set@V?$basic_string@DU?$char_traits@D@std@@V?$allocator@D@2@@std@@U?$less@V?$basic_string@DU?$char_traits@D@std@@V?$allocator@D@2@@std@@@2@V?$allocator@V?$basic_string@DU?$char_traits@D@std@@V?$allocator@D@2@@std@@@2@@2@@std@@@std@@@std@@@std@@V12@@std@@YA?AU_Trivially_copyable_ptr_iterator_tag@0@ABQAV?$_List_unchecked_iterator@V?$_List_val@U?$_List_simple_types@U?$pair@$$CBV?$basic_string@DU?$char_traits@D@std@@V?$allocator@D@2@@std@@V?$set@V?$basic_string@DU?$char_traits@D@std@@V?$allocator@D@2@@std@@U?$less@V?$basic_string@DU?$char_traits@D@std@@V?$allocator@D@2@@std@@@2@V?$allocator@V?$basic_string@DU?$char_traits@D@std@@V?$allocator@D@2@@std@@@2@@2@@std@@@std@@@std@@@0@0@Z 10024800 f i Configuration.obj
 0001:00023800       ??$move@AAV?$allocator@V?$shared_ptr@VNode@valve_parser@@@std@@@std@@@std@@YA$$QAV?$allocator@V?$shared_ptr@VNode@valve_parser@@@std@@@0@AAV10@@Z 10024800 f i Hooks.obj
 0001:00023800       ??$forward@AAV?$_Tree_const_iterator@V?$_Tree_val@U?$_Tree_simple_types@V?$basic_string@DU?$char_traits@D@std@@V?$allocator@D@2@@std@@@std@@@std@@@std@@@std@@YAAAV?$_Tree_const_iterator@V?$_Tree_val@U?$_Tree_simple_types@V?$basic_string@DU?$char_traits@D@std@@V?$allocator@D@2@@std@@@std@@@std@@@0@AAV10@@Z 10024800 f i Hooks.obj
 0001:00023800       ??$forward@AAU?$pair@$$CBV?$basic_string@DU?$char_traits@D@std@@V?$allocator@D@2@@std@@V12@@std@@@std@@YAAAU?$pair@$$CBV?$basic_string@DU?$char_traits@D@std@@V?$allocator@D@2@@std@@V12@@0@AAU10@@Z 10024800 f i Hooks.obj
 0001:00023800       ??$forward@AAV?$_List_iterator@V?$_List_val@U?$_List_simple_types@U?$pair@$$CBV?$basic_string@DU?$char_traits@D@std@@V?$allocator@D@2@@std@@V?$set@V?$basic_string@DU?$char_traits@D@std@@V?$allocator@D@2@@std@@U?$less@V?$basic_string@DU?$char_traits@D@std@@V?$allocator@D@2@@std@@@2@V?$allocator@V?$basic_string@DU?$char_traits@D@std@@V?$allocator@D@2@@std@@@2@@2@@std@@@std@@@std@@@std@@@std@@YAAAV?$_List_iterator@V?$_List_val@U?$_List_simple_types@U?$pair@$$CBV?$basic_string@DU?$char_traits@D@std@@V?$allocator@D@2@@std@@V?$set@V?$basic_string@DU?$char_traits@D@std@@V?$allocator@D@2@@std@@U?$less@V?$basic_string@DU?$char_traits@D@std@@V?$allocator@D@2@@std@@@2@V?$allocator@V?$basic_string@DU?$char_traits@D@std@@V?$allocator@D@2@@std@@@2@@2@@std@@@std@@@std@@@0@AAV10@@Z 10024800 f i Hooks.obj
 0001:00023800       ??$_Unchecked@PAV?$_List_unchecked_iterator@V?$_List_val@U?$_List_simple_types@U?$pair@$$CBV?$basic_string@DU?$char_traits@D@std@@V?$allocator@D@2@@std@@V12@@std@@@std@@@std@@@std@@@std@@YAPAV?$_List_unchecked_iterator@V?$_List_val@U?$_List_simple_types@U?$pair@$$CBV?$basic_string@DU?$char_traits@D@std@@V?$allocator@D@2@@std@@V12@@std@@@std@@@std@@@0@PAV10@@Z 10024800 f i Configuration.obj
 0001:00023800       ??$forward@PAV?$ConfigValue@H@@@std@@YA$$QAPAV?$ConfigValue@H@@AAPAV1@@Z 10024800 f i Configuration.obj
 0001:00023800       ??$addressof@PAU?$_List_node@U?$pair@$$CBV?$basic_string@DU?$char_traits@D@std@@V?$allocator@D@2@@std@@V?$set@V?$basic_string@DU?$char_traits@D@std@@V?$allocator@D@2@@std@@U?$less@V?$basic_string@DU?$char_traits@D@std@@V?$allocator@D@2@@std@@@2@V?$allocator@V?$basic_string@DU?$char_traits@D@std@@V?$allocator@D@2@@std@@@2@@2@@std@@PAX@std@@@std@@YAPAPAU?$_List_node@U?$pair@$$CBV?$basic_string@DU?$char_traits@D@std@@V?$allocator@D@2@@std@@V?$set@V?$basic_string@DU?$char_traits@D@std@@V?$allocator@D@2@@std@@U?$less@V?$basic_string@DU?$char_traits@D@std@@V?$allocator@D@2@@std@@@2@V?$allocator@V?$basic_string@DU?$char_traits@D@std@@V?$allocator@D@2@@std@@@2@@2@@std@@PAX@0@AAPAU10@@Z 10024800 f i Configuration.obj
 0001:00023800       ??$_Unfancy@V?$_List_unchecked_iterator@V?$_List_val@U?$_List_simple_types@U?$pair@QADPAD@std@@@std@@@std@@@std@@@std@@YAPAV?$_List_unchecked_iterator@V?$_List_val@U?$_List_simple_types@U?$pair@QADPAD@std@@@std@@@std@@@0@PAV10@@Z 10024800 f i Hooks.obj
 0001:00023800       ??$forward@ABV?$_List_unchecked_iterator@V?$_List_val@U?$_List_simple_types@U?$pair@$$CBV?$basic_string@DU?$char_traits@D@std@@V?$allocator@D@2@@std@@UskinInfo@@@std@@@std@@@std@@@std@@@std@@YAABV?$_List_unchecked_iterator@V?$_List_val@U?$_List_simple_types@U?$pair@$$CBV?$basic_string@DU?$char_traits@D@std@@V?$allocator@D@2@@std@@UskinInfo@@@std@@@std@@@std@@@0@ABV10@@Z 10024800 f i Configuration.obj
 0001:00023800       ??$_Unfancy@U_Container_proxy@std@@@std@@YAPAU_Container_proxy@0@PAU10@@Z 10024800 f i Hooks.obj
 0001:00023800       ??$_Unfancy@D@std@@YAPADPAD@Z 10024800 f i Parser.obj
 0001:00023800       ??$_Ptr_move_cat@V?$_List_unchecked_iterator@V?$_List_val@U?$_List_simple_types@U?$pair@QADPAD@std@@@std@@@std@@@std@@V12@@std@@YA?AU_Trivially_copyable_ptr_iterator_tag@0@ABQAV?$_List_unchecked_iterator@V?$_List_val@U?$_List_simple_types@U?$pair@QADPAD@std@@@std@@@std@@@0@0@Z 10024800 f i Hooks.obj
 0001:00023800       ??$forward@ABV?$basic_string@DU?$char_traits@D@std@@V?$allocator@D@2@@std@@@std@@YAABV?$basic_string@DU?$char_traits@D@std@@V?$allocator@D@2@@0@ABV10@@Z 10024800 f i Hooks.obj
 0001:00023800       ??$_Unfancy@PAV?$ConfigValue@_N@@@std@@YAPAPAV?$ConfigValue@_N@@PAPAV1@@Z 10024800 f i Configuration.obj
 0001:00023810       ??$_Uninit_alloc_fill_n1@PAV?$_List_unchecked_iterator@V?$_List_val@U?$_List_simple_types@U?$pair@$$CBV?$basic_string@DU?$char_traits@D@std@@V?$allocator@D@2@@std@@V?$set@V?$basic_string@DU?$char_traits@D@std@@V?$allocator@D@2@@std@@U?$less@V?$basic_string@DU?$char_traits@D@std@@V?$allocator@D@2@@std@@@2@V?$allocator@V?$basic_string@DU?$char_traits@D@std@@V?$allocator@D@2@@std@@@2@@2@@std@@@std@@@std@@@std@@IV?$allocator@V?$_List_unchecked_iterator@V?$_List_val@U?$_List_simple_types@U?$pair@$$CBV?$basic_string@DU?$char_traits@D@std@@V?$allocator@D@2@@std@@V?$set@V?$basic_string@DU?$char_traits@D@std@@V?$allocator@D@2@@std@@U?$less@V?$basic_string@DU?$char_traits@D@std@@V?$allocator@D@2@@std@@@2@V?$allocator@V?$basic_string@DU?$char_traits@D@std@@V?$allocator@D@2@@std@@@2@@2@@std@@@std@@@std@@@std@@@2@@std@@YAPAV?$_List_unchecked_iterator@V?$_List_val@U?$_List_simple_types@U?$pair@$$CBV?$basic_string@DU?$char_traits@D@std@@V?$allocator@D@2@@std@@V?$set@V?$basic_string@DU?$char_traits@D@std@@V?$allocator@D@2@@std@@U?$less@V?$basic_string@DU?$char_traits@D@std@@V?$allocator@D@2@@std@@@2@V?$allocator@V?$basic_string@DU?$char_traits@D@std@@V?$allocator@D@2@@std@@@2@@2@@std@@@std@@@std@@@0@PAV10@IABV10@AAV?$allocator@V?$_List_unchecked_iterator@V?$_List_val@U?$_List_simple_types@U?$pair@$$CBV?$basic_string@DU?$char_traits@D@std@@V?$allocator@D@2@@std@@V?$set@V?$basic_string@DU?$char_traits@D@std@@V?$allocator@D@2@@std@@U?$less@V?$basic_string@DU?$char_traits@D@std@@V?$allocator@D@2@@std@@@2@V?$allocator@V?$basic_string@DU?$char_traits@D@std@@V?$allocator@D@2@@std@@@2@@2@@std@@@std@@@std@@@std@@@0@U?$integral_constant@_N$0A@@0@@Z 10024810 f i Configuration.obj
 0001:00023810       ??$_Uninit_alloc_fill_n1@PAV?$_List_unchecked_iterator@V?$_List_val@U?$_List_simple_types@U?$pair@QADPAD@std@@@std@@@std@@@std@@IV?$allocator@V?$_List_unchecked_iterator@V?$_List_val@U?$_List_simple_types@U?$pair@QADPAD@std@@@std@@@std@@@std@@@2@@std@@YAPAV?$_List_unchecked_iterator@V?$_List_val@U?$_List_simple_types@U?$pair@QADPAD@std@@@std@@@std@@@0@PAV10@IABV10@AAV?$allocator@V?$_List_unchecked_iterator@V?$_List_val@U?$_List_simple_types@U?$pair@QADPAD@std@@@std@@@std@@@std@@@0@U?$integral_constant@_N$0A@@0@@Z 10024810 f i Hooks.obj
 0001:00023810       ??$_Uninit_alloc_fill_n1@PAV?$_List_unchecked_iterator@V?$_List_val@U?$_List_simple_types@U?$pair@$$CBV?$basic_string@DU?$char_traits@D@std@@V?$allocator@D@2@@std@@UskinInfo@@@std@@@std@@@std@@@std@@IV?$allocator@V?$_List_unchecked_iterator@V?$_List_val@U?$_List_simple_types@U?$pair@$$CBV?$basic_string@DU?$char_traits@D@std@@V?$allocator@D@2@@std@@UskinInfo@@@std@@@std@@@std@@@std@@@2@@std@@YAPAV?$_List_unchecked_iterator@V?$_List_val@U?$_List_simple_types@U?$pair@$$CBV?$basic_string@DU?$char_traits@D@std@@V?$allocator@D@2@@std@@UskinInfo@@@std@@@std@@@std@@@0@PAV10@IABV10@AAV?$allocator@V?$_List_unchecked_iterator@V?$_List_val@U?$_List_simple_types@U?$pair@$$CBV?$basic_string@DU?$char_traits@D@std@@V?$allocator@D@2@@std@@UskinInfo@@@std@@@std@@@std@@@std@@@0@U?$integral_constant@_N$0A@@0@@Z 10024810 f i Configuration.obj
 0001:00023810       ??$_Uninit_alloc_fill_n1@PAV?$_List_unchecked_iterator@V?$_List_val@U?$_List_simple_types@U?$pair@$$CBV?$basic_string@DU?$char_traits@D@std@@V?$allocator@D@2@@std@@V12@@std@@@std@@@std@@@std@@IV?$allocator@V?$_List_unchecked_iterator@V?$_List_val@U?$_List_simple_types@U?$pair@$$CBV?$basic_string@DU?$char_traits@D@std@@V?$allocator@D@2@@std@@V12@@std@@@std@@@std@@@std@@@2@@std@@YAPAV?$_List_unchecked_iterator@V?$_List_val@U?$_List_simple_types@U?$pair@$$CBV?$basic_string@DU?$char_traits@D@std@@V?$allocator@D@2@@std@@V12@@std@@@std@@@std@@@0@PAV10@IABV10@AAV?$allocator@V?$_List_unchecked_iterator@V?$_List_val@U?$_List_simple_types@U?$pair@$$CBV?$basic_string@DU?$char_traits@D@std@@V?$allocator@D@2@@std@@V12@@std@@@std@@@std@@@std@@@0@U?$integral_constant@_N$0A@@0@@Z 10024810 f i Configuration.obj
 0001:000238e0       ??$_Uninitialized_fill_n@PAV?$_List_unchecked_iterator@V?$_List_val@U?$_List_simple_types@U?$pair@QADPAD@std@@@std@@@std@@@std@@IV?$allocator@V?$_List_unchecked_iterator@V?$_List_val@U?$_List_simple_types@U?$pair@QADPAD@std@@@std@@@std@@@std@@@2@@std@@YAPAV?$_List_unchecked_iterator@V?$_List_val@U?$_List_simple_types@U?$pair@QADPAD@std@@@std@@@std@@@0@PAV10@IABV10@AAV?$allocator@V?$_List_unchecked_iterator@V?$_List_val@U?$_List_simple_types@U?$pair@QADPAD@std@@@std@@@std@@@std@@@0@@Z 100248e0 f i Hooks.obj
 0001:000238e0       ??$_Uninitialized_fill_n@PAV?$_List_unchecked_iterator@V?$_List_val@U?$_List_simple_types@U?$pair@$$CBV?$basic_string@DU?$char_traits@D@std@@V?$allocator@D@2@@std@@UskinInfo@@@std@@@std@@@std@@@std@@IV?$allocator@V?$_List_unchecked_iterator@V?$_List_val@U?$_List_simple_types@U?$pair@$$CBV?$basic_string@DU?$char_traits@D@std@@V?$allocator@D@2@@std@@UskinInfo@@@std@@@std@@@std@@@std@@@2@@std@@YAPAV?$_List_unchecked_iterator@V?$_List_val@U?$_List_simple_types@U?$pair@$$CBV?$basic_string@DU?$char_traits@D@std@@V?$allocator@D@2@@std@@UskinInfo@@@std@@@std@@@std@@@0@PAV10@IABV10@AAV?$allocator@V?$_List_unchecked_iterator@V?$_List_val@U?$_List_simple_types@U?$pair@$$CBV?$basic_string@DU?$char_traits@D@std@@V?$allocator@D@2@@std@@UskinInfo@@@std@@@std@@@std@@@std@@@0@@Z 100248e0 f i Configuration.obj
 0001:000238e0       ??$_Uninitialized_fill_n@PAV?$_List_unchecked_iterator@V?$_List_val@U?$_List_simple_types@U?$pair@$$CBV?$basic_string@DU?$char_traits@D@std@@V?$allocator@D@2@@std@@V?$set@V?$basic_string@DU?$char_traits@D@std@@V?$allocator@D@2@@std@@U?$less@V?$basic_string@DU?$char_traits@D@std@@V?$allocator@D@2@@std@@@2@V?$allocator@V?$basic_string@DU?$char_traits@D@std@@V?$allocator@D@2@@std@@@2@@2@@std@@@std@@@std@@@std@@IV?$allocator@V?$_List_unchecked_iterator@V?$_List_val@U?$_List_simple_types@U?$pair@$$CBV?$basic_string@DU?$char_traits@D@std@@V?$allocator@D@2@@std@@V?$set@V?$basic_string@DU?$char_traits@D@std@@V?$allocator@D@2@@std@@U?$less@V?$basic_string@DU?$char_traits@D@std@@V?$allocator@D@2@@std@@@2@V?$allocator@V?$basic_string@DU?$char_traits@D@std@@V?$allocator@D@2@@std@@@2@@2@@std@@@std@@@std@@@std@@@2@@std@@YAPAV?$_List_unchecked_iterator@V?$_List_val@U?$_List_simple_types@U?$pair@$$CBV?$basic_string@DU?$char_traits@D@std@@V?$allocator@D@2@@std@@V?$set@V?$basic_string@DU?$char_traits@D@std@@V?$allocator@D@2@@std@@U?$less@V?$basic_string@DU?$char_traits@D@std@@V?$allocator@D@2@@std@@@2@V?$allocator@V?$basic_string@DU?$char_traits@D@std@@V?$allocator@D@2@@std@@@2@@2@@std@@@std@@@std@@@0@PAV10@IABV10@AAV?$allocator@V?$_List_unchecked_iterator@V?$_List_val@U?$_List_simple_types@U?$pair@$$CBV?$basic_string@DU?$char_traits@D@std@@V?$allocator@D@2@@std@@V?$set@V?$basic_string@DU?$char_traits@D@std@@V?$allocator@D@2@@std@@U?$less@V?$basic_string@DU?$char_traits@D@std@@V?$allocator@D@2@@std@@@2@V?$allocator@V?$basic_string@DU?$char_traits@D@std@@V?$allocator@D@2@@std@@@2@@2@@std@@@std@@@std@@@std@@@0@@Z 100248e0 f i Configuration.obj
 0001:000238e0       ??$_Uninitialized_fill_n@PAV?$_List_unchecked_iterator@V?$_List_val@U?$_List_simple_types@U?$pair@$$CBV?$basic_string@DU?$char_traits@D@std@@V?$allocator@D@2@@std@@V12@@std@@@std@@@std@@@std@@IV?$allocator@V?$_List_unchecked_iterator@V?$_List_val@U?$_List_simple_types@U?$pair@$$CBV?$basic_string@DU?$char_traits@D@std@@V?$allocator@D@2@@std@@V12@@std@@@std@@@std@@@std@@@2@@std@@YAPAV?$_List_unchecked_iterator@V?$_List_val@U?$_List_simple_types@U?$pair@$$CBV?$basic_string@DU?$char_traits@D@std@@V?$allocator@D@2@@std@@V12@@std@@@std@@@std@@@0@PAV10@IABV10@AAV?$allocator@V?$_List_unchecked_iterator@V?$_List_val@U?$_List_simple_types@U?$pair@$$CBV?$basic_string@DU?$char_traits@D@std@@V?$allocator@D@2@@std@@V12@@std@@@std@@@std@@@std@@@0@@Z 100248e0 f i Configuration.obj
 0001:00023910       ??$_Uninitialized_move@PAV?$_List_unchecked_iterator@V?$_List_val@U?$_List_simple_types@U?$pair@$$CBV?$basic_string@DU?$char_traits@D@std@@V?$allocator@D@2@@std@@UskinInfo@@@std@@@std@@@std@@@std@@PAV12@V?$allocator@V?$_List_unchecked_iterator@V?$_List_val@U?$_List_simple_types@U?$pair@$$CBV?$basic_string@DU?$char_traits@D@std@@V?$allocator@D@2@@std@@UskinInfo@@@std@@@std@@@std@@@std@@@2@@std@@YAPAV?$_List_unchecked_iterator@V?$_List_val@U?$_List_simple_types@U?$pair@$$CBV?$basic_string@DU?$char_traits@D@std@@V?$allocator@D@2@@std@@UskinInfo@@@std@@@std@@@std@@@0@PAV10@00AAV?$allocator@V?$_List_unchecked_iterator@V?$_List_val@U?$_List_simple_types@U?$pair@$$CBV?$basic_string@DU?$char_traits@D@std@@V?$allocator@D@2@@std@@UskinInfo@@@std@@@std@@@std@@@std@@@0@@Z 10024910 f i Configuration.obj
 0001:00023910       ??$_Uninitialized_move@PAV?$_List_unchecked_iterator@V?$_List_val@U?$_List_simple_types@U?$pair@$$CBV?$basic_string@DU?$char_traits@D@std@@V?$allocator@D@2@@std@@V?$set@V?$basic_string@DU?$char_traits@D@std@@V?$allocator@D@2@@std@@U?$less@V?$basic_string@DU?$char_traits@D@std@@V?$allocator@D@2@@std@@@2@V?$allocator@V?$basic_string@DU?$char_traits@D@std@@V?$allocator@D@2@@std@@@2@@2@@std@@@std@@@std@@@std@@PAV12@V?$allocator@V?$_List_unchecked_iterator@V?$_List_val@U?$_List_simple_types@U?$pair@$$CBV?$basic_string@DU?$char_traits@D@std@@V?$allocator@D@2@@std@@V?$set@V?$basic_string@DU?$char_traits@D@std@@V?$allocator@D@2@@std@@U?$less@V?$basic_string@DU?$char_traits@D@std@@V?$allocator@D@2@@std@@@2@V?$allocator@V?$basic_string@DU?$char_traits@D@std@@V?$allocator@D@2@@std@@@2@@2@@std@@@std@@@std@@@std@@@2@@std@@YAPAV?$_List_unchecked_iterator@V?$_List_val@U?$_List_simple_types@U?$pair@$$CBV?$basic_string@DU?$char_traits@D@std@@V?$allocator@D@2@@std@@V?$set@V?$basic_string@DU?$char_traits@D@std@@V?$allocator@D@2@@std@@U?$less@V?$basic_string@DU?$char_traits@D@std@@V?$allocator@D@2@@std@@@2@V?$allocator@V?$basic_string@DU?$char_traits@D@std@@V?$allocator@D@2@@std@@@2@@2@@std@@@std@@@std@@@0@PAV10@00AAV?$allocator@V?$_List_unchecked_iterator@V?$_List_val@U?$_List_simple_types@U?$pair@$$CBV?$basic_string@DU?$char_traits@D@std@@V?$allocator@D@2@@std@@V?$set@V?$basic_string@DU?$char_traits@D@std@@V?$allocator@D@2@@std@@U?$less@V?$basic_string@DU?$char_traits@D@std@@V?$allocator@D@2@@std@@@2@V?$allocator@V?$basic_string@DU?$char_traits@D@std@@V?$allocator@D@2@@std@@@2@@2@@std@@@std@@@std@@@std@@@0@@Z 10024910 f i Configuration.obj
 0001:00023910       ??$_Uninitialized_move@PAV?$_List_unchecked_iterator@V?$_List_val@U?$_List_simple_types@U?$pair@$$CBV?$basic_string@DU?$char_traits@D@std@@V?$allocator@D@2@@std@@V12@@std@@@std@@@std@@@std@@PAV12@V?$allocator@V?$_List_unchecked_iterator@V?$_List_val@U?$_List_simple_types@U?$pair@$$CBV?$basic_string@DU?$char_traits@D@std@@V?$allocator@D@2@@std@@V12@@std@@@std@@@std@@@std@@@2@@std@@YAPAV?$_List_unchecked_iterator@V?$_List_val@U?$_List_simple_types@U?$pair@$$CBV?$basic_string@DU?$char_traits@D@std@@V?$allocator@D@2@@std@@V12@@std@@@std@@@std@@@0@PAV10@00AAV?$allocator@V?$_List_unchecked_iterator@V?$_List_val@U?$_List_simple_types@U?$pair@$$CBV?$basic_string@DU?$char_traits@D@std@@V?$allocator@D@2@@std@@V12@@std@@@std@@@std@@@std@@@0@@Z 10024910 f i Configuration.obj
 0001:00023910       ??$_Uninitialized_move@PAV?$_List_unchecked_iterator@V?$_List_val@U?$_List_simple_types@U?$pair@QADPAD@std@@@std@@@std@@@std@@PAV12@V?$allocator@V?$_List_unchecked_iterator@V?$_List_val@U?$_List_simple_types@U?$pair@QADPAD@std@@@std@@@std@@@std@@@2@@std@@YAPAV?$_List_unchecked_iterator@V?$_List_val@U?$_List_simple_types@U?$pair@QADPAD@std@@@std@@@std@@@0@PAV10@00AAV?$allocator@V?$_List_unchecked_iterator@V?$_List_val@U?$_List_simple_types@U?$pair@QADPAD@std@@@std@@@std@@@std@@@0@@Z 10024910 f i Hooks.obj
 0001:000239a0       ??$_Uninitialized_move_al_unchecked@PAV?$_List_unchecked_iterator@V?$_List_val@U?$_List_simple_types@U?$pair@QADPAD@std@@@std@@@std@@@std@@PAV12@V?$allocator@V?$_List_unchecked_iterator@V?$_List_val@U?$_List_simple_types@U?$pair@QADPAD@std@@@std@@@std@@@std@@@2@@std@@YAPAV?$_List_unchecked_iterator@V?$_List_val@U?$_List_simple_types@U?$pair@QADPAD@std@@@std@@@std@@@0@PAV10@00AAV?$allocator@V?$_List_unchecked_iterator@V?$_List_val@U?$_List_simple_types@U?$pair@QADPAD@std@@@std@@@std@@@std@@@0@U_General_ptr_iterator_tag@0@U_Unused_parameter@0@@Z 100249a0 f i Hooks.obj
 0001:000239a0       ??$_Uninitialized_move_al_unchecked@PAV?$_List_unchecked_iterator@V?$_List_val@U?$_List_simple_types@U?$pair@$$CBV?$basic_string@DU?$char_traits@D@std@@V?$allocator@D@2@@std@@V?$set@V?$basic_string@DU?$char_traits@D@std@@V?$allocator@D@2@@std@@U?$less@V?$basic_string@DU?$char_traits@D@std@@V?$allocator@D@2@@std@@@2@V?$allocator@V?$basic_string@DU?$char_traits@D@std@@V?$allocator@D@2@@std@@@2@@2@@std@@@std@@@std@@@std@@PAV12@V?$allocator@V?$_List_unchecked_iterator@V?$_List_val@U?$_List_simple_types@U?$pair@$$CBV?$basic_string@DU?$char_traits@D@std@@V?$allocator@D@2@@std@@V?$set@V?$basic_string@DU?$char_traits@D@std@@V?$allocator@D@2@@std@@U?$less@V?$basic_string@DU?$char_traits@D@std@@V?$allocator@D@2@@std@@@2@V?$allocator@V?$basic_string@DU?$char_traits@D@std@@V?$allocator@D@2@@std@@@2@@2@@std@@@std@@@std@@@std@@@2@@std@@YAPAV?$_List_unchecked_iterator@V?$_List_val@U?$_List_simple_types@U?$pair@$$CBV?$basic_string@DU?$char_traits@D@std@@V?$allocator@D@2@@std@@V?$set@V?$basic_string@DU?$char_traits@D@std@@V?$allocator@D@2@@std@@U?$less@V?$basic_string@DU?$char_traits@D@std@@V?$allocator@D@2@@std@@@2@V?$allocator@V?$basic_string@DU?$char_traits@D@std@@V?$allocator@D@2@@std@@@2@@2@@std@@@std@@@std@@@0@PAV10@00AAV?$allocator@V?$_List_unchecked_iterator@V?$_List_val@U?$_List_simple_types@U?$pair@$$CBV?$basic_string@DU?$char_traits@D@std@@V?$allocator@D@2@@std@@V?$set@V?$basic_string@DU?$char_traits@D@std@@V?$allocator@D@2@@std@@U?$less@V?$basic_string@DU?$char_traits@D@std@@V?$allocator@D@2@@std@@@2@V?$allocator@V?$basic_string@DU?$char_traits@D@std@@V?$allocator@D@2@@std@@@2@@2@@std@@@std@@@std@@@std@@@0@U_General_ptr_iterator_tag@0@U_Unused_parameter@0@@Z 100249a0 f i Configuration.obj
 0001:000239a0       ??$_Uninitialized_move_al_unchecked@PAV?$_List_unchecked_iterator@V?$_List_val@U?$_List_simple_types@U?$pair@$$CBV?$basic_string@DU?$char_traits@D@std@@V?$allocator@D@2@@std@@V12@@std@@@std@@@std@@@std@@PAV12@V?$allocator@V?$_List_unchecked_iterator@V?$_List_val@U?$_List_simple_types@U?$pair@$$CBV?$basic_string@DU?$char_traits@D@std@@V?$allocator@D@2@@std@@V12@@std@@@std@@@std@@@std@@@2@@std@@YAPAV?$_List_unchecked_iterator@V?$_List_val@U?$_List_simple_types@U?$pair@$$CBV?$basic_string@DU?$char_traits@D@std@@V?$allocator@D@2@@std@@V12@@std@@@std@@@std@@@0@PAV10@00AAV?$allocator@V?$_List_unchecked_iterator@V?$_List_val@U?$_List_simple_types@U?$pair@$$CBV?$basic_string@DU?$char_traits@D@std@@V?$allocator@D@2@@std@@V12@@std@@@std@@@std@@@std@@@0@U_General_ptr_iterator_tag@0@U_Unused_parameter@0@@Z 100249a0 f i Configuration.obj
 0001:000239a0       ??$_Uninitialized_move_al_unchecked@PAV?$_List_unchecked_iterator@V?$_List_val@U?$_List_simple_types@U?$pair@$$CBV?$basic_string@DU?$char_traits@D@std@@V?$allocator@D@2@@std@@UskinInfo@@@std@@@std@@@std@@@std@@PAV12@V?$allocator@V?$_List_unchecked_iterator@V?$_List_val@U?$_List_simple_types@U?$pair@$$CBV?$basic_string@DU?$char_traits@D@std@@V?$allocator@D@2@@std@@UskinInfo@@@std@@@std@@@std@@@std@@@2@@std@@YAPAV?$_List_unchecked_iterator@V?$_List_val@U?$_List_simple_types@U?$pair@$$CBV?$basic_string@DU?$char_traits@D@std@@V?$allocator@D@2@@std@@UskinInfo@@@std@@@std@@@std@@@0@PAV10@00AAV?$allocator@V?$_List_unchecked_iterator@V?$_List_val@U?$_List_simple_types@U?$pair@$$CBV?$basic_string@DU?$char_traits@D@std@@V?$allocator@D@2@@std@@UskinInfo@@@std@@@std@@@std@@@std@@@0@U_General_ptr_iterator_tag@0@U_Unused_parameter@0@@Z 100249a0 f i Configuration.obj
 0001:00023a70       ??$construct@PAU?$_List_node@U?$pair@$$CBV?$basic_string@DU?$char_traits@D@std@@V?$allocator@D@2@@std@@V?$set@V?$basic_string@DU?$char_traits@D@std@@V?$allocator@D@2@@std@@U?$less@V?$basic_string@DU?$char_traits@D@std@@V?$allocator@D@2@@std@@@2@V?$allocator@V?$basic_string@DU?$char_traits@D@std@@V?$allocator@D@2@@std@@@2@@2@@std@@PAX@std@@AAPAU12@@?$_Default_allocator_traits@V?$allocator@U?$_List_node@U?$pair@$$CBV?$basic_string@DU?$char_traits@D@std@@V?$allocator@D@2@@std@@V?$set@V?$basic_string@DU?$char_traits@D@std@@V?$allocator@D@2@@std@@U?$less@V?$basic_string@DU?$char_traits@D@std@@V?$allocator@D@2@@std@@@2@V?$allocator@V?$basic_string@DU?$char_traits@D@std@@V?$allocator@D@2@@std@@@2@@2@@std@@PAX@std@@@std@@@std@@SAXAAV?$allocator@U?$_List_node@U?$pair@$$CBV?$basic_string@DU?$char_traits@D@std@@V?$allocator@D@2@@std@@V?$set@V?$basic_string@DU?$char_traits@D@std@@V?$allocator@D@2@@std@@U?$less@V?$basic_string@DU?$char_traits@D@std@@V?$allocator@D@2@@std@@@2@V?$allocator@V?$basic_string@DU?$char_traits@D@std@@V?$allocator@D@2@@std@@@2@@2@@std@@PAX@std@@@1@QAPAU?$_List_node@U?$pair@$$CBV?$basic_string@DU?$char_traits@D@std@@V?$allocator@D@2@@std@@V?$set@V?$basic_string@DU?$char_traits@D@std@@V?$allocator@D@2@@std@@U?$less@V?$basic_string@DU?$char_traits@D@std@@V?$allocator@D@2@@std@@@2@V?$allocator@V?$basic_string@DU?$char_traits@D@std@@V?$allocator@D@2@@std@@@2@@2@@std@@PAX@1@AAPAU31@@Z 10024a70 f i Configuration.obj
 0001:00023a70       ??$construct@PADABQAD@?$_Default_allocator_traits@V?$allocator@D@std@@@std@@SAXAAV?$allocator@D@1@QAPADABQAD@Z 10024a70 f i Parser.obj
 0001:00023a70       ??$construct@PAV?$ConfigValue@_N@@PAV1@@?$_Default_allocator_traits@V?$allocator@PAV?$ConfigValue@_N@@@std@@@std@@SAXAAV?$allocator@PAV?$ConfigValue@_N@@@1@QAPAV?$ConfigValue@_N@@$$QAPAV3@@Z 10024a70 f i Configuration.obj
 0001:00023a70       ??$construct@PAU?$_List_node@U?$pair@$$CBV?$basic_string@DU?$char_traits@D@std@@V?$allocator@D@2@@std@@UskinInfo@@@std@@PAX@std@@AAPAU12@@?$_Default_allocator_traits@V?$allocator@U?$_List_node@U?$pair@$$CBV?$basic_string@DU?$char_traits@D@std@@V?$allocator@D@2@@std@@UskinInfo@@@std@@PAX@std@@@std@@@std@@SAXAAV?$allocator@U?$_List_node@U?$pair@$$CBV?$basic_string@DU?$char_traits@D@std@@V?$allocator@D@2@@std@@UskinInfo@@@std@@PAX@std@@@1@QAPAU?$_List_node@U?$pair@$$CBV?$basic_string@DU?$char_traits@D@std@@V?$allocator@D@2@@std@@UskinInfo@@@std@@PAX@1@AAPAU31@@Z 10024a70 f i Configuration.obj
 0001:00023a70       ??$construct@PAU?$_Tree_node@V?$basic_string@DU?$char_traits@D@std@@V?$allocator@D@2@@std@@PAX@std@@AAPAU12@@?$_Default_allocator_traits@V?$allocator@U?$_Tree_node@V?$basic_string@DU?$char_traits@D@std@@V?$allocator@D@2@@std@@PAX@std@@@std@@@std@@SAXAAV?$allocator@U?$_Tree_node@V?$basic_string@DU?$char_traits@D@std@@V?$allocator@D@2@@std@@PAX@std@@@1@QAPAU?$_Tree_node@V?$basic_string@DU?$char_traits@D@std@@V?$allocator@D@2@@std@@PAX@1@AAPAU31@@Z 10024a70 f i Hooks.obj
 0001:00023a70       ??$construct@PAU?$_Tree_node@U?$pair@$$CBW4ItemDefinitionIndexx@@UDefItem_t@@@std@@PAX@std@@AAPAU12@@?$_Default_allocator_traits@V?$allocator@U?$_Tree_node@U?$pair@$$CBW4ItemDefinitionIndexx@@UDefItem_t@@@std@@PAX@std@@@std@@@std@@SAXAAV?$allocator@U?$_Tree_node@U?$pair@$$CBW4ItemDefinitionIndexx@@UDefItem_t@@@std@@PAX@std@@@1@QAPAU?$_Tree_node@U?$pair@$$CBW4ItemDefinitionIndexx@@UDefItem_t@@@std@@PAX@1@AAPAU31@@Z 10024a70 f i recvproxy.obj
 0001:00023a70       ??$construct@PAV?$ConfigValue@M@@PAV1@@?$_Default_allocator_traits@V?$allocator@PAV?$ConfigValue@M@@@std@@@std@@SAXAAV?$allocator@PAV?$ConfigValue@M@@@1@QAPAV?$ConfigValue@M@@$$QAPAV3@@Z 10024a70 f i Configuration.obj
 0001:00023a70       ??$construct@PAURecvTable@@ABQAU1@@?$_Default_allocator_traits@V?$allocator@PAURecvTable@@@std@@@std@@SAXAAV?$allocator@PAURecvTable@@@1@QAPAURecvTable@@ABQAU3@@Z 10024a70 f i NetVarManager.obj
 0001:00023a70       ??$construct@PAV?$ConfigValue@H@@PAV1@@?$_Default_allocator_traits@V?$allocator@PAV?$ConfigValue@H@@@std@@@std@@SAXAAV?$allocator@PAV?$ConfigValue@H@@@1@QAPAV?$ConfigValue@H@@$$QAPAV3@@Z 10024a70 f i Configuration.obj
 0001:00023a70       ??$construct@PAU?$_List_node@U?$pair@QADPAD@std@@PAX@std@@AAPAU12@@?$_Default_allocator_traits@V?$allocator@U?$_List_node@U?$pair@QADPAD@std@@PAX@std@@@std@@@std@@SAXAAV?$allocator@U?$_List_node@U?$pair@QADPAD@std@@PAX@std@@@1@QAPAU?$_List_node@U?$pair@QADPAD@std@@PAX@1@AAPAU31@@Z 10024a70 f i Hooks.obj
 0001:00023a70       ??$construct@HH@?$_Default_allocator_traits@V?$allocator@H@std@@@std@@SAXAAV?$allocator@H@1@QAH$$QAH@Z 10024a70 f i RageBot.obj
 0001:00023a70       ??$construct@PAU?$_List_node@U?$pair@$$CBV?$basic_string@DU?$char_traits@D@std@@V?$allocator@D@2@@std@@V12@@std@@PAX@std@@AAPAU12@@?$_Default_allocator_traits@V?$allocator@U?$_List_node@U?$pair@$$CBV?$basic_string@DU?$char_traits@D@std@@V?$allocator@D@2@@std@@V12@@std@@PAX@std@@@std@@@std@@SAXAAV?$allocator@U?$_List_node@U?$pair@$$CBV?$basic_string@DU?$char_traits@D@std@@V?$allocator@D@2@@std@@V12@@std@@PAX@std@@@1@QAPAU?$_List_node@U?$pair@$$CBV?$basic_string@DU?$char_traits@D@std@@V?$allocator@D@2@@std@@V12@@std@@PAX@1@AAPAU31@@Z 10024a70 f i Configuration.obj
 0001:00023aa0       ??$construct@V?$_List_unchecked_iterator@V?$_List_val@U?$_List_simple_types@U?$pair@QADPAD@std@@@std@@@std@@@std@@ABV12@@?$_Default_allocator_traits@V?$allocator@V?$_List_unchecked_iterator@V?$_List_val@U?$_List_simple_types@U?$pair@QADPAD@std@@@std@@@std@@@std@@@std@@@std@@SAXAAV?$allocator@V?$_List_unchecked_iterator@V?$_List_val@U?$_List_simple_types@U?$pair@QADPAD@std@@@std@@@std@@@std@@@1@QAV?$_List_unchecked_iterator@V?$_List_val@U?$_List_simple_types@U?$pair@QADPAD@std@@@std@@@std@@@1@ABV31@@Z 10024aa0 f i Hooks.obj
 0001:00023aa0       ??$construct@V?$_List_unchecked_iterator@V?$_List_val@U?$_List_simple_types@U?$pair@QADPAD@std@@@std@@@std@@@std@@V12@@?$_Default_allocator_traits@V?$allocator@V?$_List_unchecked_iterator@V?$_List_val@U?$_List_simple_types@U?$pair@QADPAD@std@@@std@@@std@@@std@@@std@@@std@@SAXAAV?$allocator@V?$_List_unchecked_iterator@V?$_List_val@U?$_List_simple_types@U?$pair@QADPAD@std@@@std@@@std@@@std@@@1@QAV?$_List_unchecked_iterator@V?$_List_val@U?$_List_simple_types@U?$pair@QADPAD@std@@@std@@@std@@@1@$$QAV31@@Z 10024aa0 f i Hooks.obj
 0001:00023aa0       ??$construct@V?$_List_unchecked_iterator@V?$_List_val@U?$_List_simple_types@U?$pair@$$CBV?$basic_string@DU?$char_traits@D@std@@V?$allocator@D@2@@std@@V?$set@V?$basic_string@DU?$char_traits@D@std@@V?$allocator@D@2@@std@@U?$less@V?$basic_string@DU?$char_traits@D@std@@V?$allocator@D@2@@std@@@2@V?$allocator@V?$basic_string@DU?$char_traits@D@std@@V?$allocator@D@2@@std@@@2@@2@@std@@@std@@@std@@@std@@V12@@?$_Default_allocator_traits@V?$allocator@V?$_List_unchecked_iterator@V?$_List_val@U?$_List_simple_types@U?$pair@$$CBV?$basic_string@DU?$char_traits@D@std@@V?$allocator@D@2@@std@@V?$set@V?$basic_string@DU?$char_traits@D@std@@V?$allocator@D@2@@std@@U?$less@V?$basic_string@DU?$char_traits@D@std@@V?$allocator@D@2@@std@@@2@V?$allocator@V?$basic_string@DU?$char_traits@D@std@@V?$allocator@D@2@@std@@@2@@2@@std@@@std@@@std@@@std@@@std@@@std@@SAXAAV?$allocator@V?$_List_unchecked_iterator@V?$_List_val@U?$_List_simple_types@U?$pair@$$CBV?$basic_string@DU?$char_traits@D@std@@V?$allocator@D@2@@std@@V?$set@V?$basic_string@DU?$char_traits@D@std@@V?$allocator@D@2@@std@@U?$less@V?$basic_string@DU?$char_traits@D@std@@V?$allocator@D@2@@std@@@2@V?$allocator@V?$basic_string@DU?$char_traits@D@std@@V?$allocator@D@2@@std@@@2@@2@@std@@@std@@@std@@@std@@@1@QAV?$_List_unchecked_iterator@V?$_List_val@U?$_List_simple_types@U?$pair@$$CBV?$basic_string@DU?$char_traits@D@std@@V?$allocator@D@2@@std@@V?$set@V?$basic_string@DU?$char_traits@D@std@@V?$allocator@D@2@@std@@U?$less@V?$basic_string@DU?$char_traits@D@std@@V?$allocator@D@2@@std@@@2@V?$allocator@V?$basic_string@DU?$char_traits@D@std@@V?$allocator@D@2@@std@@@2@@2@@std@@@std@@@std@@@1@$$QAV31@@Z 10024aa0 f i Configuration.obj
 0001:00023aa0       ??$construct@V?$_List_unchecked_iterator@V?$_List_val@U?$_List_simple_types@U?$pair@$$CBV?$basic_string@DU?$char_traits@D@std@@V?$allocator@D@2@@std@@UskinInfo@@@std@@@std@@@std@@@std@@ABV12@@?$_Default_allocator_traits@V?$allocator@V?$_List_unchecked_iterator@V?$_List_val@U?$_List_simple_types@U?$pair@$$CBV?$basic_string@DU?$char_traits@D@std@@V?$allocator@D@2@@std@@UskinInfo@@@std@@@std@@@std@@@std@@@std@@@std@@SAXAAV?$allocator@V?$_List_unchecked_iterator@V?$_List_val@U?$_List_simple_types@U?$pair@$$CBV?$basic_string@DU?$char_traits@D@std@@V?$allocator@D@2@@std@@UskinInfo@@@std@@@std@@@std@@@std@@@1@QAV?$_List_unchecked_iterator@V?$_List_val@U?$_List_simple_types@U?$pair@$$CBV?$basic_string@DU?$char_traits@D@std@@V?$allocator@D@2@@std@@UskinInfo@@@std@@@std@@@std@@@1@ABV31@@Z 10024aa0 f i Configuration.obj
 0001:00023aa0       ??$construct@V?$_List_unchecked_iterator@V?$_List_val@U?$_List_simple_types@U?$pair@$$CBV?$basic_string@DU?$char_traits@D@std@@V?$allocator@D@2@@std@@V12@@std@@@std@@@std@@@std@@ABV12@@?$_Default_allocator_traits@V?$allocator@V?$_List_unchecked_iterator@V?$_List_val@U?$_List_simple_types@U?$pair@$$CBV?$basic_string@DU?$char_traits@D@std@@V?$allocator@D@2@@std@@V12@@std@@@std@@@std@@@std@@@std@@@std@@SAXAAV?$allocator@V?$_List_unchecked_iterator@V?$_List_val@U?$_List_simple_types@U?$pair@$$CBV?$basic_string@DU?$char_traits@D@std@@V?$allocator@D@2@@std@@V12@@std@@@std@@@std@@@std@@@1@QAV?$_List_unchecked_iterator@V?$_List_val@U?$_List_simple_types@U?$pair@$$CBV?$basic_string@DU?$char_traits@D@std@@V?$allocator@D@2@@std@@V12@@std@@@std@@@std@@@1@ABV31@@Z 10024aa0 f i Configuration.obj
 0001:00023aa0       ??$construct@V?$_List_unchecked_iterator@V?$_List_val@U?$_List_simple_types@U?$pair@$$CBV?$basic_string@DU?$char_traits@D@std@@V?$allocator@D@2@@std@@V?$set@V?$basic_string@DU?$char_traits@D@std@@V?$allocator@D@2@@std@@U?$less@V?$basic_string@DU?$char_traits@D@std@@V?$allocator@D@2@@std@@@2@V?$allocator@V?$basic_string@DU?$char_traits@D@std@@V?$allocator@D@2@@std@@@2@@2@@std@@@std@@@std@@@std@@ABV12@@?$_Default_allocator_traits@V?$allocator@V?$_List_unchecked_iterator@V?$_List_val@U?$_List_simple_types@U?$pair@$$CBV?$basic_string@DU?$char_traits@D@std@@V?$allocator@D@2@@std@@V?$set@V?$basic_string@DU?$char_traits@D@std@@V?$allocator@D@2@@std@@U?$less@V?$basic_string@DU?$char_traits@D@std@@V?$allocator@D@2@@std@@@2@V?$allocator@V?$basic_string@DU?$char_traits@D@std@@V?$allocator@D@2@@std@@@2@@2@@std@@@std@@@std@@@std@@@std@@@std@@SAXAAV?$allocator@V?$_List_unchecked_iterator@V?$_List_val@U?$_List_simple_types@U?$pair@$$CBV?$basic_string@DU?$char_traits@D@std@@V?$allocator@D@2@@std@@V?$set@V?$basic_string@DU?$char_traits@D@std@@V?$allocator@D@2@@std@@U?$less@V?$basic_string@DU?$char_traits@D@std@@V?$allocator@D@2@@std@@@2@V?$allocator@V?$basic_string@DU?$char_traits@D@std@@V?$allocator@D@2@@std@@@2@@2@@std@@@std@@@std@@@std@@@1@QAV?$_List_unchecked_iterator@V?$_List_val@U?$_List_simple_types@U?$pair@$$CBV?$basic_string@DU?$char_traits@D@std@@V?$allocator@D@2@@std@@V?$set@V?$basic_string@DU?$char_traits@D@std@@V?$allocator@D@2@@std@@U?$less@V?$basic_string@DU?$char_traits@D@std@@V?$allocator@D@2@@std@@@2@V?$allocator@V?$basic_string@DU?$char_traits@D@std@@V?$allocator@D@2@@std@@@2@@2@@std@@@std@@@std@@@1@ABV31@@Z 10024aa0 f i Configuration.obj
 0001:00023aa0       ??$construct@V?$_List_unchecked_iterator@V?$_List_val@U?$_List_simple_types@U?$pair@$$CBV?$basic_string@DU?$char_traits@D@std@@V?$allocator@D@2@@std@@UskinInfo@@@std@@@std@@@std@@@std@@V12@@?$_Default_allocator_traits@V?$allocator@V?$_List_unchecked_iterator@V?$_List_val@U?$_List_simple_types@U?$pair@$$CBV?$basic_string@DU?$char_traits@D@std@@V?$allocator@D@2@@std@@UskinInfo@@@std@@@std@@@std@@@std@@@std@@@std@@SAXAAV?$allocator@V?$_List_unchecked_iterator@V?$_List_val@U?$_List_simple_types@U?$pair@$$CBV?$basic_string@DU?$char_traits@D@std@@V?$allocator@D@2@@std@@UskinInfo@@@std@@@std@@@std@@@std@@@1@QAV?$_List_unchecked_iterator@V?$_List_val@U?$_List_simple_types@U?$pair@$$CBV?$basic_string@DU?$char_traits@D@std@@V?$allocator@D@2@@std@@UskinInfo@@@std@@@std@@@std@@@1@$$QAV31@@Z 10024aa0 f i Configuration.obj
 0001:00023aa0       ??$construct@V?$_List_unchecked_iterator@V?$_List_val@U?$_List_simple_types@U?$pair@$$CBV?$basic_string@DU?$char_traits@D@std@@V?$allocator@D@2@@std@@V12@@std@@@std@@@std@@@std@@V12@@?$_Default_allocator_traits@V?$allocator@V?$_List_unchecked_iterator@V?$_List_val@U?$_List_simple_types@U?$pair@$$CBV?$basic_string@DU?$char_traits@D@std@@V?$allocator@D@2@@std@@V12@@std@@@std@@@std@@@std@@@std@@@std@@SAXAAV?$allocator@V?$_List_unchecked_iterator@V?$_List_val@U?$_List_simple_types@U?$pair@$$CBV?$basic_string@DU?$char_traits@D@std@@V?$allocator@D@2@@std@@V12@@std@@@std@@@std@@@std@@@1@QAV?$_List_unchecked_iterator@V?$_List_val@U?$_List_simple_types@U?$pair@$$CBV?$basic_string@DU?$char_traits@D@std@@V?$allocator@D@2@@std@@V12@@std@@@std@@@std@@@1@$$QAV31@@Z 10024aa0 f i Configuration.obj
 0001:00023ad0       ??$destroy@U?$pair@$$CBV?$basic_string@DU?$char_traits@D@std@@V?$allocator@D@2@@std@@UskinInfo@@@std@@@?$_Default_allocator_traits@V?$allocator@U?$_List_node@U?$pair@$$CBV?$basic_string@DU?$char_traits@D@std@@V?$allocator@D@2@@std@@UskinInfo@@@std@@PAX@std@@@std@@@std@@SAXAAV?$allocator@U?$_List_node@U?$pair@$$CBV?$basic_string@DU?$char_traits@D@std@@V?$allocator@D@2@@std@@UskinInfo@@@std@@PAX@std@@@1@QAU?$pair@$$CBV?$basic_string@DU?$char_traits@D@std@@V?$allocator@D@2@@std@@UskinInfo@@@1@@Z 10024ad0 f i Configuration.obj
 0001:00023ae0       ??$destroy@U?$pair@$$CBV?$basic_string@DU?$char_traits@D@std@@V?$allocator@D@2@@std@@V12@@std@@@?$_Default_allocator_traits@V?$allocator@U?$_List_node@U?$pair@$$CBV?$basic_string@DU?$char_traits@D@std@@V?$allocator@D@2@@std@@V12@@std@@PAX@std@@@std@@@std@@SAXAAV?$allocator@U?$_List_node@U?$pair@$$CBV?$basic_string@DU?$char_traits@D@std@@V?$allocator@D@2@@std@@V12@@std@@PAX@std@@@1@QAU?$pair@$$CBV?$basic_string@DU?$char_traits@D@std@@V?$allocator@D@2@@std@@V12@@1@@Z 10024ae0 f i Configuration.obj
 0001:00023af0       ??$destroy@U?$pair@$$CBV?$basic_string@DU?$char_traits@D@std@@V?$allocator@D@2@@std@@V?$set@V?$basic_string@DU?$char_traits@D@std@@V?$allocator@D@2@@std@@U?$less@V?$basic_string@DU?$char_traits@D@std@@V?$allocator@D@2@@std@@@2@V?$allocator@V?$basic_string@DU?$char_traits@D@std@@V?$allocator@D@2@@std@@@2@@2@@std@@@?$_Default_allocator_traits@V?$allocator@U?$_List_node@U?$pair@$$CBV?$basic_string@DU?$char_traits@D@std@@V?$allocator@D@2@@std@@V?$set@V?$basic_string@DU?$char_traits@D@std@@V?$allocator@D@2@@std@@U?$less@V?$basic_string@DU?$char_traits@D@std@@V?$allocator@D@2@@std@@@2@V?$allocator@V?$basic_string@DU?$char_traits@D@std@@V?$allocator@D@2@@std@@@2@@2@@std@@PAX@std@@@std@@@std@@SAXAAV?$allocator@U?$_List_node@U?$pair@$$CBV?$basic_string@DU?$char_traits@D@std@@V?$allocator@D@2@@std@@V?$set@V?$basic_string@DU?$char_traits@D@std@@V?$allocator@D@2@@std@@U?$less@V?$basic_string@DU?$char_traits@D@std@@V?$allocator@D@2@@std@@@2@V?$allocator@V?$basic_string@DU?$char_traits@D@std@@V?$allocator@D@2@@std@@@2@@2@@std@@PAX@std@@@1@QAU?$pair@$$CBV?$basic_string@DU?$char_traits@D@std@@V?$allocator@D@2@@std@@V?$set@V?$basic_string@DU?$char_traits@D@std@@V?$allocator@D@2@@std@@U?$less@V?$basic_string@DU?$char_traits@D@std@@V?$allocator@D@2@@std@@@2@V?$allocator@V?$basic_string@DU?$char_traits@D@std@@V?$allocator@D@2@@std@@@2@@2@@1@@Z 10024af0 f i Configuration.obj
 0001:00023b00       ??$destroy@V?$basic_string@DU?$char_traits@D@std@@V?$allocator@D@2@@std@@@?$_Default_allocator_traits@V?$allocator@U?$_Tree_node@V?$basic_string@DU?$char_traits@D@std@@V?$allocator@D@2@@std@@PAX@std@@@std@@@std@@SAXAAV?$allocator@U?$_Tree_node@V?$basic_string@DU?$char_traits@D@std@@V?$allocator@D@2@@std@@PAX@std@@@1@QAV?$basic_string@DU?$char_traits@D@std@@V?$allocator@D@2@@1@@Z 10024b00 f i Configuration.obj
 0001:00023b00       ??$destroy@V?$basic_string@DU?$char_traits@D@std@@V?$allocator@D@2@@std@@@?$_Default_allocator_traits@V?$allocator@V?$basic_string@DU?$char_traits@D@std@@V?$allocator@D@2@@std@@@std@@@std@@SAXAAV?$allocator@V?$basic_string@DU?$char_traits@D@std@@V?$allocator@D@2@@std@@@1@QAV?$basic_string@DU?$char_traits@D@std@@V?$allocator@D@2@@1@@Z 10024b00 f i Configuration.obj
 0001:00023b10       ??$emplace_back@PAV?$ConfigValue@H@@@?$vector@PAV?$ConfigValue@H@@V?$allocator@PAV?$ConfigValue@H@@@std@@@std@@QAEX$$QAPAV?$ConfigValue@H@@@Z 10024b10 f i Configuration.obj
 0001:00023b10       ??$emplace_back@ABQAURecvTable@@@?$vector@PAURecvTable@@V?$allocator@PAURecvTable@@@std@@@std@@QAEXABQAURecvTable@@@Z 10024b10 f i NetVarManager.obj
 0001:00023b10       ??$emplace_back@PAV?$ConfigValue@_N@@@?$vector@PAV?$ConfigValue@_N@@V?$allocator@PAV?$ConfigValue@_N@@@std@@@std@@QAEX$$QAPAV?$ConfigValue@_N@@@Z 10024b10 f i Configuration.obj
 0001:00023b10       ??$emplace_back@H@?$vector@HV?$allocator@H@std@@@std@@QAEX$$QAH@Z 10024b10 f i RageBot.obj
 0001:00023b10       ??$emplace_back@PAV?$ConfigValue@M@@@?$vector@PAV?$ConfigValue@M@@V?$allocator@PAV?$ConfigValue@M@@@std@@@std@@QAEX$$QAPAV?$ConfigValue@M@@@Z 10024b10 f i Configuration.obj
 0001:00023cb0       ??$end@D$0BF@@std@@YAPADAAY0BF@D@Z 10024cb0 f i Configuration.obj
 0001:00023cc0       ??0<unnamed-type-Colors>@Variables@@QAE@XZ 10024cc0 f i Configuration.obj
 0001:00023f30       ??0<unnamed-type-Legitbot>@Variables@@QAE@XZ 10024f30 f i Configuration.obj
 0001:00023f70       ??0<unnamed-type-Menu>@Variables@@QAE@XZ 10024f70 f i Configuration.obj
 0001:00023fa0       ??0<unnamed-type-Misc>@Variables@@QAE@XZ 10024fa0 f i Configuration.obj
 0001:00023fd0       ??0<unnamed-type-Skinchanger>@Variables@@QAE@XZ 10024fd0 f i Configuration.obj
 0001:000240a0       ??0<unnamed-type-Triggerbot>@<unnamed-type-Legitbot>@Variables@@QAE@XZ 100250a0 f i Configuration.obj
 0001:000240c0       ??0<unnamed-type-Visuals>@Variables@@QAE@XZ 100250c0 f i Configuration.obj
 0001:00024120       ??0?$ConfigValue@M@@QAE@V?$basic_string@DU?$char_traits@D@std@@V?$allocator@D@2@@std@@0PAM@Z 10025120 f i Configuration.obj
 0001:00024120       ??0?$ConfigValue@H@@QAE@V?$basic_string@DU?$char_traits@D@std@@V?$allocator@D@2@@std@@0PAH@Z 10025120 f i Configuration.obj
 0001:00024120       ??0?$ConfigValue@_N@@QAE@V?$basic_string@DU?$char_traits@D@std@@V?$allocator@D@2@@std@@0PA_N@Z 10025120 f i Configuration.obj
 0001:000241c0       ??0?$_Hash@V?$_Umap_traits@V?$basic_string@DU?$char_traits@D@std@@V?$allocator@D@2@@std@@UskinInfo@@V?$_Uhash_compare@V?$basic_string@DU?$char_traits@D@std@@V?$allocator@D@2@@std@@U?$hash@V?$basic_string@DU?$char_traits@D@std@@V?$allocator@D@2@@std@@@2@U?$equal_to@V?$basic_string@DU?$char_traits@D@std@@V?$allocator@D@2@@std@@@2@@2@V?$allocator@U?$pair@$$CBV?$basic_string@DU?$char_traits@D@std@@V?$allocator@D@2@@std@@UskinInfo@@@std@@@2@$0A@@std@@@std@@QAE@ABV?$_Uhash_compare@V?$basic_string@DU?$char_traits@D@std@@V?$allocator@D@2@@std@@U?$hash@V?$basic_string@DU?$char_traits@D@std@@V?$allocator@D@2@@std@@@2@U?$equal_to@V?$basic_string@DU?$char_traits@D@std@@V?$allocator@D@2@@std@@@2@@1@ABV?$allocator@U?$pair@$$CBV?$basic_string@DU?$char_traits@D@std@@V?$allocator@D@2@@std@@UskinInfo@@@std@@@1@@Z 100251c0 f i Configuration.obj
 0001:00024260       ??0?$_Hash@V?$_Umap_traits@V?$basic_string@DU?$char_traits@D@std@@V?$allocator@D@2@@std@@V12@V?$_Uhash_compare@V?$basic_string@DU?$char_traits@D@std@@V?$allocator@D@2@@std@@U?$hash@V?$basic_string@DU?$char_traits@D@std@@V?$allocator@D@2@@std@@@2@U?$equal_to@V?$basic_string@DU?$char_traits@D@std@@V?$allocator@D@2@@std@@@2@@2@V?$allocator@U?$pair@$$CBV?$basic_string@DU?$char_traits@D@std@@V?$allocator@D@2@@std@@V12@@std@@@2@$0A@@std@@@std@@QAE@ABV?$_Uhash_compare@V?$basic_string@DU?$char_traits@D@std@@V?$allocator@D@2@@std@@U?$hash@V?$basic_string@DU?$char_traits@D@std@@V?$allocator@D@2@@std@@@2@U?$equal_to@V?$basic_string@DU?$char_traits@D@std@@V?$allocator@D@2@@std@@@2@@1@ABV?$allocator@U?$pair@$$CBV?$basic_string@DU?$char_traits@D@std@@V?$allocator@D@2@@std@@V12@@std@@@1@@Z 10025260 f i Configuration.obj
 0001:00024300       ??0?$_Hash@V?$_Umap_traits@V?$basic_string@DU?$char_traits@D@std@@V?$allocator@D@2@@std@@V?$set@V?$basic_string@DU?$char_traits@D@std@@V?$allocator@D@2@@std@@U?$less@V?$basic_string@DU?$char_traits@D@std@@V?$allocator@D@2@@std@@@2@V?$allocator@V?$basic_string@DU?$char_traits@D@std@@V?$allocator@D@2@@std@@@2@@2@V?$_Uhash_compare@V?$basic_string@DU?$char_traits@D@std@@V?$allocator@D@2@@std@@U?$hash@V?$basic_string@DU?$char_traits@D@std@@V?$allocator@D@2@@std@@@2@U?$equal_to@V?$basic_string@DU?$char_traits@D@std@@V?$allocator@D@2@@std@@@2@@2@V?$allocator@U?$pair@$$CBV?$basic_string@DU?$char_traits@D@std@@V?$allocator@D@2@@std@@V?$set@V?$basic_string@DU?$char_traits@D@std@@V?$allocator@D@2@@std@@U?$less@V?$basic_string@DU?$char_traits@D@std@@V?$allocator@D@2@@std@@@2@V?$allocator@V?$basic_string@DU?$char_traits@D@std@@V?$allocator@D@2@@std@@@2@@2@@std@@@2@$0A@@std@@@std@@QAE@ABV?$_Uhash_compare@V?$basic_string@DU?$char_traits@D@std@@V?$allocator@D@2@@std@@U?$hash@V?$basic_string@DU?$char_traits@D@std@@V?$allocator@D@2@@std@@@2@U?$equal_to@V?$basic_string@DU?$char_traits@D@std@@V?$allocator@D@2@@std@@@2@@1@ABV?$allocator@U?$pair@$$CBV?$basic_string@DU?$char_traits@D@std@@V?$allocator@D@2@@std@@V?$set@V?$basic_string@DU?$char_traits@D@std@@V?$allocator@D@2@@std@@U?$less@V?$basic_string@DU?$char_traits@D@std@@V?$allocator@D@2@@std@@@2@V?$allocator@V?$basic_string@DU?$char_traits@D@std@@V?$allocator@D@2@@std@@@2@@2@@std@@@1@@Z 10025300 f i Configuration.obj
 0001:000243a0       ??0_Container_proxy@std@@QAE@XZ 100253a0 f i Hooks.obj
 0001:000243a0       ??0?$_List_val@U?$_List_simple_types@U?$pair@QADPAD@std@@@std@@@std@@QAE@XZ 100253a0 f i Hooks.obj
 0001:000243a0       ??0?$_List_val@U?$_List_simple_types@U?$pair@$$CBV?$basic_string@DU?$char_traits@D@std@@V?$allocator@D@2@@std@@UskinInfo@@@std@@@std@@@std@@QAE@XZ 100253a0 f i Configuration.obj
 0001:000243a0       ??0?$_List_val@U?$_List_simple_types@U?$pair@$$CBV?$basic_string@DU?$char_traits@D@std@@V?$allocator@D@2@@std@@V?$set@V?$basic_string@DU?$char_traits@D@std@@V?$allocator@D@2@@std@@U?$less@V?$basic_string@DU?$char_traits@D@std@@V?$allocator@D@2@@std@@@2@V?$allocator@V?$basic_string@DU?$char_traits@D@std@@V?$allocator@D@2@@std@@@2@@2@@std@@@std@@@std@@QAE@XZ 100253a0 f i Configuration.obj
 0001:000243a0       ??0?$_Tree_val@U?$_Tree_simple_types@U?$pair@$$CBW4ItemDefinitionIndexx@@UDefItem_t@@@std@@@std@@@std@@QAE@XZ 100253a0 f i recvproxy.obj
 0001:000243a0       ??0?$_Ptr_base@VNode@valve_parser@@@std@@QAE@XZ 100253a0 f i Parser.obj
 0001:000243a0       ??0_Iterator_base12@std@@QAE@XZ 100253a0 f i Hooks.obj
 0001:000243a0       ??0Str@valve_parser@@QAE@XZ 100253a0 f i Parser.obj
 0001:000243a0       ??0?$_Ptr_base@VObject@valve_parser@@@std@@QAE@XZ 100253a0 f i Parser.obj
 0001:000243a0       ??0?$_Tree_val@U?$_Tree_simple_types@V?$basic_string@DU?$char_traits@D@std@@V?$allocator@D@2@@std@@@std@@@std@@QAE@XZ 100253a0 f i Hooks.obj
 0001:000243a0       ??0?$_Ptr_base@VKeyValue@valve_parser@@@std@@QAE@XZ 100253a0 f i Parser.obj
 0001:000243a0       ??0?$_List_val@U?$_List_simple_types@U?$pair@$$CBV?$basic_string@DU?$char_traits@D@std@@V?$allocator@D@2@@std@@V12@@std@@@std@@@std@@QAE@XZ 100253a0 f i Configuration.obj
 0001:000243d0       ??0?$_Uhash_compare@V?$basic_string@DU?$char_traits@D@std@@V?$allocator@D@2@@std@@U?$hash@V?$basic_string@DU?$char_traits@D@std@@V?$allocator@D@2@@std@@@2@U?$equal_to@V?$basic_string@DU?$char_traits@D@std@@V?$allocator@D@2@@std@@@2@@std@@QAE@U?$hash@V?$basic_string@DU?$char_traits@D@std@@V?$allocator@D@2@@std@@@1@U?$equal_to@V?$basic_string@DU?$char_traits@D@std@@V?$allocator@D@2@@std@@@1@@Z 100253d0 f i Configuration.obj
 0001:000243d0       ??0?$_Uhash_compare@PADU?$hash@PAD@std@@U?$equal_to@PAD@2@@std@@QAE@U?$hash@PAD@1@U?$equal_to@PAD@1@@Z 100253d0 f i Hooks.obj
 0001:00024410       ??0?$_Umap_traits@V?$basic_string@DU?$char_traits@D@std@@V?$allocator@D@2@@std@@V?$set@V?$basic_string@DU?$char_traits@D@std@@V?$allocator@D@2@@std@@U?$less@V?$basic_string@DU?$char_traits@D@std@@V?$allocator@D@2@@std@@@2@V?$allocator@V?$basic_string@DU?$char_traits@D@std@@V?$allocator@D@2@@std@@@2@@2@V?$_Uhash_compare@V?$basic_string@DU?$char_traits@D@std@@V?$allocator@D@2@@std@@U?$hash@V?$basic_string@DU?$char_traits@D@std@@V?$allocator@D@2@@std@@@2@U?$equal_to@V?$basic_string@DU?$char_traits@D@std@@V?$allocator@D@2@@std@@@2@@2@V?$allocator@U?$pair@$$CBV?$basic_string@DU?$char_traits@D@std@@V?$allocator@D@2@@std@@V?$set@V?$basic_string@DU?$char_traits@D@std@@V?$allocator@D@2@@std@@U?$less@V?$basic_string@DU?$char_traits@D@std@@V?$allocator@D@2@@std@@@2@V?$allocator@V?$basic_string@DU?$char_traits@D@std@@V?$allocator@D@2@@std@@@2@@2@@std@@@2@$0A@@std@@QAE@ABV?$_Uhash_compare@V?$basic_string@DU?$char_traits@D@std@@V?$allocator@D@2@@std@@U?$hash@V?$basic_string@DU?$char_traits@D@std@@V?$allocator@D@2@@std@@@2@U?$equal_to@V?$basic_string@DU?$char_traits@D@std@@V?$allocator@D@2@@std@@@2@@1@@Z 10025410 f i Configuration.obj
 0001:00024410       ??0?$_Umap_traits@PADPADV?$_Uhash_compare@PADU?$hash@PAD@std@@U?$equal_to@PAD@2@@std@@V?$allocator@U?$pair@QADPAD@std@@@2@$0A@@std@@QAE@ABV?$_Uhash_compare@PADU?$hash@PAD@std@@U?$equal_to@PAD@2@@1@@Z 10025410 f i Hooks.obj
 0001:00024410       ??0?$_Umap_traits@V?$basic_string@DU?$char_traits@D@std@@V?$allocator@D@2@@std@@UskinInfo@@V?$_Uhash_compare@V?$basic_string@DU?$char_traits@D@std@@V?$allocator@D@2@@std@@U?$hash@V?$basic_string@DU?$char_traits@D@std@@V?$allocator@D@2@@std@@@2@U?$equal_to@V?$basic_string@DU?$char_traits@D@std@@V?$allocator@D@2@@std@@@2@@2@V?$allocator@U?$pair@$$CBV?$basic_string@DU?$char_traits@D@std@@V?$allocator@D@2@@std@@UskinInfo@@@std@@@2@$0A@@std@@QAE@ABV?$_Uhash_compare@V?$basic_string@DU?$char_traits@D@std@@V?$allocator@D@2@@std@@U?$hash@V?$basic_string@DU?$char_traits@D@std@@V?$allocator@D@2@@std@@@2@U?$equal_to@V?$basic_string@DU?$char_traits@D@std@@V?$allocator@D@2@@std@@@2@@1@@Z 10025410 f i Configuration.obj
 0001:00024410       ??0?$_Umap_traits@V?$basic_string@DU?$char_traits@D@std@@V?$allocator@D@2@@std@@V12@V?$_Uhash_compare@V?$basic_string@DU?$char_traits@D@std@@V?$allocator@D@2@@std@@U?$hash@V?$basic_string@DU?$char_traits@D@std@@V?$allocator@D@2@@std@@@2@U?$equal_to@V?$basic_string@DU?$char_traits@D@std@@V?$allocator@D@2@@std@@@2@@2@V?$allocator@U?$pair@$$CBV?$basic_string@DU?$char_traits@D@std@@V?$allocator@D@2@@std@@V12@@std@@@2@$0A@@std@@QAE@ABV?$_Uhash_compare@V?$basic_string@DU?$char_traits@D@std@@V?$allocator@D@2@@std@@U?$hash@V?$basic_string@DU?$char_traits@D@std@@V?$allocator@D@2@@std@@@2@U?$equal_to@V?$basic_string@DU?$char_traits@D@std@@V?$allocator@D@2@@std@@@2@@1@@Z 10025410 f i Configuration.obj
 0001:00024430       ??0?$basic_string@DU?$char_traits@D@std@@V?$allocator@D@2@@std@@QAE@$$QAV01@@Z 10025430 f i Configuration.obj
 0001:000244b0       ??0?$basic_string@DU?$char_traits@D@std@@V?$allocator@D@2@@std@@QAE@ABV01@@Z 100254b0 f i Configuration.obj
 0001:00024530       ??0?$basic_string@DU?$char_traits@D@std@@V?$allocator@D@2@@std@@QAE@ID@Z 10025530 f i Configuration.obj
 0001:000245a0       ??0?$basic_string@DU?$char_traits@D@std@@V?$allocator@D@2@@std@@QAE@XZ 100255a0 f i Configuration.obj
 0001:000245f0       ??0?$list@U?$pair@$$CBV?$basic_string@DU?$char_traits@D@std@@V?$allocator@D@2@@std@@UskinInfo@@@std@@V?$allocator@U?$pair@$$CBV?$basic_string@DU?$char_traits@D@std@@V?$allocator@D@2@@std@@UskinInfo@@@std@@@2@@std@@QAE@ABV?$allocator@U?$pair@$$CBV?$basic_string@DU?$char_traits@D@std@@V?$allocator@D@2@@std@@UskinInfo@@@std@@@1@@Z 100255f0 f i Configuration.obj
 0001:00024610       ??0?$list@U?$pair@$$CBV?$basic_string@DU?$char_traits@D@std@@V?$allocator@D@2@@std@@V12@@std@@V?$allocator@U?$pair@$$CBV?$basic_string@DU?$char_traits@D@std@@V?$allocator@D@2@@std@@V12@@std@@@2@@std@@QAE@ABV?$allocator@U?$pair@$$CBV?$basic_string@DU?$char_traits@D@std@@V?$allocator@D@2@@std@@V12@@std@@@1@@Z 10025610 f i Configuration.obj
 0001:00024630       ??0?$list@U?$pair@$$CBV?$basic_string@DU?$char_traits@D@std@@V?$allocator@D@2@@std@@V?$set@V?$basic_string@DU?$char_traits@D@std@@V?$allocator@D@2@@std@@U?$less@V?$basic_string@DU?$char_traits@D@std@@V?$allocator@D@2@@std@@@2@V?$allocator@V?$basic_string@DU?$char_traits@D@std@@V?$allocator@D@2@@std@@@2@@2@@std@@V?$allocator@U?$pair@$$CBV?$basic_string@DU?$char_traits@D@std@@V?$allocator@D@2@@std@@V?$set@V?$basic_string@DU?$char_traits@D@std@@V?$allocator@D@2@@std@@U?$less@V?$basic_string@DU?$char_traits@D@std@@V?$allocator@D@2@@std@@@2@V?$allocator@V?$basic_string@DU?$char_traits@D@std@@V?$allocator@D@2@@std@@@2@@2@@std@@@2@@std@@QAE@ABV?$allocator@U?$pair@$$CBV?$basic_string@DU?$char_traits@D@std@@V?$allocator@D@2@@std@@V?$set@V?$basic_string@DU?$char_traits@D@std@@V?$allocator@D@2@@std@@U?$less@V?$basic_string@DU?$char_traits@D@std@@V?$allocator@D@2@@std@@@2@V?$allocator@V?$basic_string@DU?$char_traits@D@std@@V?$allocator@D@2@@std@@@2@@2@@std@@@1@@Z 10025630 f i Configuration.obj
 0001:00024650       ??0?$unordered_map@V?$basic_string@DU?$char_traits@D@std@@V?$allocator@D@2@@std@@UskinInfo@@U?$hash@V?$basic_string@DU?$char_traits@D@std@@V?$allocator@D@2@@std@@@2@U?$equal_to@V?$basic_string@DU?$char_traits@D@std@@V?$allocator@D@2@@std@@@2@V?$allocator@U?$pair@$$CBV?$basic_string@DU?$char_traits@D@std@@V?$allocator@D@2@@std@@UskinInfo@@@std@@@2@@std@@QAE@XZ 10025650 f i Configuration.obj
 0001:00024690       ??0?$unordered_map@V?$basic_string@DU?$char_traits@D@std@@V?$allocator@D@2@@std@@V12@U?$hash@V?$basic_string@DU?$char_traits@D@std@@V?$allocator@D@2@@std@@@2@U?$equal_to@V?$basic_string@DU?$char_traits@D@std@@V?$allocator@D@2@@std@@@2@V?$allocator@U?$pair@$$CBV?$basic_string@DU?$char_traits@D@std@@V?$allocator@D@2@@std@@V12@@std@@@2@@std@@QAE@XZ 10025690 f i Configuration.obj
 0001:000246d0       ??0?$unordered_map@V?$basic_string@DU?$char_traits@D@std@@V?$allocator@D@2@@std@@V?$set@V?$basic_string@DU?$char_traits@D@std@@V?$allocator@D@2@@std@@U?$less@V?$basic_string@DU?$char_traits@D@std@@V?$allocator@D@2@@std@@@2@V?$allocator@V?$basic_string@DU?$char_traits@D@std@@V?$allocator@D@2@@std@@@2@@2@U?$hash@V?$basic_string@DU?$char_traits@D@std@@V?$allocator@D@2@@std@@@2@U?$equal_to@V?$basic_string@DU?$char_traits@D@std@@V?$allocator@D@2@@std@@@2@V?$allocator@U?$pair@$$CBV?$basic_string@DU?$char_traits@D@std@@V?$allocator@D@2@@std@@V?$set@V?$basic_string@DU?$char_traits@D@std@@V?$allocator@D@2@@std@@U?$less@V?$basic_string@DU?$char_traits@D@std@@V?$allocator@D@2@@std@@@2@V?$allocator@V?$basic_string@DU?$char_traits@D@std@@V?$allocator@D@2@@std@@@2@@2@@std@@@2@@std@@QAE@XZ 100256d0 f i Configuration.obj
 0001:00024710       ??0?$vector@V?$_List_unchecked_iterator@V?$_List_val@U?$_List_simple_types@U?$pair@$$CBV?$basic_string@DU?$char_traits@D@std@@V?$allocator@D@2@@std@@UskinInfo@@@std@@@std@@@std@@@std@@V?$allocator@V?$_List_unchecked_iterator@V?$_List_val@U?$_List_simple_types@U?$pair@$$CBV?$basic_string@DU?$char_traits@D@std@@V?$allocator@D@2@@std@@UskinInfo@@@std@@@std@@@std@@@std@@@2@@std@@QAE@ABV?$allocator@V?$_List_unchecked_iterator@V?$_List_val@U?$_List_simple_types@U?$pair@$$CBV?$basic_string@DU?$char_traits@D@std@@V?$allocator@D@2@@std@@UskinInfo@@@std@@@std@@@std@@@std@@@1@@Z 10025710 f i Configuration.obj
 0001:00024710       ??0?$vector@V?$_List_unchecked_iterator@V?$_List_val@U?$_List_simple_types@U?$pair@QADPAD@std@@@std@@@std@@@std@@V?$allocator@V?$_List_unchecked_iterator@V?$_List_val@U?$_List_simple_types@U?$pair@QADPAD@std@@@std@@@std@@@std@@@2@@std@@QAE@ABV?$allocator@V?$_List_unchecked_iterator@V?$_List_val@U?$_List_simple_types@U?$pair@QADPAD@std@@@std@@@std@@@std@@@1@@Z 10025710 f i Hooks.obj
 0001:00024710       ??0?$vector@V?$_List_unchecked_iterator@V?$_List_val@U?$_List_simple_types@U?$pair@$$CBV?$basic_string@DU?$char_traits@D@std@@V?$allocator@D@2@@std@@V12@@std@@@std@@@std@@@std@@V?$allocator@V?$_List_unchecked_iterator@V?$_List_val@U?$_List_simple_types@U?$pair@$$CBV?$basic_string@DU?$char_traits@D@std@@V?$allocator@D@2@@std@@V12@@std@@@std@@@std@@@std@@@2@@std@@QAE@ABV?$allocator@V?$_List_unchecked_iterator@V?$_List_val@U?$_List_simple_types@U?$pair@$$CBV?$basic_string@DU?$char_traits@D@std@@V?$allocator@D@2@@std@@V12@@std@@@std@@@std@@@std@@@1@@Z 10025710 f i Configuration.obj
 0001:00024710       ??0?$vector@V?$_List_unchecked_iterator@V?$_List_val@U?$_List_simple_types@U?$pair@$$CBV?$basic_string@DU?$char_traits@D@std@@V?$allocator@D@2@@std@@V?$set@V?$basic_string@DU?$char_traits@D@std@@V?$allocator@D@2@@std@@U?$less@V?$basic_string@DU?$char_traits@D@std@@V?$allocator@D@2@@std@@@2@V?$allocator@V?$basic_string@DU?$char_traits@D@std@@V?$allocator@D@2@@std@@@2@@2@@std@@@std@@@std@@@std@@V?$allocator@V?$_List_unchecked_iterator@V?$_List_val@U?$_List_simple_types@U?$pair@$$CBV?$basic_string@DU?$char_traits@D@std@@V?$allocator@D@2@@std@@V?$set@V?$basic_string@DU?$char_traits@D@std@@V?$allocator@D@2@@std@@U?$less@V?$basic_string@DU?$char_traits@D@std@@V?$allocator@D@2@@std@@@2@V?$allocator@V?$basic_string@DU?$char_traits@D@std@@V?$allocator@D@2@@std@@@2@@2@@std@@@std@@@std@@@std@@@2@@std@@QAE@ABV?$allocator@V?$_List_unchecked_iterator@V?$_List_val@U?$_List_simple_types@U?$pair@$$CBV?$basic_string@DU?$char_traits@D@std@@V?$allocator@D@2@@std@@V?$set@V?$basic_string@DU?$char_traits@D@std@@V?$allocator@D@2@@std@@U?$less@V?$basic_string@DU?$char_traits@D@std@@V?$allocator@D@2@@std@@@2@V?$allocator@V?$basic_string@DU?$char_traits@D@std@@V?$allocator@D@2@@std@@@2@@2@@std@@@std@@@std@@@std@@@1@@Z 10025710 f i Configuration.obj
 0001:00024760       ??0?$vector@V?$shared_ptr@VNode@valve_parser@@@std@@V?$allocator@V?$shared_ptr@VNode@valve_parser@@@std@@@2@@std@@QAE@XZ 10025760 f i Parser.obj
 0001:00024760       ??0?$vector@_SV?$allocator@_S@std@@@std@@QAE@XZ 10025760 f i Parser.obj
 0001:00024760       ??0?$vector@PAV?$ConfigValue@M@@V?$allocator@PAV?$ConfigValue@M@@@std@@@std@@QAE@XZ 10025760 f i Configuration.obj
 0001:00024760       ??0?$vector@V?$basic_string@DU?$char_traits@D@std@@V?$allocator@D@2@@std@@V?$allocator@V?$basic_string@DU?$char_traits@D@std@@V?$allocator@D@2@@std@@@2@@std@@QAE@XZ 10025760 f i Configuration.obj
 0001:00024760       ??0?$vector@PAV?$ConfigValue@H@@V?$allocator@PAV?$ConfigValue@H@@@std@@@std@@QAE@XZ 10025760 f i Configuration.obj
 0001:00024760       ??0?$vector@HV?$allocator@H@std@@@std@@QAE@XZ 10025760 f i Utilities.obj
 0001:00024760       ??0?$vector@PAURecvTable@@V?$allocator@PAURecvTable@@@std@@@std@@QAE@XZ 10025760 f i NetVarManager.obj
 0001:00024760       ??0?$vector@VVector@@V?$allocator@VVector@@@std@@@std@@QAE@XZ 10025760 f i ESP.obj
 0001:00024760       ??0?$vector@PAV?$ConfigValue@_N@@V?$allocator@PAV?$ConfigValue@_N@@@std@@@std@@QAE@XZ 10025760 f i Configuration.obj
 0001:000247a0       ??0CConfig@@QAE@XZ         100257a0 f i Configuration.obj
 0001:00024820       ??0Variables@@QAE@XZ       10025820 f i Configuration.obj
 0001:00024890       ??0WeaponCFG@<unnamed-type-Skinchanger>@Variables@@QAE@XZ 10025890 f i Configuration.obj
 0001:00024900       ??1<unnamed-type-Skinchanger>@Variables@@QAE@XZ 10025900 f i Configuration.obj
 0001:00024940       ??1?$_Hash@V?$_Umap_traits@V?$basic_string@DU?$char_traits@D@std@@V?$allocator@D@2@@std@@UskinInfo@@V?$_Uhash_compare@V?$basic_string@DU?$char_traits@D@std@@V?$allocator@D@2@@std@@U?$hash@V?$basic_string@DU?$char_traits@D@std@@V?$allocator@D@2@@std@@@2@U?$equal_to@V?$basic_string@DU?$char_traits@D@std@@V?$allocator@D@2@@std@@@2@@2@V?$allocator@U?$pair@$$CBV?$basic_string@DU?$char_traits@D@std@@V?$allocator@D@2@@std@@UskinInfo@@@std@@@2@$0A@@std@@@std@@QAE@XZ 10025940 f i Configuration.obj
 0001:00024970       ??1?$_Hash@V?$_Umap_traits@V?$basic_string@DU?$char_traits@D@std@@V?$allocator@D@2@@std@@V12@V?$_Uhash_compare@V?$basic_string@DU?$char_traits@D@std@@V?$allocator@D@2@@std@@U?$hash@V?$basic_string@DU?$char_traits@D@std@@V?$allocator@D@2@@std@@@2@U?$equal_to@V?$basic_string@DU?$char_traits@D@std@@V?$allocator@D@2@@std@@@2@@2@V?$allocator@U?$pair@$$CBV?$basic_string@DU?$char_traits@D@std@@V?$allocator@D@2@@std@@V12@@std@@@2@$0A@@std@@@std@@QAE@XZ 10025970 f i Configuration.obj
 0001:000249a0       ??1?$_Hash@V?$_Umap_traits@V?$basic_string@DU?$char_traits@D@std@@V?$allocator@D@2@@std@@V?$set@V?$basic_string@DU?$char_traits@D@std@@V?$allocator@D@2@@std@@U?$less@V?$basic_string@DU?$char_traits@D@std@@V?$allocator@D@2@@std@@@2@V?$allocator@V?$basic_string@DU?$char_traits@D@std@@V?$allocator@D@2@@std@@@2@@2@V?$_Uhash_compare@V?$basic_string@DU?$char_traits@D@std@@V?$allocator@D@2@@std@@U?$hash@V?$basic_string@DU?$char_traits@D@std@@V?$allocator@D@2@@std@@@2@U?$equal_to@V?$basic_string@DU?$char_traits@D@std@@V?$allocator@D@2@@std@@@2@@2@V?$allocator@U?$pair@$$CBV?$basic_string@DU?$char_traits@D@std@@V?$allocator@D@2@@std@@V?$set@V?$basic_string@DU?$char_traits@D@std@@V?$allocator@D@2@@std@@U?$less@V?$basic_string@DU?$char_traits@D@std@@V?$allocator@D@2@@std@@@2@V?$allocator@V?$basic_string@DU?$char_traits@D@std@@V?$allocator@D@2@@std@@@2@@2@@std@@@2@$0A@@std@@@std@@QAE@XZ 100259a0 f i Configuration.obj
 0001:000249d0       ??1?$_List_alloc@U?$_List_base_types@U?$pair@$$CBV?$basic_string@DU?$char_traits@D@std@@V?$allocator@D@2@@std@@UskinInfo@@@std@@V?$allocator@U?$pair@$$CBV?$basic_string@DU?$char_traits@D@std@@V?$allocator@D@2@@std@@UskinInfo@@@std@@@2@@std@@@std@@QAE@XZ 100259d0 f i Configuration.obj
 0001:00024a20       ??1?$_List_alloc@U?$_List_base_types@U?$pair@$$CBV?$basic_string@DU?$char_traits@D@std@@V?$allocator@D@2@@std@@V12@@std@@V?$allocator@U?$pair@$$CBV?$basic_string@DU?$char_traits@D@std@@V?$allocator@D@2@@std@@V12@@std@@@2@@std@@@std@@QAE@XZ 10025a20 f i Configuration.obj
 0001:00024a70       ??1?$_List_alloc@U?$_List_base_types@U?$pair@$$CBV?$basic_string@DU?$char_traits@D@std@@V?$allocator@D@2@@std@@V?$set@V?$basic_string@DU?$char_traits@D@std@@V?$allocator@D@2@@std@@U?$less@V?$basic_string@DU?$char_traits@D@std@@V?$allocator@D@2@@std@@@2@V?$allocator@V?$basic_string@DU?$char_traits@D@std@@V?$allocator@D@2@@std@@@2@@2@@std@@V?$allocator@U?$pair@$$CBV?$basic_string@DU?$char_traits@D@std@@V?$allocator@D@2@@std@@V?$set@V?$basic_string@DU?$char_traits@D@std@@V?$allocator@D@2@@std@@U?$less@V?$basic_string@DU?$char_traits@D@std@@V?$allocator@D@2@@std@@@2@V?$allocator@V?$basic_string@DU?$char_traits@D@std@@V?$allocator@D@2@@std@@@2@@2@@std@@@2@@std@@@std@@QAE@XZ 10025a70 f i Configuration.obj
 0001:00024ac0       ??1?$_List_buy@U?$pair@$$CBV?$basic_string@DU?$char_traits@D@std@@V?$allocator@D@2@@std@@UskinInfo@@@std@@V?$allocator@U?$pair@$$CBV?$basic_string@DU?$char_traits@D@std@@V?$allocator@D@2@@std@@UskinInfo@@@std@@@2@@std@@QAE@XZ 10025ac0 f i Configuration.obj
 0001:00024ae0       ??1?$_List_buy@U?$pair@$$CBV?$basic_string@DU?$char_traits@D@std@@V?$allocator@D@2@@std@@V12@@std@@V?$allocator@U?$pair@$$CBV?$basic_string@DU?$char_traits@D@std@@V?$allocator@D@2@@std@@V12@@std@@@2@@std@@QAE@XZ 10025ae0 f i Configuration.obj
 0001:00024b00       ??1?$_List_buy@U?$pair@$$CBV?$basic_string@DU?$char_traits@D@std@@V?$allocator@D@2@@std@@V?$set@V?$basic_string@DU?$char_traits@D@std@@V?$allocator@D@2@@std@@U?$less@V?$basic_string@DU?$char_traits@D@std@@V?$allocator@D@2@@std@@@2@V?$allocator@V?$basic_string@DU?$char_traits@D@std@@V?$allocator@D@2@@std@@@2@@2@@std@@V?$allocator@U?$pair@$$CBV?$basic_string@DU?$char_traits@D@std@@V?$allocator@D@2@@std@@V?$set@V?$basic_string@DU?$char_traits@D@std@@V?$allocator@D@2@@std@@U?$less@V?$basic_string@DU?$char_traits@D@std@@V?$allocator@D@2@@std@@@2@V?$allocator@V?$basic_string@DU?$char_traits@D@std@@V?$allocator@D@2@@std@@@2@@2@@std@@@2@@std@@QAE@XZ 10025b00 f i Configuration.obj
 0001:00024b20       ??1?$_Tree@V?$_Tset_traits@V?$basic_string@DU?$char_traits@D@std@@V?$allocator@D@2@@std@@U?$less@V?$basic_string@DU?$char_traits@D@std@@V?$allocator@D@2@@std@@@2@V?$allocator@V?$basic_string@DU?$char_traits@D@std@@V?$allocator@D@2@@std@@@2@$0A@@std@@@std@@QAE@XZ 10025b20 f i Configuration.obj
 0001:00024b70       ??1?$_Tree_comp_alloc@V?$_Tset_traits@V?$basic_string@DU?$char_traits@D@std@@V?$allocator@D@2@@std@@U?$less@V?$basic_string@DU?$char_traits@D@std@@V?$allocator@D@2@@std@@@2@V?$allocator@V?$basic_string@DU?$char_traits@D@std@@V?$allocator@D@2@@std@@@2@$0A@@std@@@std@@QAE@XZ 10025b70 f i Configuration.obj
 0001:00024bc0       ??1?$list@U?$pair@$$CBV?$basic_string@DU?$char_traits@D@std@@V?$allocator@D@2@@std@@UskinInfo@@@std@@V?$allocator@U?$pair@$$CBV?$basic_string@DU?$char_traits@D@std@@V?$allocator@D@2@@std@@UskinInfo@@@std@@@2@@std@@QAE@XZ 10025bc0 f i Configuration.obj
 0001:00024c10       ??1?$list@U?$pair@$$CBV?$basic_string@DU?$char_traits@D@std@@V?$allocator@D@2@@std@@V12@@std@@V?$allocator@U?$pair@$$CBV?$basic_string@DU?$char_traits@D@std@@V?$allocator@D@2@@std@@V12@@std@@@2@@std@@QAE@XZ 10025c10 f i Configuration.obj
 0001:00024c60       ??1?$list@U?$pair@$$CBV?$basic_string@DU?$char_traits@D@std@@V?$allocator@D@2@@std@@V?$set@V?$basic_string@DU?$char_traits@D@std@@V?$allocator@D@2@@std@@U?$less@V?$basic_string@DU?$char_traits@D@std@@V?$allocator@D@2@@std@@@2@V?$allocator@V?$basic_string@DU?$char_traits@D@std@@V?$allocator@D@2@@std@@@2@@2@@std@@V?$allocator@U?$pair@$$CBV?$basic_string@DU?$char_traits@D@std@@V?$allocator@D@2@@std@@V?$set@V?$basic_string@DU?$char_traits@D@std@@V?$allocator@D@2@@std@@U?$less@V?$basic_string@DU?$char_traits@D@std@@V?$allocator@D@2@@std@@@2@V?$allocator@V?$basic_string@DU?$char_traits@D@std@@V?$allocator@D@2@@std@@@2@@2@@std@@@2@@std@@QAE@XZ 10025c60 f i Configuration.obj
 0001:00024cb0       ??1?$pair@$$CBV?$basic_string@DU?$char_traits@D@std@@V?$allocator@D@2@@std@@UskinInfo@@@std@@QAE@XZ 10025cb0 f i Configuration.obj
 0001:00024cd0       ??1?$pair@$$CBV?$basic_string@DU?$char_traits@D@std@@V?$allocator@D@2@@std@@V12@@std@@QAE@XZ 10025cd0 f i Configuration.obj
 0001:00024cf0       ??1?$pair@$$CBV?$basic_string@DU?$char_traits@D@std@@V?$allocator@D@2@@std@@V?$set@V?$basic_string@DU?$char_traits@D@std@@V?$allocator@D@2@@std@@U?$less@V?$basic_string@DU?$char_traits@D@std@@V?$allocator@D@2@@std@@@2@V?$allocator@V?$basic_string@DU?$char_traits@D@std@@V?$allocator@D@2@@std@@@2@@2@@std@@QAE@XZ 10025cf0 f i Configuration.obj
 0001:00024d10       ??1?$set@V?$basic_string@DU?$char_traits@D@std@@V?$allocator@D@2@@std@@U?$less@V?$basic_string@DU?$char_traits@D@std@@V?$allocator@D@2@@std@@@2@V?$allocator@V?$basic_string@DU?$char_traits@D@std@@V?$allocator@D@2@@std@@@2@@std@@QAE@XZ 10025d10 f i Configuration.obj
 0001:00024d30       ??1?$unordered_map@V?$basic_string@DU?$char_traits@D@std@@V?$allocator@D@2@@std@@UskinInfo@@U?$hash@V?$basic_string@DU?$char_traits@D@std@@V?$allocator@D@2@@std@@@2@U?$equal_to@V?$basic_string@DU?$char_traits@D@std@@V?$allocator@D@2@@std@@@2@V?$allocator@U?$pair@$$CBV?$basic_string@DU?$char_traits@D@std@@V?$allocator@D@2@@std@@UskinInfo@@@std@@@2@@std@@QAE@XZ 10025d30 f i Configuration.obj
 0001:00024d50       ??1?$unordered_map@V?$basic_string@DU?$char_traits@D@std@@V?$allocator@D@2@@std@@V12@U?$hash@V?$basic_string@DU?$char_traits@D@std@@V?$allocator@D@2@@std@@@2@U?$equal_to@V?$basic_string@DU?$char_traits@D@std@@V?$allocator@D@2@@std@@@2@V?$allocator@U?$pair@$$CBV?$basic_string@DU?$char_traits@D@std@@V?$allocator@D@2@@std@@V12@@std@@@2@@std@@QAE@XZ 10025d50 f i Configuration.obj
 0001:00024d70       ??1?$unordered_map@V?$basic_string@DU?$char_traits@D@std@@V?$allocator@D@2@@std@@V?$set@V?$basic_string@DU?$char_traits@D@std@@V?$allocator@D@2@@std@@U?$less@V?$basic_string@DU?$char_traits@D@std@@V?$allocator@D@2@@std@@@2@V?$allocator@V?$basic_string@DU?$char_traits@D@std@@V?$allocator@D@2@@std@@@2@@2@U?$hash@V?$basic_string@DU?$char_traits@D@std@@V?$allocator@D@2@@std@@@2@U?$equal_to@V?$basic_string@DU?$char_traits@D@std@@V?$allocator@D@2@@std@@@2@V?$allocator@U?$pair@$$CBV?$basic_string@DU?$char_traits@D@std@@V?$allocator@D@2@@std@@V?$set@V?$basic_string@DU?$char_traits@D@std@@V?$allocator@D@2@@std@@U?$less@V?$basic_string@DU?$char_traits@D@std@@V?$allocator@D@2@@std@@@2@V?$allocator@V?$basic_string@DU?$char_traits@D@std@@V?$allocator@D@2@@std@@@2@@2@@std@@@2@@std@@QAE@XZ 10025d70 f i Configuration.obj
 0001:00024d90       ??1?$vector@V?$_List_unchecked_iterator@V?$_List_val@U?$_List_simple_types@U?$pair@$$CBV?$basic_string@DU?$char_traits@D@std@@V?$allocator@D@2@@std@@UskinInfo@@@std@@@std@@@std@@@std@@V?$allocator@V?$_List_unchecked_iterator@V?$_List_val@U?$_List_simple_types@U?$pair@$$CBV?$basic_string@DU?$char_traits@D@std@@V?$allocator@D@2@@std@@UskinInfo@@@std@@@std@@@std@@@std@@@2@@std@@QAE@XZ 10025d90 f i Configuration.obj
 0001:00024d90       ??1?$vector@PAV?$ConfigValue@_N@@V?$allocator@PAV?$ConfigValue@_N@@@std@@@std@@QAE@XZ 10025d90 f i Configuration.obj
 0001:00024d90       ??1?$vector@V?$_List_unchecked_iterator@V?$_List_val@U?$_List_simple_types@U?$pair@$$CBV?$basic_string@DU?$char_traits@D@std@@V?$allocator@D@2@@std@@V?$set@V?$basic_string@DU?$char_traits@D@std@@V?$allocator@D@2@@std@@U?$less@V?$basic_string@DU?$char_traits@D@std@@V?$allocator@D@2@@std@@@2@V?$allocator@V?$basic_string@DU?$char_traits@D@std@@V?$allocator@D@2@@std@@@2@@2@@std@@@std@@@std@@@std@@V?$allocator@V?$_List_unchecked_iterator@V?$_List_val@U?$_List_simple_types@U?$pair@$$CBV?$basic_string@DU?$char_traits@D@std@@V?$allocator@D@2@@std@@V?$set@V?$basic_string@DU?$char_traits@D@std@@V?$allocator@D@2@@std@@U?$less@V?$basic_string@DU?$char_traits@D@std@@V?$allocator@D@2@@std@@@2@V?$allocator@V?$basic_string@DU?$char_traits@D@std@@V?$allocator@D@2@@std@@@2@@2@@std@@@std@@@std@@@std@@@2@@std@@QAE@XZ 10025d90 f i Configuration.obj
 0001:00024d90       ??1?$vector@V?$_List_unchecked_iterator@V?$_List_val@U?$_List_simple_types@U?$pair@$$CBV?$basic_string@DU?$char_traits@D@std@@V?$allocator@D@2@@std@@V12@@std@@@std@@@std@@@std@@V?$allocator@V?$_List_unchecked_iterator@V?$_List_val@U?$_List_simple_types@U?$pair@$$CBV?$basic_string@DU?$char_traits@D@std@@V?$allocator@D@2@@std@@V12@@std@@@std@@@std@@@std@@@2@@std@@QAE@XZ 10025d90 f i Configuration.obj
 0001:00024d90       ??1?$vector@V?$_List_unchecked_iterator@V?$_List_val@U?$_List_simple_types@U?$pair@QADPAD@std@@@std@@@std@@@std@@V?$allocator@V?$_List_unchecked_iterator@V?$_List_val@U?$_List_simple_types@U?$pair@QADPAD@std@@@std@@@std@@@std@@@2@@std@@QAE@XZ 10025d90 f i Hooks.obj
 0001:00024d90       ??1?$vector@PAV?$ConfigValue@H@@V?$allocator@PAV?$ConfigValue@H@@@std@@@std@@QAE@XZ 10025d90 f i Configuration.obj
 0001:00024d90       ??1?$vector@HV?$allocator@H@std@@@std@@QAE@XZ 10025d90 f i LegitBot.obj
 0001:00024d90       ??1?$vector@PAV?$ConfigValue@M@@V?$allocator@PAV?$ConfigValue@M@@@std@@@std@@QAE@XZ 10025d90 f i Configuration.obj
 0001:00024dd0       ??1?$vector@V?$basic_string@DU?$char_traits@D@std@@V?$allocator@D@2@@std@@V?$allocator@V?$basic_string@DU?$char_traits@D@std@@V?$allocator@D@2@@std@@@2@@std@@QAE@XZ 10025dd0 f i Configuration.obj
 0001:00024e10       ??1Variables@@QAE@XZ       10025e10 f i Configuration.obj
 0001:00024e30       ??1skinInfo@@QAE@XZ        10025e30 f i Configuration.obj
 0001:00024e50       ??4?$basic_string@DU?$char_traits@D@std@@V?$allocator@D@2@@std@@QAEAAV01@$$QAV01@@Z 10025e50 f i Configuration.obj
 0001:00024ee0       ??4?$basic_string@DU?$char_traits@D@std@@V?$allocator@D@2@@std@@QAEAAV01@ABV01@@Z 10025ee0 f i Configuration.obj
 0001:00024f50       ??A?$basic_string@DU?$char_traits@D@std@@V?$allocator@D@2@@std@@QAEAADI@Z 10025f50 f i Configuration.obj
 0001:00024f80       ??E?$_Tree_const_iterator@V?$_Tree_val@U?$_Tree_simple_types@U?$pair@$$CBW4ItemDefinitionIndexx@@UDefItem_t@@@std@@@std@@@std@@@std@@QAE?AV01@H@Z 10025f80 f i recvproxy.obj
 0001:00024f80       ??E?$_Tree_const_iterator@V?$_Tree_val@U?$_Tree_simple_types@V?$basic_string@DU?$char_traits@D@std@@V?$allocator@D@2@@std@@@std@@@std@@@std@@QAE?AV01@H@Z 10025f80 f i Configuration.obj
 0001:00024fb0       ??E?$_Tree_const_iterator@V?$_Tree_val@U?$_Tree_simple_types@V?$basic_string@DU?$char_traits@D@std@@V?$allocator@D@2@@std@@@std@@@std@@@std@@QAEAAV01@XZ 10025fb0 f i Configuration.obj
 0001:00024fb0       ??E?$_Tree_const_iterator@V?$_Tree_val@U?$_Tree_simple_types@U?$pair@$$CBW4ItemDefinitionIndexx@@UDefItem_t@@@std@@@std@@@std@@@std@@QAEAAV01@XZ 10025fb0 f i recvproxy.obj
 0001:00024fd0       ??E?$_Tree_unchecked_const_iterator@V?$_Tree_val@U?$_Tree_simple_types@V?$basic_string@DU?$char_traits@D@std@@V?$allocator@D@2@@std@@@std@@@std@@U_Iterator_base0@2@@std@@QAEAAV01@XZ 10025fd0 f i Configuration.obj
 0001:00024fd0       ??E?$_Tree_unchecked_const_iterator@V?$_Tree_val@U?$_Tree_simple_types@U?$pair@$$CBW4ItemDefinitionIndexx@@UDefItem_t@@@std@@@std@@@std@@U_Iterator_base0@2@@std@@QAEAAV01@XZ 10025fd0 f i recvproxy.obj
 0001:000251b0       ??_G?$basic_string@DU?$char_traits@D@std@@V?$allocator@D@2@@std@@QAEPAXI@Z 100261b0 f i Configuration.obj
 0001:000251e0       ??_G?$pair@$$CBV?$basic_string@DU?$char_traits@D@std@@V?$allocator@D@2@@std@@UskinInfo@@@std@@QAEPAXI@Z 100261e0 f i Configuration.obj
 0001:00025210       ??_G?$pair@$$CBV?$basic_string@DU?$char_traits@D@std@@V?$allocator@D@2@@std@@V12@@std@@QAEPAXI@Z 10026210 f i Configuration.obj
 0001:00025240       ??_G?$pair@$$CBV?$basic_string@DU?$char_traits@D@std@@V?$allocator@D@2@@std@@V?$set@V?$basic_string@DU?$char_traits@D@std@@V?$allocator@D@2@@std@@U?$less@V?$basic_string@DU?$char_traits@D@std@@V?$allocator@D@2@@std@@@2@V?$allocator@V?$basic_string@DU?$char_traits@D@std@@V?$allocator@D@2@@std@@@2@@2@@std@@QAEPAXI@Z 10026240 f i Configuration.obj
 0001:00025270       ?_Assign_rv_contents@?$basic_string@DU?$char_traits@D@std@@V?$allocator@D@2@@std@@QAEX$$QAV12@U?$integral_constant@_N$00@2@@Z 10026270 f i Configuration.obj
 0001:000252a0       ?_Assign_rv_contents_with_alloc_always_equal@?$basic_string@DU?$char_traits@D@std@@V?$allocator@D@2@@std@@QAEX$$QAV12@U?$integral_constant@_N$00@2@@Z 100262a0 f i Configuration.obj
 0001:00025300       ?_Buyheadnode@?$_List_alloc@U?$_List_base_types@U?$pair@$$CBV?$basic_string@DU?$char_traits@D@std@@V?$allocator@D@2@@std@@UskinInfo@@@std@@V?$allocator@U?$pair@$$CBV?$basic_string@DU?$char_traits@D@std@@V?$allocator@D@2@@std@@UskinInfo@@@std@@@2@@std@@@std@@QAEPAU?$_List_node@U?$pair@$$CBV?$basic_string@DU?$char_traits@D@std@@V?$allocator@D@2@@std@@UskinInfo@@@std@@PAX@2@XZ 10026300 f i Configuration.obj
 0001:00025320       ?_Buyheadnode@?$_List_alloc@U?$_List_base_types@U?$pair@$$CBV?$basic_string@DU?$char_traits@D@std@@V?$allocator@D@2@@std@@V12@@std@@V?$allocator@U?$pair@$$CBV?$basic_string@DU?$char_traits@D@std@@V?$allocator@D@2@@std@@V12@@std@@@2@@std@@@std@@QAEPAU?$_List_node@U?$pair@$$CBV?$basic_string@DU?$char_traits@D@std@@V?$allocator@D@2@@std@@V12@@std@@PAX@2@XZ 10026320 f i Configuration.obj
 0001:00025340       ?_Buyheadnode@?$_List_alloc@U?$_List_base_types@U?$pair@$$CBV?$basic_string@DU?$char_traits@D@std@@V?$allocator@D@2@@std@@V?$set@V?$basic_string@DU?$char_traits@D@std@@V?$allocator@D@2@@std@@U?$less@V?$basic_string@DU?$char_traits@D@std@@V?$allocator@D@2@@std@@@2@V?$allocator@V?$basic_string@DU?$char_traits@D@std@@V?$allocator@D@2@@std@@@2@@2@@std@@V?$allocator@U?$pair@$$CBV?$basic_string@DU?$char_traits@D@std@@V?$allocator@D@2@@std@@V?$set@V?$basic_string@DU?$char_traits@D@std@@V?$allocator@D@2@@std@@U?$less@V?$basic_string@DU?$char_traits@D@std@@V?$allocator@D@2@@std@@@2@V?$allocator@V?$basic_string@DU?$char_traits@D@std@@V?$allocator@D@2@@std@@@2@@2@@std@@@2@@std@@@std@@QAEPAU?$_List_node@U?$pair@$$CBV?$basic_string@DU?$char_traits@D@std@@V?$allocator@D@2@@std@@V?$set@V?$basic_string@DU?$char_traits@D@std@@V?$allocator@D@2@@std@@U?$less@V?$basic_string@DU?$char_traits@D@std@@V?$allocator@D@2@@std@@@2@V?$allocator@V?$basic_string@DU?$char_traits@D@std@@V?$allocator@D@2@@std@@@2@@2@@std@@PAX@2@XZ 10026340 f i Configuration.obj
 0001:00025360       ?_Buynode0@?$_List_alloc@U?$_List_base_types@U?$pair@$$CBV?$basic_string@DU?$char_traits@D@std@@V?$allocator@D@2@@std@@UskinInfo@@@std@@V?$allocator@U?$pair@$$CBV?$basic_string@DU?$char_traits@D@std@@V?$allocator@D@2@@std@@UskinInfo@@@std@@@2@@std@@@std@@QAEPAU?$_List_node@U?$pair@$$CBV?$basic_string@DU?$char_traits@D@std@@V?$allocator@D@2@@std@@UskinInfo@@@std@@PAX@2@PAU32@0@Z 10026360 f i Configuration.obj
 0001:00025450       ?_Buynode0@?$_List_alloc@U?$_List_base_types@U?$pair@$$CBV?$basic_string@DU?$char_traits@D@std@@V?$allocator@D@2@@std@@V12@@std@@V?$allocator@U?$pair@$$CBV?$basic_string@DU?$char_traits@D@std@@V?$allocator@D@2@@std@@V12@@std@@@2@@std@@@std@@QAEPAU?$_List_node@U?$pair@$$CBV?$basic_string@DU?$char_traits@D@std@@V?$allocator@D@2@@std@@V12@@std@@PAX@2@PAU32@0@Z 10026450 f i Configuration.obj
 0001:00025540       ?_Buynode0@?$_List_alloc@U?$_List_base_types@U?$pair@$$CBV?$basic_string@DU?$char_traits@D@std@@V?$allocator@D@2@@std@@V?$set@V?$basic_string@DU?$char_traits@D@std@@V?$allocator@D@2@@std@@U?$less@V?$basic_string@DU?$char_traits@D@std@@V?$allocator@D@2@@std@@@2@V?$allocator@V?$basic_string@DU?$char_traits@D@std@@V?$allocator@D@2@@std@@@2@@2@@std@@V?$allocator@U?$pair@$$CBV?$basic_string@DU?$char_traits@D@std@@V?$allocator@D@2@@std@@V?$set@V?$basic_string@DU?$char_traits@D@std@@V?$allocator@D@2@@std@@U?$less@V?$basic_string@DU?$char_traits@D@std@@V?$allocator@D@2@@std@@@2@V?$allocator@V?$basic_string@DU?$char_traits@D@std@@V?$allocator@D@2@@std@@@2@@2@@std@@@2@@std@@@std@@QAEPAU?$_List_node@U?$pair@$$CBV?$basic_string@DU?$char_traits@D@std@@V?$allocator@D@2@@std@@V?$set@V?$basic_string@DU?$char_traits@D@std@@V?$allocator@D@2@@std@@U?$less@V?$basic_string@DU?$char_traits@D@std@@V?$allocator@D@2@@std@@@2@V?$allocator@V?$basic_string@DU?$char_traits@D@std@@V?$allocator@D@2@@std@@@2@@2@@std@@PAX@2@PAU32@0@Z 10026540 f i Configuration.obj
 0001:00025630       ?_Change_array@?$vector@V?$_List_unchecked_iterator@V?$_List_val@U?$_List_simple_types@U?$pair@$$CBV?$basic_string@DU?$char_traits@D@std@@V?$allocator@D@2@@std@@V?$set@V?$basic_string@DU?$char_traits@D@std@@V?$allocator@D@2@@std@@U?$less@V?$basic_string@DU?$char_traits@D@std@@V?$allocator@D@2@@std@@@2@V?$allocator@V?$basic_string@DU?$char_traits@D@std@@V?$allocator@D@2@@std@@@2@@2@@std@@@std@@@std@@@std@@V?$allocator@V?$_List_unchecked_iterator@V?$_List_val@U?$_List_simple_types@U?$pair@$$CBV?$basic_string@DU?$char_traits@D@std@@V?$allocator@D@2@@std@@V?$set@V?$basic_string@DU?$char_traits@D@std@@V?$allocator@D@2@@std@@U?$less@V?$basic_string@DU?$char_traits@D@std@@V?$allocator@D@2@@std@@@2@V?$allocator@V?$basic_string@DU?$char_traits@D@std@@V?$allocator@D@2@@std@@@2@@2@@std@@@std@@@std@@@std@@@2@@std@@AAEXQAV?$_List_unchecked_iterator@V?$_List_val@U?$_List_simple_types@U?$pair@$$CBV?$basic_string@DU?$char_traits@D@std@@V?$allocator@D@2@@std@@V?$set@V?$basic_string@DU?$char_traits@D@std@@V?$allocator@D@2@@std@@U?$less@V?$basic_string@DU?$char_traits@D@std@@V?$allocator@D@2@@std@@@2@V?$allocator@V?$basic_string@DU?$char_traits@D@std@@V?$allocator@D@2@@std@@@2@@2@@std@@@std@@@std@@@2@II@Z 10026630 f i Configuration.obj
 0001:00025630       ?_Change_array@?$vector@PAV?$ConfigValue@H@@V?$allocator@PAV?$ConfigValue@H@@@std@@@std@@AAEXQAPAV?$ConfigValue@H@@II@Z 10026630 f i Configuration.obj
 0001:00025630       ?_Change_array@?$vector@HV?$allocator@H@std@@@std@@AAEXQAHII@Z 10026630 f i RageBot.obj
 0001:00025630       ?_Change_array@?$vector@V?$_List_unchecked_iterator@V?$_List_val@U?$_List_simple_types@U?$pair@QADPAD@std@@@std@@@std@@@std@@V?$allocator@V?$_List_unchecked_iterator@V?$_List_val@U?$_List_simple_types@U?$pair@QADPAD@std@@@std@@@std@@@std@@@2@@std@@AAEXQAV?$_List_unchecked_iterator@V?$_List_val@U?$_List_simple_types@U?$pair@QADPAD@std@@@std@@@std@@@2@II@Z 10026630 f i Hooks.obj
 0001:00025630       ?_Change_array@?$vector@PAV?$ConfigValue@_N@@V?$allocator@PAV?$ConfigValue@_N@@@std@@@std@@AAEXQAPAV?$ConfigValue@_N@@II@Z 10026630 f i Configuration.obj
 0001:00025630       ?_Change_array@?$vector@PAURecvTable@@V?$allocator@PAURecvTable@@@std@@@std@@AAEXQAPAURecvTable@@II@Z 10026630 f i NetVarManager.obj
 0001:00025630       ?_Change_array@?$vector@V?$_List_unchecked_iterator@V?$_List_val@U?$_List_simple_types@U?$pair@$$CBV?$basic_string@DU?$char_traits@D@std@@V?$allocator@D@2@@std@@UskinInfo@@@std@@@std@@@std@@@std@@V?$allocator@V?$_List_unchecked_iterator@V?$_List_val@U?$_List_simple_types@U?$pair@$$CBV?$basic_string@DU?$char_traits@D@std@@V?$allocator@D@2@@std@@UskinInfo@@@std@@@std@@@std@@@std@@@2@@std@@AAEXQAV?$_List_unchecked_iterator@V?$_List_val@U?$_List_simple_types@U?$pair@$$CBV?$basic_string@DU?$char_traits@D@std@@V?$allocator@D@2@@std@@UskinInfo@@@std@@@std@@@std@@@2@II@Z 10026630 f i Configuration.obj
 0001:00025630       ?_Change_array@?$vector@PAV?$ConfigValue@M@@V?$allocator@PAV?$ConfigValue@M@@@std@@@std@@AAEXQAPAV?$ConfigValue@M@@II@Z 10026630 f i Configuration.obj
 0001:00025630       ?_Change_array@?$vector@V?$_List_unchecked_iterator@V?$_List_val@U?$_List_simple_types@U?$pair@$$CBV?$basic_string@DU?$char_traits@D@std@@V?$allocator@D@2@@std@@V12@@std@@@std@@@std@@@std@@V?$allocator@V?$_List_unchecked_iterator@V?$_List_val@U?$_List_simple_types@U?$pair@$$CBV?$basic_string@DU?$char_traits@D@std@@V?$allocator@D@2@@std@@V12@@std@@@std@@@std@@@std@@@2@@std@@AAEXQAV?$_List_unchecked_iterator@V?$_List_val@U?$_List_simple_types@U?$pair@$$CBV?$basic_string@DU?$char_traits@D@std@@V?$allocator@D@2@@std@@V12@@std@@@std@@@std@@@2@II@Z 10026630 f i Configuration.obj
 0001:000256d0       ?_Check_offset@?$_String_val@U?$_Simple_types@D@std@@@std@@QBEXI@Z 100266d0 f i Configuration.obj
 0001:000256f0       ?_Construct@?$basic_string@DU?$char_traits@D@std@@V?$allocator@D@2@@std@@QAEXQAD0Urandom_access_iterator_tag@2@@Z 100266f0 f i Configuration.obj
 0001:00025730       ?_Construct_lv_contents@?$basic_string@DU?$char_traits@D@std@@V?$allocator@D@2@@std@@QAEXABV12@@Z 10026730 f i Configuration.obj
 0001:00025830       ?_Copy_alloc@?$_String_alloc@U?$_String_base_types@DV?$allocator@D@std@@@std@@@std@@QAEXABV?$allocator@D@2@@Z 10026830 f i Configuration.obj
 0001:00025860       ?_Destroy@?$vector@PAV?$ConfigValue@_N@@V?$allocator@PAV?$ConfigValue@_N@@@std@@@std@@AAEXPAPAV?$ConfigValue@_N@@0@Z 10026860 f i Configuration.obj
 0001:00025860       ?_Destroy@?$vector@_SV?$allocator@_S@std@@@std@@AAEXPA_S0@Z 10026860 f i Parser.obj
 0001:00025860       ?_Destroy@?$vector@PAV?$ConfigValue@H@@V?$allocator@PAV?$ConfigValue@H@@@std@@@std@@AAEXPAPAV?$ConfigValue@H@@0@Z 10026860 f i Configuration.obj
 0001:00025860       ?_Destroy@?$vector@HV?$allocator@H@std@@@std@@AAEXPAH0@Z 10026860 f i LegitBot.obj
 0001:00025860       ?_Destroy@?$vector@V?$_List_unchecked_iterator@V?$_List_val@U?$_List_simple_types@U?$pair@QADPAD@std@@@std@@@std@@@std@@V?$allocator@V?$_List_unchecked_iterator@V?$_List_val@U?$_List_simple_types@U?$pair@QADPAD@std@@@std@@@std@@@std@@@2@@std@@AAEXPAV?$_List_unchecked_iterator@V?$_List_val@U?$_List_simple_types@U?$pair@QADPAD@std@@@std@@@std@@@2@0@Z 10026860 f i Hooks.obj
 0001:00025860       ?_Destroy@?$vector@V?$_List_unchecked_iterator@V?$_List_val@U?$_List_simple_types@U?$pair@$$CBV?$basic_string@DU?$char_traits@D@std@@V?$allocator@D@2@@std@@V12@@std@@@std@@@std@@@std@@V?$allocator@V?$_List_unchecked_iterator@V?$_List_val@U?$_List_simple_types@U?$pair@$$CBV?$basic_string@DU?$char_traits@D@std@@V?$allocator@D@2@@std@@V12@@std@@@std@@@std@@@std@@@2@@std@@AAEXPAV?$_List_unchecked_iterator@V?$_List_val@U?$_List_simple_types@U?$pair@$$CBV?$basic_string@DU?$char_traits@D@std@@V?$allocator@D@2@@std@@V12@@std@@@std@@@std@@@2@0@Z 10026860 f i Configuration.obj
 0001:00025860       ?_Destroy@?$vector@PAURecvTable@@V?$allocator@PAURecvTable@@@std@@@std@@AAEXPAPAURecvTable@@0@Z 10026860 f i NetVarManager.obj
 0001:00025860       ?_Destroy@?$vector@V?$_List_unchecked_iterator@V?$_List_val@U?$_List_simple_types@U?$pair@$$CBV?$basic_string@DU?$char_traits@D@std@@V?$allocator@D@2@@std@@UskinInfo@@@std@@@std@@@std@@@std@@V?$allocator@V?$_List_unchecked_iterator@V?$_List_val@U?$_List_simple_types@U?$pair@$$CBV?$basic_string@DU?$char_traits@D@std@@V?$allocator@D@2@@std@@UskinInfo@@@std@@@std@@@std@@@std@@@2@@std@@AAEXPAV?$_List_unchecked_iterator@V?$_List_val@U?$_List_simple_types@U?$pair@$$CBV?$basic_string@DU?$char_traits@D@std@@V?$allocator@D@2@@std@@UskinInfo@@@std@@@std@@@std@@@2@0@Z 10026860 f i Configuration.obj
 0001:00025860       ?_Destroy@?$vector@V?$_List_unchecked_iterator@V?$_List_val@U?$_List_simple_types@U?$pair@$$CBV?$basic_string@DU?$char_traits@D@std@@V?$allocator@D@2@@std@@V?$set@V?$basic_string@DU?$char_traits@D@std@@V?$allocator@D@2@@std@@U?$less@V?$basic_string@DU?$char_traits@D@std@@V?$allocator@D@2@@std@@@2@V?$allocator@V?$basic_string@DU?$char_traits@D@std@@V?$allocator@D@2@@std@@@2@@2@@std@@@std@@@std@@@std@@V?$allocator@V?$_List_unchecked_iterator@V?$_List_val@U?$_List_simple_types@U?$pair@$$CBV?$basic_string@DU?$char_traits@D@std@@V?$allocator@D@2@@std@@V?$set@V?$basic_string@DU?$char_traits@D@std@@V?$allocator@D@2@@std@@U?$less@V?$basic_string@DU?$char_traits@D@std@@V?$allocator@D@2@@std@@@2@V?$allocator@V?$basic_string@DU?$char_traits@D@std@@V?$allocator@D@2@@std@@@2@@2@@std@@@std@@@std@@@std@@@2@@std@@AAEXPAV?$_List_unchecked_iterator@V?$_List_val@U?$_List_simple_types@U?$pair@$$CBV?$basic_string@DU?$char_traits@D@std@@V?$allocator@D@2@@std@@V?$set@V?$basic_string@DU?$char_traits@D@std@@V?$allocator@D@2@@std@@U?$less@V?$basic_string@DU?$char_traits@D@std@@V?$allocator@D@2@@std@@@2@V?$allocator@V?$basic_string@DU?$char_traits@D@std@@V?$allocator@D@2@@std@@@2@@2@@std@@@std@@@std@@@2@0@Z 10026860 f i Configuration.obj
 0001:00025860       ?_Destroy@?$vector@VVector@@V?$allocator@VVector@@@std@@@std@@AAEXPAVVector@@0@Z 10026860 f i ESP.obj
 0001:00025860       ?_Destroy@?$vector@PAV?$ConfigValue@M@@V?$allocator@PAV?$ConfigValue@M@@@std@@@std@@AAEXPAPAV?$ConfigValue@M@@0@Z 10026860 f i Configuration.obj
 0001:00025890       ?_Destroy@?$vector@V?$basic_string@DU?$char_traits@D@std@@V?$allocator@D@2@@std@@V?$allocator@V?$basic_string@DU?$char_traits@D@std@@V?$allocator@D@2@@std@@@2@@std@@AAEXPAV?$basic_string@DU?$char_traits@D@std@@V?$allocator@D@2@@2@0@Z 10026890 f i Configuration.obj
 0001:000258c0       ?_Eos@?$basic_string@DU?$char_traits@D@std@@V?$allocator@D@2@@std@@QAEXI@Z 100268c0 f i Configuration.obj
 0001:00025900       ?_Erase@?$_Tree@V?$_Tset_traits@V?$basic_string@DU?$char_traits@D@std@@V?$allocator@D@2@@std@@U?$less@V?$basic_string@DU?$char_traits@D@std@@V?$allocator@D@2@@std@@@2@V?$allocator@V?$basic_string@DU?$char_traits@D@std@@V?$allocator@D@2@@std@@@2@$0A@@std@@@std@@IAEXPAU?$_Tree_node@V?$basic_string@DU?$char_traits@D@std@@V?$allocator@D@2@@std@@PAX@2@@Z 10026900 f i Configuration.obj
 0001:00025980       ?_Freeheadnode@?$_List_alloc@U?$_List_base_types@U?$pair@$$CBV?$basic_string@DU?$char_traits@D@std@@V?$allocator@D@2@@std@@UskinInfo@@@std@@V?$allocator@U?$pair@$$CBV?$basic_string@DU?$char_traits@D@std@@V?$allocator@D@2@@std@@UskinInfo@@@std@@@2@@std@@@std@@QAEXPAU?$_List_node@U?$pair@$$CBV?$basic_string@DU?$char_traits@D@std@@V?$allocator@D@2@@std@@UskinInfo@@@std@@PAX@2@@Z 10026980 f i Configuration.obj
 0001:000259e0       ?_Freeheadnode@?$_List_alloc@U?$_List_base_types@U?$pair@$$CBV?$basic_string@DU?$char_traits@D@std@@V?$allocator@D@2@@std@@V12@@std@@V?$allocator@U?$pair@$$CBV?$basic_string@DU?$char_traits@D@std@@V?$allocator@D@2@@std@@V12@@std@@@2@@std@@@std@@QAEXPAU?$_List_node@U?$pair@$$CBV?$basic_string@DU?$char_traits@D@std@@V?$allocator@D@2@@std@@V12@@std@@PAX@2@@Z 100269e0 f i Configuration.obj
 0001:00025a40       ?_Freeheadnode@?$_List_alloc@U?$_List_base_types@U?$pair@$$CBV?$basic_string@DU?$char_traits@D@std@@V?$allocator@D@2@@std@@V?$set@V?$basic_string@DU?$char_traits@D@std@@V?$allocator@D@2@@std@@U?$less@V?$basic_string@DU?$char_traits@D@std@@V?$allocator@D@2@@std@@@2@V?$allocator@V?$basic_string@DU?$char_traits@D@std@@V?$allocator@D@2@@std@@@2@@2@@std@@V?$allocator@U?$pair@$$CBV?$basic_string@DU?$char_traits@D@std@@V?$allocator@D@2@@std@@V?$set@V?$basic_string@DU?$char_traits@D@std@@V?$allocator@D@2@@std@@U?$less@V?$basic_string@DU?$char_traits@D@std@@V?$allocator@D@2@@std@@@2@V?$allocator@V?$basic_string@DU?$char_traits@D@std@@V?$allocator@D@2@@std@@@2@@2@@std@@@2@@std@@@std@@QAEXPAU?$_List_node@U?$pair@$$CBV?$basic_string@DU?$char_traits@D@std@@V?$allocator@D@2@@std@@V?$set@V?$basic_string@DU?$char_traits@D@std@@V?$allocator@D@2@@std@@U?$less@V?$basic_string@DU?$char_traits@D@std@@V?$allocator@D@2@@std@@@2@V?$allocator@V?$basic_string@DU?$char_traits@D@std@@V?$allocator@D@2@@std@@@2@@2@@std@@PAX@2@@Z 10026a40 f i Configuration.obj
 0001:00025aa0       ?_Freenode0@?$_Tree_comp_alloc@V?$_Tset_traits@V?$basic_string@DU?$char_traits@D@std@@V?$allocator@D@2@@std@@U?$less@V?$basic_string@DU?$char_traits@D@std@@V?$allocator@D@2@@std@@@2@V?$allocator@V?$basic_string@DU?$char_traits@D@std@@V?$allocator@D@2@@std@@@2@$0A@@std@@@std@@QAEXPAU?$_Tree_node@V?$basic_string@DU?$char_traits@D@std@@V?$allocator@D@2@@std@@PAX@2@@Z 10026aa0 f i Hooks.obj
 0001:00025aa0       ?_Freeheadnode@?$_Tree_comp_alloc@V?$_Tset_traits@V?$basic_string@DU?$char_traits@D@std@@V?$allocator@D@2@@std@@U?$less@V?$basic_string@DU?$char_traits@D@std@@V?$allocator@D@2@@std@@@2@V?$allocator@V?$basic_string@DU?$char_traits@D@std@@V?$allocator@D@2@@std@@@2@$0A@@std@@@std@@QAEXPAU?$_Tree_node@V?$basic_string@DU?$char_traits@D@std@@V?$allocator@D@2@@std@@PAX@2@@Z 10026aa0 f i Configuration.obj
 0001:00025b20       ?_Freenode@?$_List_buy@U?$pair@$$CBV?$basic_string@DU?$char_traits@D@std@@V?$allocator@D@2@@std@@UskinInfo@@@std@@V?$allocator@U?$pair@$$CBV?$basic_string@DU?$char_traits@D@std@@V?$allocator@D@2@@std@@UskinInfo@@@std@@@2@@std@@QAEXPAU?$_List_node@U?$pair@$$CBV?$basic_string@DU?$char_traits@D@std@@V?$allocator@D@2@@std@@UskinInfo@@@std@@PAX@2@@Z 10026b20 f i Configuration.obj
 0001:00025ba0       ?_Freenode@?$_List_buy@U?$pair@$$CBV?$basic_string@DU?$char_traits@D@std@@V?$allocator@D@2@@std@@V12@@std@@V?$allocator@U?$pair@$$CBV?$basic_string@DU?$char_traits@D@std@@V?$allocator@D@2@@std@@V12@@std@@@2@@std@@QAEXPAU?$_List_node@U?$pair@$$CBV?$basic_string@DU?$char_traits@D@std@@V?$allocator@D@2@@std@@V12@@std@@PAX@2@@Z 10026ba0 f i Configuration.obj
 0001:00025c20       ?_Freenode@?$_List_buy@U?$pair@$$CBV?$basic_string@DU?$char_traits@D@std@@V?$allocator@D@2@@std@@V?$set@V?$basic_string@DU?$char_traits@D@std@@V?$allocator@D@2@@std@@U?$less@V?$basic_string@DU?$char_traits@D@std@@V?$allocator@D@2@@std@@@2@V?$allocator@V?$basic_string@DU?$char_traits@D@std@@V?$allocator@D@2@@std@@@2@@2@@std@@V?$allocator@U?$pair@$$CBV?$basic_string@DU?$char_traits@D@std@@V?$allocator@D@2@@std@@V?$set@V?$basic_string@DU?$char_traits@D@std@@V?$allocator@D@2@@std@@U?$less@V?$basic_string@DU?$char_traits@D@std@@V?$allocator@D@2@@std@@@2@V?$allocator@V?$basic_string@DU?$char_traits@D@std@@V?$allocator@D@2@@std@@@2@@2@@std@@@2@@std@@QAEXPAU?$_List_node@U?$pair@$$CBV?$basic_string@DU?$char_traits@D@std@@V?$allocator@D@2@@std@@V?$set@V?$basic_string@DU?$char_traits@D@std@@V?$allocator@D@2@@std@@U?$less@V?$basic_string@DU?$char_traits@D@std@@V?$allocator@D@2@@std@@@2@V?$allocator@V?$basic_string@DU?$char_traits@D@std@@V?$allocator@D@2@@std@@@2@@2@@std@@PAX@2@@Z 10026c20 f i Configuration.obj
 0001:00025ca0       ?_Get_second@?$_Compressed_pair@V?$allocator@U?$_Tree_node@V?$basic_string@DU?$char_traits@D@std@@V?$allocator@D@2@@std@@PAX@std@@@std@@V?$_Tree_val@U?$_Tree_simple_types@V?$basic_string@DU?$char_traits@D@std@@V?$allocator@D@2@@std@@@std@@@2@$00@std@@QBEABV?$_Tree_val@U?$_Tree_simple_types@V?$basic_string@DU?$char_traits@D@std@@V?$allocator@D@2@@std@@@std@@@2@XZ 10026ca0 f i Configuration.obj
 0001:00025ca0       ?data@?$array@D$0BA@@std@@QAEPADXZ 10026ca0 f i Hooks.obj
 0001:00025ca0       ?_Get_second@?$_Compressed_pair@V?$allocator@V?$_List_unchecked_iterator@V?$_List_val@U?$_List_simple_types@U?$pair@$$CBV?$basic_string@DU?$char_traits@D@std@@V?$allocator@D@2@@std@@V?$set@V?$basic_string@DU?$char_traits@D@std@@V?$allocator@D@2@@std@@U?$less@V?$basic_string@DU?$char_traits@D@std@@V?$allocator@D@2@@std@@@2@V?$allocator@V?$basic_string@DU?$char_traits@D@std@@V?$allocator@D@2@@std@@@2@@2@@std@@@std@@@std@@@std@@@std@@V?$_Vector_val@U?$_Simple_types@V?$_List_unchecked_iterator@V?$_List_val@U?$_List_simple_types@U?$pair@$$CBV?$basic_string@DU?$char_traits@D@std@@V?$allocator@D@2@@std@@V?$set@V?$basic_string@DU?$char_traits@D@std@@V?$allocator@D@2@@std@@U?$less@V?$basic_string@DU?$char_traits@D@std@@V?$allocator@D@2@@std@@@2@V?$allocator@V?$basic_string@DU?$char_traits@D@std@@V?$allocator@D@2@@std@@@2@@2@@std@@@std@@@std@@@std@@@std@@@2@$00@std@@QAEAAV?$_Vector_val@U?$_Simple_types@V?$_List_unchecked_iterator@V?$_List_val@U?$_List_simple_types@U?$pair@$$CBV?$basic_string@DU?$char_traits@D@std@@V?$allocator@D@2@@std@@V?$set@V?$basic_string@DU?$char_traits@D@std@@V?$allocator@D@2@@std@@U?$less@V?$basic_string@DU?$char_traits@D@std@@V?$allocator@D@2@@std@@@2@V?$allocator@V?$basic_string@DU?$char_traits@D@std@@V?$allocator@D@2@@std@@@2@@2@@std@@@std@@@std@@@std@@@std@@@2@XZ 10026ca0 f i Configuration.obj
 0001:00025ca0       ?_Get_first@?$_Compressed_pair@V?$allocator@V?$_List_unchecked_iterator@V?$_List_val@U?$_List_simple_types@U?$pair@$$CBV?$basic_string@DU?$char_traits@D@std@@V?$allocator@D@2@@std@@V12@@std@@@std@@@std@@@std@@@std@@V?$_Vector_val@U?$_Simple_types@V?$_List_unchecked_iterator@V?$_List_val@U?$_List_simple_types@U?$pair@$$CBV?$basic_string@DU?$char_traits@D@std@@V?$allocator@D@2@@std@@V12@@std@@@std@@@std@@@std@@@std@@@2@$00@std@@QBEABV?$allocator@V?$_List_unchecked_iterator@V?$_List_val@U?$_List_simple_types@U?$pair@$$CBV?$basic_string@DU?$char_traits@D@std@@V?$allocator@D@2@@std@@V12@@std@@@std@@@std@@@std@@@2@XZ 10026ca0 f i Configuration.obj
 0001:00025ca0       ?_Get_first@?$_Compressed_pair@V?$allocator@V?$basic_string@DU?$char_traits@D@std@@V?$allocator@D@2@@std@@@std@@V?$_Vector_val@U?$_Simple_types@V?$basic_string@DU?$char_traits@D@std@@V?$allocator@D@2@@std@@@std@@@2@$00@std@@QAEAAV?$allocator@V?$basic_string@DU?$char_traits@D@std@@V?$allocator@D@2@@std@@@2@XZ 10026ca0 f i Configuration.obj
 0001:00025ca0       ?_Get_first@?$_Compressed_pair@V?$allocator@U?$_List_node@U?$pair@$$CBV?$basic_string@DU?$char_traits@D@std@@V?$allocator@D@2@@std@@V?$set@V?$basic_string@DU?$char_traits@D@std@@V?$allocator@D@2@@std@@U?$less@V?$basic_string@DU?$char_traits@D@std@@V?$allocator@D@2@@std@@@2@V?$allocator@V?$basic_string@DU?$char_traits@D@std@@V?$allocator@D@2@@std@@@2@@2@@std@@PAX@std@@@std@@V?$_List_val@U?$_List_simple_types@U?$pair@$$CBV?$basic_string@DU?$char_traits@D@std@@V?$allocator@D@2@@std@@V?$set@V?$basic_string@DU?$char_traits@D@std@@V?$allocator@D@2@@std@@U?$less@V?$basic_string@DU?$char_traits@D@std@@V?$allocator@D@2@@std@@@2@V?$allocator@V?$basic_string@DU?$char_traits@D@std@@V?$allocator@D@2@@std@@@2@@2@@std@@@std@@@2@$00@std@@QBEABV?$allocator@U?$_List_node@U?$pair@$$CBV?$basic_string@DU?$char_traits@D@std@@V?$allocator@D@2@@std@@V?$set@V?$basic_string@DU?$char_traits@D@std@@V?$allocator@D@2@@std@@U?$less@V?$basic_string@DU?$char_traits@D@std@@V?$allocator@D@2@@std@@@2@V?$allocator@V?$basic_string@DU?$char_traits@D@std@@V?$allocator@D@2@@std@@@2@@2@@std@@PAX@std@@@2@XZ 10026ca0 f i Hooks.obj
 0001:00025ca0       ??0?$allocator@U?$pair@$$CBV?$basic_string@DU?$char_traits@D@std@@V?$allocator@D@2@@std@@UskinInfo@@@std@@@std@@QAE@XZ 10026ca0 f i Configuration.obj
 0001:00025ca0       ?_Get_first@?$_Compressed_pair@V?$allocator@V?$_List_unchecked_iterator@V?$_List_val@U?$_List_simple_types@U?$pair@$$CBV?$basic_string@DU?$char_traits@D@std@@V?$allocator@D@2@@std@@V?$set@V?$basic_string@DU?$char_traits@D@std@@V?$allocator@D@2@@std@@U?$less@V?$basic_string@DU?$char_traits@D@std@@V?$allocator@D@2@@std@@@2@V?$allocator@V?$basic_string@DU?$char_traits@D@std@@V?$allocator@D@2@@std@@@2@@2@@std@@@std@@@std@@@std@@@std@@V?$_Vector_val@U?$_Simple_types@V?$_List_unchecked_iterator@V?$_List_val@U?$_List_simple_types@U?$pair@$$CBV?$basic_string@DU?$char_traits@D@std@@V?$allocator@D@2@@std@@V?$set@V?$basic_string@DU?$char_traits@D@std@@V?$allocator@D@2@@std@@U?$less@V?$basic_string@DU?$char_traits@D@std@@V?$allocator@D@2@@std@@@2@V?$allocator@V?$basic_string@DU?$char_traits@D@std@@V?$allocator@D@2@@std@@@2@@2@@std@@@std@@@std@@@std@@@std@@@2@$00@std@@QBEABV?$allocator@V?$_List_unchecked_iterator@V?$_List_val@U?$_List_simple_types@U?$pair@$$CBV?$basic_string@DU?$char_traits@D@std@@V?$allocator@D@2@@std@@V?$set@V?$basic_string@DU?$char_traits@D@std@@V?$allocator@D@2@@std@@U?$less@V?$basic_string@DU?$char_traits@D@std@@V?$allocator@D@2@@std@@@2@V?$allocator@V?$basic_string@DU?$char_traits@D@std@@V?$allocator@D@2@@std@@@2@@2@@std@@@std@@@std@@@std@@@2@XZ 10026ca0 f i Configuration.obj
 0001:00025ca0       ??0?$allocator@V?$basic_string@DU?$char_traits@D@std@@V?$allocator@D@2@@std@@@std@@QAE@XZ 10026ca0 f i Configuration.obj
 0001:00025ca0       ?_Get_second@?$_Compressed_pair@V?$allocator@V?$shared_ptr@VNode@valve_parser@@@std@@@std@@V?$_Deque_val@U?$_Deque_simple_types@V?$shared_ptr@VNode@valve_parser@@@std@@@std@@@2@$00@std@@QAEAAV?$_Deque_val@U?$_Deque_simple_types@V?$shared_ptr@VNode@valve_parser@@@std@@@std@@@2@XZ 10026ca0 f i Hooks.obj
 0001:00025ca0       ??0?$allocator@V?$shared_ptr@VNode@valve_parser@@@std@@@std@@QAE@XZ 10026ca0 f i Parser.obj
 0001:00025ca0       ??0?$singleton@Vvisuals@@@@IAE@XZ 10026ca0 f i ESP.obj
 0001:00025ca0       ?data@?$array@D$00@std@@QAEPADXZ 10026ca0 f i Misc.obj
 0001:00025ca0       ?_Get_second@?$_Compressed_pair@V?$allocator@PAV?$ConfigValue@M@@@std@@V?$_Vector_val@U?$_Simple_types@PAV?$ConfigValue@M@@@std@@@2@$00@std@@QBEABV?$_Vector_val@U?$_Simple_types@PAV?$ConfigValue@M@@@std@@@2@XZ 10026ca0 f i Configuration.obj
 0001:00025ca0       ?data@?$array@D$08@std@@QAEPADXZ 10026ca0 f i Hooks.obj
 0001:00025ca0       ?_Get_second@?$_Compressed_pair@V?$allocator@U?$_List_node@U?$pair@$$CBV?$basic_string@DU?$char_traits@D@std@@V?$allocator@D@2@@std@@UskinInfo@@@std@@PAX@std@@@std@@V?$_List_val@U?$_List_simple_types@U?$pair@$$CBV?$basic_string@DU?$char_traits@D@std@@V?$allocator@D@2@@std@@UskinInfo@@@std@@@std@@@2@$00@std@@QAEAAV?$_List_val@U?$_List_simple_types@U?$pair@$$CBV?$basic_string@DU?$char_traits@D@std@@V?$allocator@D@2@@std@@UskinInfo@@@std@@@std@@@2@XZ 10026ca0 f i Configuration.obj
 0001:00025ca0       ?_Get_second@?$_Compressed_pair@V?$allocator@V?$shared_ptr@VNode@valve_parser@@@std@@@std@@V?$_Deque_val@U?$_Deque_simple_types@V?$shared_ptr@VNode@valve_parser@@@std@@@std@@@2@$00@std@@QBEABV?$_Deque_val@U?$_Deque_simple_types@V?$shared_ptr@VNode@valve_parser@@@std@@@std@@@2@XZ 10026ca0 f i Hooks.obj
 0001:00025ca0       ??0Vector@@QAE@XZ          10026ca0 f i Autowall.obj
 0001:00025ca0       ?_Get_second@?$_Compressed_pair@U?$less@W4ItemDefinitionIndexx@@@std@@V?$_Compressed_pair@V?$allocator@U?$_Tree_node@U?$pair@$$CBW4ItemDefinitionIndexx@@UDefItem_t@@@std@@PAX@std@@@std@@V?$_Tree_val@U?$_Tree_simple_types@U?$pair@$$CBW4ItemDefinitionIndexx@@UDefItem_t@@@std@@@std@@@2@$00@2@$00@std@@QAEAAV?$_Compressed_pair@V?$allocator@U?$_Tree_node@U?$pair@$$CBW4ItemDefinitionIndexx@@UDefItem_t@@@std@@PAX@std@@@std@@V?$_Tree_val@U?$_Tree_simple_types@U?$pair@$$CBW4ItemDefinitionIndexx@@UDefItem_t@@@std@@@std@@@2@$00@2@XZ 10026ca0 f i recvproxy.obj
 0001:00025ca0       ?_Get_first@?$_Compressed_pair@U?$less@V?$basic_string@DU?$char_traits@D@std@@V?$allocator@D@2@@std@@@std@@V?$_Compressed_pair@V?$allocator@U?$_Tree_node@V?$basic_string@DU?$char_traits@D@std@@V?$allocator@D@2@@std@@PAX@std@@@std@@V?$_Tree_val@U?$_Tree_simple_types@V?$basic_string@DU?$char_traits@D@std@@V?$allocator@D@2@@std@@@std@@@2@$00@2@$00@std@@QAEAAU?$less@V?$basic_string@DU?$char_traits@D@std@@V?$allocator@D@2@@std@@@2@XZ 10026ca0 f i Hooks.obj
 0001:00025ca0       ??0?$singleton@Vmisc@@@@IAE@XZ 10026ca0 f i Hooks.obj
 0001:00025ca0       ?_Get_second@?$_Compressed_pair@V?$allocator@H@std@@V?$_Vector_val@U?$_Simple_types@H@std@@@2@$00@std@@QAEAAV?$_Vector_val@U?$_Simple_types@H@std@@@2@XZ 10026ca0 f i LegitBot.obj
 0001:00025ca0       ?data@?$array@D$04@std@@QAEPADXZ 10026ca0 f i Hooks.obj
 0001:00025ca0       ??0?$allocator@D@std@@QAE@XZ 10026ca0 f i Parser.obj
 0001:00025ca0       ?_Get_second@?$_Compressed_pair@V?$allocator@V?$shared_ptr@VNode@valve_parser@@@std@@@std@@V?$_Vector_val@U?$_Simple_types@V?$shared_ptr@VNode@valve_parser@@@std@@@std@@@2@$00@std@@QBEABV?$_Vector_val@U?$_Simple_types@V?$shared_ptr@VNode@valve_parser@@@std@@@std@@@2@XZ 10026ca0 f i Parser.obj
 0001:00025ca0       ?_Get_first@?$_Compressed_pair@V?$allocator@H@std@@V?$_Vector_val@U?$_Simple_types@H@std@@@2@$00@std@@QAEAAV?$allocator@H@2@XZ 10026ca0 f i LegitBot.obj
 0001:00025ca0       ?_Get_second@?$_Compressed_pair@V?$allocator@_S@std@@V?$_Vector_val@U?$_Simple_types@_S@std@@@2@$00@std@@QBEABV?$_Vector_val@U?$_Simple_types@_S@std@@@2@XZ 10026ca0 f i Parser.obj
 0001:00025ca0       ?data@?$array@D$07@std@@QAEPADXZ 10026ca0 f i ESP.obj
 0001:00025ca0       ?_Get_second@?$_Compressed_pair@V?$allocator@D@std@@V?$_String_val@U?$_Simple_types@D@std@@@2@$00@std@@QBEABV?$_String_val@U?$_Simple_types@D@std@@@2@XZ 10026ca0 f i Parser.obj
 0001:00025ca0       ?_Get_second@?$_Compressed_pair@V?$allocator@V?$_List_unchecked_iterator@V?$_List_val@U?$_List_simple_types@U?$pair@QADPAD@std@@@std@@@std@@@std@@@std@@V?$_Vector_val@U?$_Simple_types@V?$_List_unchecked_iterator@V?$_List_val@U?$_List_simple_types@U?$pair@QADPAD@std@@@std@@@std@@@std@@@std@@@2@$00@std@@QAEAAV?$_Vector_val@U?$_Simple_types@V?$_List_unchecked_iterator@V?$_List_val@U?$_List_simple_types@U?$pair@QADPAD@std@@@std@@@std@@@std@@@std@@@2@XZ 10026ca0 f i Hooks.obj
 0001:00025ca0       ?_Get_second@?$_Compressed_pair@V?$allocator@V?$_List_unchecked_iterator@V?$_List_val@U?$_List_simple_types@U?$pair@$$CBV?$basic_string@DU?$char_traits@D@std@@V?$allocator@D@2@@std@@UskinInfo@@@std@@@std@@@std@@@std@@@std@@V?$_Vector_val@U?$_Simple_types@V?$_List_unchecked_iterator@V?$_List_val@U?$_List_simple_types@U?$pair@$$CBV?$basic_string@DU?$char_traits@D@std@@V?$allocator@D@2@@std@@UskinInfo@@@std@@@std@@@std@@@std@@@std@@@2@$00@std@@QAEAAV?$_Vector_val@U?$_Simple_types@V?$_List_unchecked_iterator@V?$_List_val@U?$_List_simple_types@U?$pair@$$CBV?$basic_string@DU?$char_traits@D@std@@V?$allocator@D@2@@std@@UskinInfo@@@std@@@std@@@std@@@std@@@std@@@2@XZ 10026ca0 f i Configuration.obj
 0001:00025ca0       ?_Get_second@?$_Compressed_pair@U?$less@V?$basic_string@DU?$char_traits@D@std@@V?$allocator@D@2@@std@@@std@@V?$_Compressed_pair@V?$allocator@U?$_Tree_node@V?$basic_string@DU?$char_traits@D@std@@V?$allocator@D@2@@std@@PAX@std@@@std@@V?$_Tree_val@U?$_Tree_simple_types@V?$basic_string@DU?$char_traits@D@std@@V?$allocator@D@2@@std@@@std@@@2@$00@2@$00@std@@QBEABV?$_Compressed_pair@V?$allocator@U?$_Tree_node@V?$basic_string@DU?$char_traits@D@std@@V?$allocator@D@2@@std@@PAX@std@@@std@@V?$_Tree_val@U?$_Tree_simple_types@V?$basic_string@DU?$char_traits@D@std@@V?$allocator@D@2@@std@@@std@@@2@$00@2@XZ 10026ca0 f i Configuration.obj
 0001:00025ca0       ?data@?$array@D$0O@@std@@QAEPADXZ 10026ca0 f i Hooks.obj
 0001:00025ca0       ??0?$allocator@PAURecvTable@@@std@@QAE@XZ 10026ca0 f i NetVarManager.obj
 0001:00025ca0       ??0_Bxty@?$_String_val@U?$_Simple_types@D@std@@@std@@QAE@XZ 10026ca0 f i Parser.obj
 0001:00025ca0       ?_Get_first@?$_Compressed_pair@V?$allocator@PAV?$ConfigValue@H@@@std@@V?$_Vector_val@U?$_Simple_types@PAV?$ConfigValue@H@@@std@@@2@$00@std@@QAEAAV?$allocator@PAV?$ConfigValue@H@@@2@XZ 10026ca0 f i Configuration.obj
 0001:00025ca0       ?_Get_second@?$_Compressed_pair@V?$allocator@H@std@@V?$_Vector_val@U?$_Simple_types@H@std@@@2@$00@std@@QBEABV?$_Vector_val@U?$_Simple_types@H@std@@@2@XZ 10026ca0 f i LegitBot.obj
 0001:00025ca0       ?_Get_second@?$_Compressed_pair@V?$allocator@U?$_List_node@U?$pair@$$CBV?$basic_string@DU?$char_traits@D@std@@V?$allocator@D@2@@std@@V?$set@V?$basic_string@DU?$char_traits@D@std@@V?$allocator@D@2@@std@@U?$less@V?$basic_string@DU?$char_traits@D@std@@V?$allocator@D@2@@std@@@2@V?$allocator@V?$basic_string@DU?$char_traits@D@std@@V?$allocator@D@2@@std@@@2@@2@@std@@PAX@std@@@std@@V?$_List_val@U?$_List_simple_types@U?$pair@$$CBV?$basic_string@DU?$char_traits@D@std@@V?$allocator@D@2@@std@@V?$set@V?$basic_string@DU?$char_traits@D@std@@V?$allocator@D@2@@std@@U?$less@V?$basic_string@DU?$char_traits@D@std@@V?$allocator@D@2@@std@@@2@V?$allocator@V?$basic_string@DU?$char_traits@D@std@@V?$allocator@D@2@@std@@@2@@2@@std@@@std@@@2@$00@std@@QAEAAV?$_List_val@U?$_List_simple_types@U?$pair@$$CBV?$basic_string@DU?$char_traits@D@std@@V?$allocator@D@2@@std@@V?$set@V?$basic_string@DU?$char_traits@D@std@@V?$allocator@D@2@@std@@U?$less@V?$basic_string@DU?$char_traits@D@std@@V?$allocator@D@2@@std@@@2@V?$allocator@V?$basic_string@DU?$char_traits@D@std@@V?$allocator@D@2@@std@@@2@@2@@std@@@std@@@2@XZ 10026ca0 f i Configuration.obj
 0001:00025ca0       ?data@?$array@D$0DB@@std@@QAEPADXZ 10026ca0 f i Hooks.obj
 0001:00025ca0       ?_Get_first@?$_Compressed_pair@V?$allocator@V?$_List_unchecked_iterator@V?$_List_val@U?$_List_simple_types@U?$pair@QADPAD@std@@@std@@@std@@@std@@@std@@V?$_Vector_val@U?$_Simple_types@V?$_List_unchecked_iterator@V?$_List_val@U?$_List_simple_types@U?$pair@QADPAD@std@@@std@@@std@@@std@@@std@@@2@$00@std@@QAEAAV?$allocator@V?$_List_unchecked_iterator@V?$_List_val@U?$_List_simple_types@U?$pair@QADPAD@std@@@std@@@std@@@std@@@2@XZ 10026ca0 f i Hooks.obj
 0001:00025ca0       ?_Get_second@?$_Compressed_pair@V?$allocator@PAV?$ConfigValue@M@@@std@@V?$_Vector_val@U?$_Simple_types@PAV?$ConfigValue@M@@@std@@@2@$00@std@@QAEAAV?$_Vector_val@U?$_Simple_types@PAV?$ConfigValue@M@@@std@@@2@XZ 10026ca0 f i Configuration.obj
 0001:00025ca0       ?_Get_first@?$_Compressed_pair@V?$allocator@V?$shared_ptr@VNode@valve_parser@@@std@@@std@@V?$_Deque_val@U?$_Deque_simple_types@V?$shared_ptr@VNode@valve_parser@@@std@@@std@@@2@$00@std@@QAEAAV?$allocator@V?$shared_ptr@VNode@valve_parser@@@std@@@2@XZ 10026ca0 f i Hooks.obj
 0001:00025ca0       ?_Get_second@?$_Compressed_pair@U?$hash@PAD@std@@V?$_Compressed_pair@U?$equal_to@PAD@std@@M$00@2@$00@std@@QAEAAV?$_Compressed_pair@U?$equal_to@PAD@std@@M$00@2@XZ 10026ca0 f i Hooks.obj
 0001:00025ca0       ?_Get_first@?$_Compressed_pair@V?$allocator@D@std@@V?$_String_val@U?$_Simple_types@D@std@@@2@$00@std@@QAEAAV?$allocator@D@2@XZ 10026ca0 f i Parser.obj
 0001:00025ca0       ?_Get_second@?$_Compressed_pair@V?$allocator@U?$_Tree_node@V?$basic_string@DU?$char_traits@D@std@@V?$allocator@D@2@@std@@PAX@std@@@std@@V?$_Tree_val@U?$_Tree_simple_types@V?$basic_string@DU?$char_traits@D@std@@V?$allocator@D@2@@std@@@std@@@2@$00@std@@QAEAAV?$_Tree_val@U?$_Tree_simple_types@V?$basic_string@DU?$char_traits@D@std@@V?$allocator@D@2@@std@@@std@@@2@XZ 10026ca0 f i Configuration.obj
 0001:00025ca0       ??0?$allocator@PAV?$ConfigValue@_N@@@std@@QAE@XZ 10026ca0 f i Configuration.obj
 0001:00025ca0       ?data@?$array@D$09@std@@QAEPADXZ 10026ca0 f i Hooks.obj
 0001:00025ca0       ?_Get_first@?$_Compressed_pair@V?$allocator@_S@std@@V?$_Vector_val@U?$_Simple_types@_S@std@@@2@$00@std@@QBEABV?$allocator@_S@2@XZ 10026ca0 f i Parser.obj
 0001:00025ca0       ?data@?$array@D$01@std@@QAEPADXZ 10026ca0 f i Hooks.obj
 0001:00025ca0       ?_Get_second@?$_Compressed_pair@V?$allocator@U?$_List_node@U?$pair@$$CBV?$basic_string@DU?$char_traits@D@std@@V?$allocator@D@2@@std@@V?$set@V?$basic_string@DU?$char_traits@D@std@@V?$allocator@D@2@@std@@U?$less@V?$basic_string@DU?$char_traits@D@std@@V?$allocator@D@2@@std@@@2@V?$allocator@V?$basic_string@DU?$char_traits@D@std@@V?$allocator@D@2@@std@@@2@@2@@std@@PAX@std@@@std@@V?$_List_val@U?$_List_simple_types@U?$pair@$$CBV?$basic_string@DU?$char_traits@D@std@@V?$allocator@D@2@@std@@V?$set@V?$basic_string@DU?$char_traits@D@std@@V?$allocator@D@2@@std@@U?$less@V?$basic_string@DU?$char_traits@D@std@@V?$allocator@D@2@@std@@@2@V?$allocator@V?$basic_string@DU?$char_traits@D@std@@V?$allocator@D@2@@std@@@2@@2@@std@@@std@@@2@$00@std@@QBEABV?$_List_val@U?$_List_simple_types@U?$pair@$$CBV?$basic_string@DU?$char_traits@D@std@@V?$allocator@D@2@@std@@V?$set@V?$basic_string@DU?$char_traits@D@std@@V?$allocator@D@2@@std@@U?$less@V?$basic_string@DU?$char_traits@D@std@@V?$allocator@D@2@@std@@@2@V?$allocator@V?$basic_string@DU?$char_traits@D@std@@V?$allocator@D@2@@std@@@2@@2@@std@@@std@@@2@XZ 10026ca0 f i Hooks.obj
 0001:00025ca0       ?_Get_second@?$_Compressed_pair@V?$allocator@V?$basic_string@DU?$char_traits@D@std@@V?$allocator@D@2@@std@@@std@@V?$_Vector_val@U?$_Simple_types@V?$basic_string@DU?$char_traits@D@std@@V?$allocator@D@2@@std@@@std@@@2@$00@std@@QBEABV?$_Vector_val@U?$_Simple_types@V?$basic_string@DU?$char_traits@D@std@@V?$allocator@D@2@@std@@@std@@@2@XZ 10026ca0 f i Configuration.obj
 0001:00025ca0       ?data@?$array@D$0M@@std@@QAEPADXZ 10026ca0 f i Hooks.obj
 0001:00025ca0       ?_Get_first@?$_Compressed_pair@V?$allocator@U?$_Tree_node@V?$basic_string@DU?$char_traits@D@std@@V?$allocator@D@2@@std@@PAX@std@@@std@@V?$_Tree_val@U?$_Tree_simple_types@V?$basic_string@DU?$char_traits@D@std@@V?$allocator@D@2@@std@@@std@@@2@$00@std@@QAEAAV?$allocator@U?$_Tree_node@V?$basic_string@DU?$char_traits@D@std@@V?$allocator@D@2@@std@@PAX@std@@@2@XZ 10026ca0 f i Configuration.obj
 0001:00025ca0       ?_Get_second@?$_Compressed_pair@U?$hash@V?$basic_string@DU?$char_traits@D@std@@V?$allocator@D@2@@std@@@std@@V?$_Compressed_pair@U?$equal_to@V?$basic_string@DU?$char_traits@D@std@@V?$allocator@D@2@@std@@@std@@M$00@2@$00@std@@QBEABV?$_Compressed_pair@U?$equal_to@V?$basic_string@DU?$char_traits@D@std@@V?$allocator@D@2@@std@@@std@@M$00@2@XZ 10026ca0 f i Hooks.obj
 0001:00025ca0       ??0?$singleton@Vragebot@@@@IAE@XZ 10026ca0 f i RageBot.obj
 0001:00025ca0       ?_Get_first@?$_Compressed_pair@V?$allocator@U?$_List_node@U?$pair@$$CBV?$basic_string@DU?$char_traits@D@std@@V?$allocator@D@2@@std@@UskinInfo@@@std@@PAX@std@@@std@@V?$_List_val@U?$_List_simple_types@U?$pair@$$CBV?$basic_string@DU?$char_traits@D@std@@V?$allocator@D@2@@std@@UskinInfo@@@std@@@std@@@2@$00@std@@QBEABV?$allocator@U?$_List_node@U?$pair@$$CBV?$basic_string@DU?$char_traits@D@std@@V?$allocator@D@2@@std@@UskinInfo@@@std@@PAX@std@@@2@XZ 10026ca0 f i Hooks.obj
 0001:00025ca0       ?_Get_second@?$_Compressed_pair@V?$allocator@V?$basic_string@DU?$char_traits@D@std@@V?$allocator@D@2@@std@@@std@@V?$_Vector_val@U?$_Simple_types@V?$basic_string@DU?$char_traits@D@std@@V?$allocator@D@2@@std@@@std@@@2@$00@std@@QAEAAV?$_Vector_val@U?$_Simple_types@V?$basic_string@DU?$char_traits@D@std@@V?$allocator@D@2@@std@@@std@@@2@XZ 10026ca0 f i Configuration.obj
 0001:00025ca0       ?_Get_first@?$_Compressed_pair@V?$allocator@PAURecvTable@@@std@@V?$_Vector_val@U?$_Simple_types@PAURecvTable@@@std@@@2@$00@std@@QAEAAV?$allocator@PAURecvTable@@@2@XZ 10026ca0 f i NetVarManager.obj
 0001:00025ca0       ?_Get_first@?$_Compressed_pair@V?$allocator@U?$_Tree_node@V?$basic_string@DU?$char_traits@D@std@@V?$allocator@D@2@@std@@PAX@std@@@std@@V?$_Tree_val@U?$_Tree_simple_types@V?$basic_string@DU?$char_traits@D@std@@V?$allocator@D@2@@std@@@std@@@2@$00@std@@QBEABV?$allocator@U?$_Tree_node@V?$basic_string@DU?$char_traits@D@std@@V?$allocator@D@2@@std@@PAX@std@@@2@XZ 10026ca0 f i Hooks.obj
 0001:00025ca0       ??0?$allocator@U?$pair@$$CBV?$basic_string@DU?$char_traits@D@std@@V?$allocator@D@2@@std@@V?$set@V?$basic_string@DU?$char_traits@D@std@@V?$allocator@D@2@@std@@U?$less@V?$basic_string@DU?$char_traits@D@std@@V?$allocator@D@2@@std@@@2@V?$allocator@V?$basic_string@DU?$char_traits@D@std@@V?$allocator@D@2@@std@@@2@@2@@std@@@std@@QAE@XZ 10026ca0 f i Configuration.obj
 0001:00025ca0       ?_Get_second@?$_Compressed_pair@U?$hash@V?$basic_string@DU?$char_traits@D@std@@V?$allocator@D@2@@std@@@std@@V?$_Compressed_pair@U?$equal_to@V?$basic_string@DU?$char_traits@D@std@@V?$allocator@D@2@@std@@@std@@M$00@2@$00@std@@QAEAAV?$_Compressed_pair@U?$equal_to@V?$basic_string@DU?$char_traits@D@std@@V?$allocator@D@2@@std@@@std@@M$00@2@XZ 10026ca0 f i Configuration.obj
 0001:00025ca0       ?_Get_second@?$_Compressed_pair@V?$allocator@V?$_List_unchecked_iterator@V?$_List_val@U?$_List_simple_types@U?$pair@$$CBV?$basic_string@DU?$char_traits@D@std@@V?$allocator@D@2@@std@@V12@@std@@@std@@@std@@@std@@@std@@V?$_Vector_val@U?$_Simple_types@V?$_List_unchecked_iterator@V?$_List_val@U?$_List_simple_types@U?$pair@$$CBV?$basic_string@DU?$char_traits@D@std@@V?$allocator@D@2@@std@@V12@@std@@@std@@@std@@@std@@@std@@@2@$00@std@@QBEABV?$_Vector_val@U?$_Simple_types@V?$_List_unchecked_iterator@V?$_List_val@U?$_List_simple_types@U?$pair@$$CBV?$basic_string@DU?$char_traits@D@std@@V?$allocator@D@2@@std@@V12@@std@@@std@@@std@@@std@@@std@@@2@XZ 10026ca0 f i Configuration.obj
 0001:00025ca0       ??0?$allocator@U?$_Tree_node@U?$pair@$$CBW4ItemDefinitionIndexx@@UDefItem_t@@@std@@PAX@std@@@std@@QAE@XZ 10026ca0 f i recvproxy.obj
 0001:00025ca0       ?_Get_first@?$_Compressed_pair@V?$allocator@PAV?$ConfigValue@H@@@std@@V?$_Vector_val@U?$_Simple_types@PAV?$ConfigValue@H@@@std@@@2@$00@std@@QBEABV?$allocator@PAV?$ConfigValue@H@@@2@XZ 10026ca0 f i Configuration.obj
 0001:00025ca0       ?_Get_second@?$_Compressed_pair@V?$allocator@PAV?$ConfigValue@_N@@@std@@V?$_Vector_val@U?$_Simple_types@PAV?$ConfigValue@_N@@@std@@@2@$00@std@@QBEABV?$_Vector_val@U?$_Simple_types@PAV?$ConfigValue@_N@@@std@@@2@XZ 10026ca0 f i Configuration.obj
 0001:00025ca0       ?_Get_first@?$_Compressed_pair@V?$allocator@PAV?$ConfigValue@M@@@std@@V?$_Vector_val@U?$_Simple_types@PAV?$ConfigValue@M@@@std@@@2@$00@std@@QBEABV?$allocator@PAV?$ConfigValue@M@@@2@XZ 10026ca0 f i Configuration.obj
 0001:00025ca0       ?_Get_second@?$_Compressed_pair@V?$allocator@PAV?$ConfigValue@H@@@std@@V?$_Vector_val@U?$_Simple_types@PAV?$ConfigValue@H@@@std@@@2@$00@std@@QBEABV?$_Vector_val@U?$_Simple_types@PAV?$ConfigValue@H@@@std@@@2@XZ 10026ca0 f i Configuration.obj
 0001:00025ca0       ?_Get_first@?$_Compressed_pair@V?$allocator@V?$basic_string@DU?$char_traits@D@std@@V?$allocator@D@2@@std@@@std@@V?$_Vector_val@U?$_Simple_types@V?$basic_string@DU?$char_traits@D@std@@V?$allocator@D@2@@std@@@std@@@2@$00@std@@QBEABV?$allocator@V?$basic_string@DU?$char_traits@D@std@@V?$allocator@D@2@@std@@@2@XZ 10026ca0 f i Hooks.obj
 0001:00025ca0       ?_Get_first@?$_Compressed_pair@V?$allocator@V?$_List_unchecked_iterator@V?$_List_val@U?$_List_simple_types@U?$pair@$$CBV?$basic_string@DU?$char_traits@D@std@@V?$allocator@D@2@@std@@V12@@std@@@std@@@std@@@std@@@std@@V?$_Vector_val@U?$_Simple_types@V?$_List_unchecked_iterator@V?$_List_val@U?$_List_simple_types@U?$pair@$$CBV?$basic_string@DU?$char_traits@D@std@@V?$allocator@D@2@@std@@V12@@std@@@std@@@std@@@std@@@std@@@2@$00@std@@QAEAAV?$allocator@V?$_List_unchecked_iterator@V?$_List_val@U?$_List_simple_types@U?$pair@$$CBV?$basic_string@DU?$char_traits@D@std@@V?$allocator@D@2@@std@@V12@@std@@@std@@@std@@@std@@@2@XZ 10026ca0 f i Configuration.obj
 0001:00025ca0       ?data@?$array@D$0BM@@std@@QAEPADXZ 10026ca0 f i Hooks.obj
 0001:00025ca0       ?_Get_first@?$_Compressed_pair@V?$allocator@V?$shared_ptr@VNode@valve_parser@@@std@@@std@@V?$_Vector_val@U?$_Simple_types@V?$shared_ptr@VNode@valve_parser@@@std@@@std@@@2@$00@std@@QAEAAV?$allocator@V?$shared_ptr@VNode@valve_parser@@@std@@@2@XZ 10026ca0 f i Parser.obj
 0001:00025ca0       ?_Get_second@?$_Compressed_pair@V?$allocator@VVector@@@std@@V?$_Vector_val@U?$_Simple_types@VVector@@@std@@@2@$00@std@@QAEAAV?$_Vector_val@U?$_Simple_types@VVector@@@std@@@2@XZ 10026ca0 f i ESP.obj
 0001:00025ca0       ?_Get_second@?$_Compressed_pair@V?$allocator@V?$_List_unchecked_iterator@V?$_List_val@U?$_List_simple_types@U?$pair@$$CBV?$basic_string@DU?$char_traits@D@std@@V?$allocator@D@2@@std@@UskinInfo@@@std@@@std@@@std@@@std@@@std@@V?$_Vector_val@U?$_Simple_types@V?$_List_unchecked_iterator@V?$_List_val@U?$_List_simple_types@U?$pair@$$CBV?$basic_string@DU?$char_traits@D@std@@V?$allocator@D@2@@std@@UskinInfo@@@std@@@std@@@std@@@std@@@std@@@2@$00@std@@QBEABV?$_Vector_val@U?$_Simple_types@V?$_List_unchecked_iterator@V?$_List_val@U?$_List_simple_types@U?$pair@$$CBV?$basic_string@DU?$char_traits@D@std@@V?$allocator@D@2@@std@@UskinInfo@@@std@@@std@@@std@@@std@@@std@@@2@XZ 10026ca0 f i Configuration.obj
 0001:00025ca0       ?_Get_first@?$_Compressed_pair@V?$allocator@V?$shared_ptr@VNode@valve_parser@@@std@@@std@@V?$_Vector_val@U?$_Simple_types@V?$shared_ptr@VNode@valve_parser@@@std@@@std@@@2@$00@std@@QBEABV?$allocator@V?$shared_ptr@VNode@valve_parser@@@std@@@2@XZ 10026ca0 f i Parser.obj
 0001:00025ca0       ?_Get_first@?$_Compressed_pair@V?$allocator@PAURecvTable@@@std@@V?$_Vector_val@U?$_Simple_types@PAURecvTable@@@std@@@2@$00@std@@QBEABV?$allocator@PAURecvTable@@@2@XZ 10026ca0 f i NetVarManager.obj
 0001:00025ca0       ?_Get_second@?$_Compressed_pair@V?$allocator@U?$_List_node@U?$pair@$$CBV?$basic_string@DU?$char_traits@D@std@@V?$allocator@D@2@@std@@V12@@std@@PAX@std@@@std@@V?$_List_val@U?$_List_simple_types@U?$pair@$$CBV?$basic_string@DU?$char_traits@D@std@@V?$allocator@D@2@@std@@V12@@std@@@std@@@2@$00@std@@QAEAAV?$_List_val@U?$_List_simple_types@U?$pair@$$CBV?$basic_string@DU?$char_traits@D@std@@V?$allocator@D@2@@std@@V12@@std@@@std@@@2@XZ 10026ca0 f i Configuration.obj
 0001:00025ca0       ??0?$allocator@PAV?$ConfigValue@M@@@std@@QAE@XZ 10026ca0 f i Configuration.obj
 0001:00025ca0       ?_Get_first@?$_Compressed_pair@V?$allocator@PAV?$ConfigValue@_N@@@std@@V?$_Vector_val@U?$_Simple_types@PAV?$ConfigValue@_N@@@std@@@2@$00@std@@QAEAAV?$allocator@PAV?$ConfigValue@_N@@@2@XZ 10026ca0 f i Configuration.obj
 0001:00025ca0       ?_Get_first@?$_Compressed_pair@V?$allocator@_S@std@@V?$_Vector_val@U?$_Simple_types@_S@std@@@2@$00@std@@QAEAAV?$allocator@_S@2@XZ 10026ca0 f i Parser.obj
 0001:00025ca0       ?ToKeyValue@KeyValue@valve_parser@@UAEPAV12@XZ 10026ca0 f i Parser.obj
 0001:00025ca0       ?_Get_first@?$_Compressed_pair@U?$hash@V?$basic_string@DU?$char_traits@D@std@@V?$allocator@D@2@@std@@@std@@V?$_Compressed_pair@U?$equal_to@V?$basic_string@DU?$char_traits@D@std@@V?$allocator@D@2@@std@@@std@@M$00@2@$00@std@@QBEABU?$hash@V?$basic_string@DU?$char_traits@D@std@@V?$allocator@D@2@@std@@@2@XZ 10026ca0 f i Hooks.obj
 0001:00025ca0       ?_Get_first@?$_Compressed_pair@U?$less@W4ItemDefinitionIndexx@@@std@@V?$_Compressed_pair@V?$allocator@U?$_Tree_node@U?$pair@$$CBW4ItemDefinitionIndexx@@UDefItem_t@@@std@@PAX@std@@@std@@V?$_Tree_val@U?$_Tree_simple_types@U?$pair@$$CBW4ItemDefinitionIndexx@@UDefItem_t@@@std@@@std@@@2@$00@2@$00@std@@QAEAAU?$less@W4ItemDefinitionIndexx@@@2@XZ 10026ca0 f i recvproxy.obj
 0001:00025ca0       ?data@?$array@D$0BB@@std@@QAEPADXZ 10026ca0 f i Hooks.obj
 0001:00025ca0       ?_Get_second@?$_Compressed_pair@V?$allocator@E@std@@V?$_Vector_val@U?$_Simple_types@E@std@@@2@$00@std@@QBEABV?$_Vector_val@U?$_Simple_types@E@std@@@2@XZ 10026ca0 f i Utilities.obj
 0001:00025ca0       ?data@?$array@D$03@std@@QAEPADXZ 10026ca0 f i Hooks.obj
 0001:00025ca0       ?_Get_second@?$_Compressed_pair@V?$allocator@VVector@@@std@@V?$_Vector_val@U?$_Simple_types@VVector@@@std@@@2@$00@std@@QBEABV?$_Vector_val@U?$_Simple_types@VVector@@@std@@@2@XZ 10026ca0 f i ESP.obj
 0001:00025ca0       ?_Get_first@?$_Compressed_pair@V?$allocator@V?$_List_unchecked_iterator@V?$_List_val@U?$_List_simple_types@U?$pair@QADPAD@std@@@std@@@std@@@std@@@std@@V?$_Vector_val@U?$_Simple_types@V?$_List_unchecked_iterator@V?$_List_val@U?$_List_simple_types@U?$pair@QADPAD@std@@@std@@@std@@@std@@@std@@@2@$00@std@@QBEABV?$allocator@V?$_List_unchecked_iterator@V?$_List_val@U?$_List_simple_types@U?$pair@QADPAD@std@@@std@@@std@@@std@@@2@XZ 10026ca0 f i Hooks.obj
 0001:00025ca0       ?_Get_first@?$_Compressed_pair@V?$allocator@VVector@@@std@@V?$_Vector_val@U?$_Simple_types@VVector@@@std@@@2@$00@std@@QAEAAV?$allocator@VVector@@@2@XZ 10026ca0 f i ESP.obj
 0001:00025ca0       ?_Get_second@?$_Compressed_pair@V?$allocator@U?$_List_node@U?$pair@QADPAD@std@@PAX@std@@@std@@V?$_List_val@U?$_List_simple_types@U?$pair@QADPAD@std@@@std@@@2@$00@std@@QAEAAV?$_List_val@U?$_List_simple_types@U?$pair@QADPAD@std@@@std@@@2@XZ 10026ca0 f i Hooks.obj
 0001:00025ca0       ?_Get_second@?$_Compressed_pair@U?$less@W4ItemDefinitionIndexx@@@std@@V?$_Compressed_pair@V?$allocator@U?$_Tree_node@U?$pair@$$CBW4ItemDefinitionIndexx@@UDefItem_t@@@std@@PAX@std@@@std@@V?$_Tree_val@U?$_Tree_simple_types@U?$pair@$$CBW4ItemDefinitionIndexx@@UDefItem_t@@@std@@@std@@@2@$00@2@$00@std@@QBEABV?$_Compressed_pair@V?$allocator@U?$_Tree_node@U?$pair@$$CBW4ItemDefinitionIndexx@@UDefItem_t@@@std@@PAX@std@@@std@@V?$_Tree_val@U?$_Tree_simple_types@U?$pair@$$CBW4ItemDefinitionIndexx@@UDefItem_t@@@std@@@std@@@2@$00@2@XZ 10026ca0 f i recvproxy.obj
 0001:00025ca0       ??0?$allocator@PAV?$ConfigValue@H@@@std@@QAE@XZ 10026ca0 f i Configuration.obj
 0001:00025ca0       ?_Get_first@?$_Compressed_pair@U?$less@W4ItemDefinitionIndexx@@@std@@V?$_Compressed_pair@V?$allocator@U?$_Tree_node@U?$pair@$$CBW4ItemDefinitionIndexx@@UDefItem_t@@@std@@PAX@std@@@std@@V?$_Tree_val@U?$_Tree_simple_types@U?$pair@$$CBW4ItemDefinitionIndexx@@UDefItem_t@@@std@@@std@@@2@$00@2@$00@std@@QBEABU?$less@W4ItemDefinitionIndexx@@@2@XZ 10026ca0 f i Hooks.obj
 0001:00025ca0       ?_Get_first@?$_Compressed_pair@V?$allocator@V?$_List_unchecked_iterator@V?$_List_val@U?$_List_simple_types@U?$pair@$$CBV?$basic_string@DU?$char_traits@D@std@@V?$allocator@D@2@@std@@UskinInfo@@@std@@@std@@@std@@@std@@@std@@V?$_Vector_val@U?$_Simple_types@V?$_List_unchecked_iterator@V?$_List_val@U?$_List_simple_types@U?$pair@$$CBV?$basic_string@DU?$char_traits@D@std@@V?$allocator@D@2@@std@@UskinInfo@@@std@@@std@@@std@@@std@@@std@@@2@$00@std@@QBEABV?$allocator@V?$_List_unchecked_iterator@V?$_List_val@U?$_List_simple_types@U?$pair@$$CBV?$basic_string@DU?$char_traits@D@std@@V?$allocator@D@2@@std@@UskinInfo@@@std@@@std@@@std@@@std@@@2@XZ 10026ca0 f i Configuration.obj
 0001:00025ca0       ?_Get_second@?$_Compressed_pair@V?$allocator@U?$_Tree_node@U?$pair@$$CBW4ItemDefinitionIndexx@@UDefItem_t@@@std@@PAX@std@@@std@@V?$_Tree_val@U?$_Tree_simple_types@U?$pair@$$CBW4ItemDefinitionIndexx@@UDefItem_t@@@std@@@std@@@2@$00@std@@QBEABV?$_Tree_val@U?$_Tree_simple_types@U?$pair@$$CBW4ItemDefinitionIndexx@@UDefItem_t@@@std@@@std@@@2@XZ 10026ca0 f i recvproxy.obj
 0001:00025ca0       ?_Get_first@?$_Compressed_pair@V?$allocator@V?$_List_unchecked_iterator@V?$_List_val@U?$_List_simple_types@U?$pair@$$CBV?$basic_string@DU?$char_traits@D@std@@V?$allocator@D@2@@std@@UskinInfo@@@std@@@std@@@std@@@std@@@std@@V?$_Vector_val@U?$_Simple_types@V?$_List_unchecked_iterator@V?$_List_val@U?$_List_simple_types@U?$pair@$$CBV?$basic_string@DU?$char_traits@D@std@@V?$allocator@D@2@@std@@UskinInfo@@@std@@@std@@@std@@@std@@@std@@@2@$00@std@@QAEAAV?$allocator@V?$_List_unchecked_iterator@V?$_List_val@U?$_List_simple_types@U?$pair@$$CBV?$basic_string@DU?$char_traits@D@std@@V?$allocator@D@2@@std@@UskinInfo@@@std@@@std@@@std@@@std@@@2@XZ 10026ca0 f i Configuration.obj
 0001:00025ca0       ??0?$allocator@U?$pair@$$CBV?$basic_string@DU?$char_traits@D@std@@V?$allocator@D@2@@std@@V12@@std@@@std@@QAE@XZ 10026ca0 f i Configuration.obj
 0001:00025ca0       ?_Get_second@?$_Compressed_pair@U?$equal_to@PAD@std@@M$00@std@@QAEAAMXZ 10026ca0 f i Hooks.obj
 0001:00025ca0       ?_Get_second@?$_Compressed_pair@V?$allocator@V?$shared_ptr@VNode@valve_parser@@@std@@@std@@V?$_Vector_val@U?$_Simple_types@V?$shared_ptr@VNode@valve_parser@@@std@@@std@@@2@$00@std@@QAEAAV?$_Vector_val@U?$_Simple_types@V?$shared_ptr@VNode@valve_parser@@@std@@@std@@@2@XZ 10026ca0 f i Parser.obj
 0001:00025ca0       ?_Get_second@?$_Compressed_pair@V?$allocator@PAV?$ConfigValue@_N@@@std@@V?$_Vector_val@U?$_Simple_types@PAV?$ConfigValue@_N@@@std@@@2@$00@std@@QAEAAV?$_Vector_val@U?$_Simple_types@PAV?$ConfigValue@_N@@@std@@@2@XZ 10026ca0 f i Configuration.obj
 0001:00025ca0       ?_Get_first@?$_Compressed_pair@V?$allocator@U?$_List_node@U?$pair@$$CBV?$basic_string@DU?$char_traits@D@std@@V?$allocator@D@2@@std@@V12@@std@@PAX@std@@@std@@V?$_List_val@U?$_List_simple_types@U?$pair@$$CBV?$basic_string@DU?$char_traits@D@std@@V?$allocator@D@2@@std@@V12@@std@@@std@@@2@$00@std@@QAEAAV?$allocator@U?$_List_node@U?$pair@$$CBV?$basic_string@DU?$char_traits@D@std@@V?$allocator@D@2@@std@@V12@@std@@PAX@std@@@2@XZ 10026ca0 f i Configuration.obj
 0001:00025ca0       ?data@?$array@D$06@std@@QAEPADXZ 10026ca0 f i ESP.obj
 0001:00025ca0       ??0?$allocator@H@std@@QAE@XZ 10026ca0 f i LegitBot.obj
 0001:00025ca0       ?_Get_first@?$_Compressed_pair@U?$equal_to@V?$basic_string@DU?$char_traits@D@std@@V?$allocator@D@2@@std@@@std@@M$00@std@@QBEABU?$equal_to@V?$basic_string@DU?$char_traits@D@std@@V?$allocator@D@2@@std@@@2@XZ 10026ca0 f i Hooks.obj
 0001:00025ca0       ??0?$singleton@Vitem_purchase@@@@IAE@XZ 10026ca0 f i Hooks.obj
 0001:00025ca0       ?data@?$array@D$0P@@std@@QAEPADXZ 10026ca0 f i Hooks.obj
 0001:00025ca0       ??0?$singleton@Vlegitbot@@@@IAE@XZ 10026ca0 f i LegitBot.obj
 0001:00025ca0       ?_Get_second@?$_Compressed_pair@V?$allocator@_S@std@@V?$_Vector_val@U?$_Simple_types@_S@std@@@2@$00@std@@QAEAAV?$_Vector_val@U?$_Simple_types@_S@std@@@2@XZ 10026ca0 f i Parser.obj
 0001:00025ca0       ??0?$singleton@Vgrenade_prediction@@@@IAE@XZ 10026ca0 f i ESP.obj
 0001:00025ca0       ?_Get_second@?$_Compressed_pair@V?$allocator@U?$_List_node@U?$pair@$$CBV?$basic_string@DU?$char_traits@D@std@@V?$allocator@D@2@@std@@V12@@std@@PAX@std@@@std@@V?$_List_val@U?$_List_simple_types@U?$pair@$$CBV?$basic_string@DU?$char_traits@D@std@@V?$allocator@D@2@@std@@V12@@std@@@std@@@2@$00@std@@QBEABV?$_List_val@U?$_List_simple_types@U?$pair@$$CBV?$basic_string@DU?$char_traits@D@std@@V?$allocator@D@2@@std@@V12@@std@@@std@@@2@XZ 10026ca0 f i Hooks.obj
 0001:00025ca0       ?_Get_second@?$_Compressed_pair@V?$allocator@V?$_List_unchecked_iterator@V?$_List_val@U?$_List_simple_types@U?$pair@$$CBV?$basic_string@DU?$char_traits@D@std@@V?$allocator@D@2@@std@@V?$set@V?$basic_string@DU?$char_traits@D@std@@V?$allocator@D@2@@std@@U?$less@V?$basic_string@DU?$char_traits@D@std@@V?$allocator@D@2@@std@@@2@V?$allocator@V?$basic_string@DU?$char_traits@D@std@@V?$allocator@D@2@@std@@@2@@2@@std@@@std@@@std@@@std@@@std@@V?$_Vector_val@U?$_Simple_types@V?$_List_unchecked_iterator@V?$_List_val@U?$_List_simple_types@U?$pair@$$CBV?$basic_string@DU?$char_traits@D@std@@V?$allocator@D@2@@std@@V?$set@V?$basic_string@DU?$char_traits@D@std@@V?$allocator@D@2@@std@@U?$less@V?$basic_string@DU?$char_traits@D@std@@V?$allocator@D@2@@std@@@2@V?$allocator@V?$basic_string@DU?$char_traits@D@std@@V?$allocator@D@2@@std@@@2@@2@@std@@@std@@@std@@@std@@@std@@@2@$00@std@@QBEABV?$_Vector_val@U?$_Simple_types@V?$_List_unchecked_iterator@V?$_List_val@U?$_List_simple_types@U?$pair@$$CBV?$basic_string@DU?$char_traits@D@std@@V?$allocator@D@2@@std@@V?$set@V?$basic_string@DU?$char_traits@D@std@@V?$allocator@D@2@@std@@U?$less@V?$basic_string@DU?$char_traits@D@std@@V?$allocator@D@2@@std@@@2@V?$allocator@V?$basic_string@DU?$char_traits@D@std@@V?$allocator@D@2@@std@@@2@@2@@std@@@std@@@std@@@std@@@std@@@2@XZ 10026ca0 f i Configuration.obj
 0001:00025ca0       ?data@?$array@D$0L@@std@@QAEPADXZ 10026ca0 f i ESP.obj
 0001:00025ca0       ??0?$allocator@VVector@@@std@@QAE@XZ 10026ca0 f i ESP.obj
 0001:00025ca0       ?data@?$array@D$0BC@@std@@QAEPADXZ 10026ca0 f i Hooks.obj
 0001:00025ca0       ??0?$allocator@U?$_Tree_node@V?$basic_string@DU?$char_traits@D@std@@V?$allocator@D@2@@std@@PAX@std@@@std@@QAE@XZ 10026ca0 f i Hooks.obj
 0001:00025ca0       ?_Get_second@?$_Compressed_pair@V?$allocator@U?$_Tree_node@U?$pair@$$CBW4ItemDefinitionIndexx@@UDefItem_t@@@std@@PAX@std@@@std@@V?$_Tree_val@U?$_Tree_simple_types@U?$pair@$$CBW4ItemDefinitionIndexx@@UDefItem_t@@@std@@@std@@@2@$00@std@@QAEAAV?$_Tree_val@U?$_Tree_simple_types@U?$pair@$$CBW4ItemDefinitionIndexx@@UDefItem_t@@@std@@@std@@@2@XZ 10026ca0 f i recvproxy.obj
 0001:00025ca0       ?data@?$array@D$0N@@std@@QAEPADXZ 10026ca0 f i Hooks.obj
 0001:00025ca0       ?_Get_first@?$_Compressed_pair@V?$allocator@V?$_List_unchecked_iterator@V?$_List_val@U?$_List_simple_types@U?$pair@$$CBV?$basic_string@DU?$char_traits@D@std@@V?$allocator@D@2@@std@@V?$set@V?$basic_string@DU?$char_traits@D@std@@V?$allocator@D@2@@std@@U?$less@V?$basic_string@DU?$char_traits@D@std@@V?$allocator@D@2@@std@@@2@V?$allocator@V?$basic_string@DU?$char_traits@D@std@@V?$allocator@D@2@@std@@@2@@2@@std@@@std@@@std@@@std@@@std@@V?$_Vector_val@U?$_Simple_types@V?$_List_unchecked_iterator@V?$_List_val@U?$_List_simple_types@U?$pair@$$CBV?$basic_string@DU?$char_traits@D@std@@V?$allocator@D@2@@std@@V?$set@V?$basic_string@DU?$char_traits@D@std@@V?$allocator@D@2@@std@@U?$less@V?$basic_string@DU?$char_traits@D@std@@V?$allocator@D@2@@std@@@2@V?$allocator@V?$basic_string@DU?$char_traits@D@std@@V?$allocator@D@2@@std@@@2@@2@@std@@@std@@@std@@@std@@@std@@@2@$00@std@@QAEAAV?$allocator@V?$_List_unchecked_iterator@V?$_List_val@U?$_List_simple_types@U?$pair@$$CBV?$basic_string@DU?$char_traits@D@std@@V?$allocator@D@2@@std@@V?$set@V?$basic_string@DU?$char_traits@D@std@@V?$allocator@D@2@@std@@U?$less@V?$basic_string@DU?$char_traits@D@std@@V?$allocator@D@2@@std@@@2@V?$allocator@V?$basic_string@DU?$char_traits@D@std@@V?$allocator@D@2@@std@@@2@@2@@std@@@std@@@std@@@std@@@2@XZ 10026ca0 f i Configuration.obj
 0001:00025ca0       ?_Get_first@?$_Compressed_pair@V?$allocator@VVector@@@std@@V?$_Vector_val@U?$_Simple_types@VVector@@@std@@@2@$00@std@@QBEABV?$allocator@VVector@@@2@XZ 10026ca0 f i GrenadePrediction.obj
 0001:00025ca0       ?_Get_first@?$_Compressed_pair@V?$allocator@U?$_List_node@U?$pair@$$CBV?$basic_string@DU?$char_traits@D@std@@V?$allocator@D@2@@std@@V?$set@V?$basic_string@DU?$char_traits@D@std@@V?$allocator@D@2@@std@@U?$less@V?$basic_string@DU?$char_traits@D@std@@V?$allocator@D@2@@std@@@2@V?$allocator@V?$basic_string@DU?$char_traits@D@std@@V?$allocator@D@2@@std@@@2@@2@@std@@PAX@std@@@std@@V?$_List_val@U?$_List_simple_types@U?$pair@$$CBV?$basic_string@DU?$char_traits@D@std@@V?$allocator@D@2@@std@@V?$set@V?$basic_string@DU?$char_traits@D@std@@V?$allocator@D@2@@std@@U?$less@V?$basic_string@DU?$char_traits@D@std@@V?$allocator@D@2@@std@@@2@V?$allocator@V?$basic_string@DU?$char_traits@D@std@@V?$allocator@D@2@@std@@@2@@2@@std@@@std@@@2@$00@std@@QAEAAV?$allocator@U?$_List_node@U?$pair@$$CBV?$basic_string@DU?$char_traits@D@std@@V?$allocator@D@2@@std@@V?$set@V?$basic_string@DU?$char_traits@D@std@@V?$allocator@D@2@@std@@U?$less@V?$basic_string@DU?$char_traits@D@std@@V?$allocator@D@2@@std@@@2@V?$allocator@V?$basic_string@DU?$char_traits@D@std@@V?$allocator@D@2@@std@@@2@@2@@std@@PAX@std@@@2@XZ 10026ca0 f i Configuration.obj
 0001:00025ca0       ?_Get_second@?$_Compressed_pair@V?$allocator@PAV?$ConfigValue@H@@@std@@V?$_Vector_val@U?$_Simple_types@PAV?$ConfigValue@H@@@std@@@2@$00@std@@QAEAAV?$_Vector_val@U?$_Simple_types@PAV?$ConfigValue@H@@@std@@@2@XZ 10026ca0 f i Configuration.obj
 0001:00025ca0       ?_Get_second@?$_Compressed_pair@U?$less@V?$basic_string@DU?$char_traits@D@std@@V?$allocator@D@2@@std@@@std@@V?$_Compressed_pair@V?$allocator@U?$_Tree_node@V?$basic_string@DU?$char_traits@D@std@@V?$allocator@D@2@@std@@PAX@std@@@std@@V?$_Tree_val@U?$_Tree_simple_types@V?$basic_string@DU?$char_traits@D@std@@V?$allocator@D@2@@std@@@std@@@2@$00@2@$00@std@@QAEAAV?$_Compressed_pair@V?$allocator@U?$_Tree_node@V?$basic_string@DU?$char_traits@D@std@@V?$allocator@D@2@@std@@PAX@std@@@std@@V?$_Tree_val@U?$_Tree_simple_types@V?$basic_string@DU?$char_traits@D@std@@V?$allocator@D@2@@std@@@std@@@2@$00@2@XZ 10026ca0 f i Configuration.obj
 0001:00025ca0       ?_Get_second@?$_Compressed_pair@V?$allocator@U?$_List_node@U?$pair@$$CBV?$basic_string@DU?$char_traits@D@std@@V?$allocator@D@2@@std@@UskinInfo@@@std@@PAX@std@@@std@@V?$_List_val@U?$_List_simple_types@U?$pair@$$CBV?$basic_string@DU?$char_traits@D@std@@V?$allocator@D@2@@std@@UskinInfo@@@std@@@std@@@2@$00@std@@QBEABV?$_List_val@U?$_List_simple_types@U?$pair@$$CBV?$basic_string@DU?$char_traits@D@std@@V?$allocator@D@2@@std@@UskinInfo@@@std@@@std@@@2@XZ 10026ca0 f i Hooks.obj
 0001:00025ca0       ?_Get_first@?$_Compressed_pair@V?$allocator@H@std@@V?$_Vector_val@U?$_Simple_types@H@std@@@2@$00@std@@QBEABV?$allocator@H@2@XZ 10026ca0 f i LegitBot.obj
 0001:00025ca0       ?_Get_first@?$_Compressed_pair@V?$allocator@U?$_List_node@U?$pair@$$CBV?$basic_string@DU?$char_traits@D@std@@V?$allocator@D@2@@std@@V12@@std@@PAX@std@@@std@@V?$_List_val@U?$_List_simple_types@U?$pair@$$CBV?$basic_string@DU?$char_traits@D@std@@V?$allocator@D@2@@std@@V12@@std@@@std@@@2@$00@std@@QBEABV?$allocator@U?$_List_node@U?$pair@$$CBV?$basic_string@DU?$char_traits@D@std@@V?$allocator@D@2@@std@@V12@@std@@PAX@std@@@2@XZ 10026ca0 f i Hooks.obj
 0001:00025ca0       ?_Get_second@?$_Compressed_pair@V?$allocator@V?$_List_unchecked_iterator@V?$_List_val@U?$_List_simple_types@U?$pair@$$CBV?$basic_string@DU?$char_traits@D@std@@V?$allocator@D@2@@std@@V12@@std@@@std@@@std@@@std@@@std@@V?$_Vector_val@U?$_Simple_types@V?$_List_unchecked_iterator@V?$_List_val@U?$_List_simple_types@U?$pair@$$CBV?$basic_string@DU?$char_traits@D@std@@V?$allocator@D@2@@std@@V12@@std@@@std@@@std@@@std@@@std@@@2@$00@std@@QAEAAV?$_Vector_val@U?$_Simple_types@V?$_List_unchecked_iterator@V?$_List_val@U?$_List_simple_types@U?$pair@$$CBV?$basic_string@DU?$char_traits@D@std@@V?$allocator@D@2@@std@@V12@@std@@@std@@@std@@@std@@@std@@@2@XZ 10026ca0 f i Configuration.obj
 0001:00025ca0       ?_Get_second@?$_Compressed_pair@V?$allocator@PAURecvTable@@@std@@V?$_Vector_val@U?$_Simple_types@PAURecvTable@@@std@@@2@$00@std@@QBEABV?$_Vector_val@U?$_Simple_types@PAURecvTable@@@std@@@2@XZ 10026ca0 f i NetVarManager.obj
 0001:00025ca0       ?_Get_second@?$_Compressed_pair@V?$allocator@E@std@@V?$_Vector_val@U?$_Simple_types@E@std@@@2@$00@std@@QAEAAV?$_Vector_val@U?$_Simple_types@E@std@@@2@XZ 10026ca0 f i Utilities.obj
 0001:00025ca0       ?_Get_second@?$_Compressed_pair@U?$equal_to@V?$basic_string@DU?$char_traits@D@std@@V?$allocator@D@2@@std@@@std@@M$00@std@@QBEABMXZ 10026ca0 f i Hooks.obj
 0001:00025ca0       ?_Get_first@?$_Compressed_pair@V?$allocator@PAV?$ConfigValue@_N@@@std@@V?$_Vector_val@U?$_Simple_types@PAV?$ConfigValue@_N@@@std@@@2@$00@std@@QBEABV?$allocator@PAV?$ConfigValue@_N@@@2@XZ 10026ca0 f i Configuration.obj
 0001:00025ca0       ??0?$allocator@_S@std@@QAE@XZ 10026ca0 f i Parser.obj
 0001:00025ca0       ??0?$tuple@$$V@std@@QAE@XZ 10026ca0 f i Hooks.obj
 0001:00025ca0       ?_Get_first@?$_Compressed_pair@V?$allocator@U?$_List_node@U?$pair@$$CBV?$basic_string@DU?$char_traits@D@std@@V?$allocator@D@2@@std@@UskinInfo@@@std@@PAX@std@@@std@@V?$_List_val@U?$_List_simple_types@U?$pair@$$CBV?$basic_string@DU?$char_traits@D@std@@V?$allocator@D@2@@std@@UskinInfo@@@std@@@std@@@2@$00@std@@QAEAAV?$allocator@U?$_List_node@U?$pair@$$CBV?$basic_string@DU?$char_traits@D@std@@V?$allocator@D@2@@std@@UskinInfo@@@std@@PAX@std@@@2@XZ 10026ca0 f i Configuration.obj
 0001:00025ca0       ?_Get_first@?$_Compressed_pair@V?$allocator@PAV?$ConfigValue@M@@@std@@V?$_Vector_val@U?$_Simple_types@PAV?$ConfigValue@M@@@std@@@2@$00@std@@QAEAAV?$allocator@PAV?$ConfigValue@M@@@2@XZ 10026ca0 f i Configuration.obj
 0001:00025ca0       ?_Get_first@?$_Compressed_pair@V?$allocator@V?$shared_ptr@VNode@valve_parser@@@std@@@std@@V?$_Deque_val@U?$_Deque_simple_types@V?$shared_ptr@VNode@valve_parser@@@std@@@std@@@2@$00@std@@QBEABV?$allocator@V?$shared_ptr@VNode@valve_parser@@@std@@@2@XZ 10026ca0 f i Hooks.obj
 0001:00025ca0       ?_Get_second@?$_Compressed_pair@V?$allocator@PAURecvTable@@@std@@V?$_Vector_val@U?$_Simple_types@PAURecvTable@@@std@@@2@$00@std@@QAEAAV?$_Vector_val@U?$_Simple_types@PAURecvTable@@@std@@@2@XZ 10026ca0 f i NetVarManager.obj
 0001:00025ca0       ?data@?$array@D$0BD@@std@@QAEPADXZ 10026ca0 f i Hooks.obj
 0001:00025ca0       ?_Get_second@?$_Compressed_pair@U?$equal_to@V?$basic_string@DU?$char_traits@D@std@@V?$allocator@D@2@@std@@@std@@M$00@std@@QAEAAMXZ 10026ca0 f i Configuration.obj
 0001:00025ca0       ?_Get_first@?$_Compressed_pair@V?$allocator@U?$_Tree_node@U?$pair@$$CBW4ItemDefinitionIndexx@@UDefItem_t@@@std@@PAX@std@@@std@@V?$_Tree_val@U?$_Tree_simple_types@U?$pair@$$CBW4ItemDefinitionIndexx@@UDefItem_t@@@std@@@std@@@2@$00@std@@QAEAAV?$allocator@U?$_Tree_node@U?$pair@$$CBW4ItemDefinitionIndexx@@UDefItem_t@@@std@@PAX@std@@@2@XZ 10026ca0 f i recvproxy.obj
 0001:00025ca0       ?_Get_first@?$_Compressed_pair@V?$allocator@D@std@@V?$_String_val@U?$_Simple_types@D@std@@@2@$00@std@@QBEABV?$allocator@D@2@XZ 10026ca0 f i Parser.obj
 0001:00025ca0       ?_Get_second@?$_Compressed_pair@V?$allocator@V?$_List_unchecked_iterator@V?$_List_val@U?$_List_simple_types@U?$pair@QADPAD@std@@@std@@@std@@@std@@@std@@V?$_Vector_val@U?$_Simple_types@V?$_List_unchecked_iterator@V?$_List_val@U?$_List_simple_types@U?$pair@QADPAD@std@@@std@@@std@@@std@@@std@@@2@$00@std@@QBEABV?$_Vector_val@U?$_Simple_types@V?$_List_unchecked_iterator@V?$_List_val@U?$_List_simple_types@U?$pair@QADPAD@std@@@std@@@std@@@std@@@std@@@2@XZ 10026ca0 f i Hooks.obj
 0001:00025ca0       ?data@?$array@D$0BE@@std@@QAEPADXZ 10026ca0 f i Hooks.obj
 0001:00025ca0       ?_Get_first@?$_Compressed_pair@V?$allocator@U?$_Tree_node@U?$pair@$$CBW4ItemDefinitionIndexx@@UDefItem_t@@@std@@PAX@std@@@std@@V?$_Tree_val@U?$_Tree_simple_types@U?$pair@$$CBW4ItemDefinitionIndexx@@UDefItem_t@@@std@@@std@@@2@$00@std@@QBEABV?$allocator@U?$_Tree_node@U?$pair@$$CBW4ItemDefinitionIndexx@@UDefItem_t@@@std@@PAX@std@@@2@XZ 10026ca0 f i recvproxy.obj
 0001:00025ca0       ?data@?$array@D$05@std@@QAEPADXZ 10026ca0 f i Configuration.obj
 0001:00025ca0       ?data@?$array@D$02@std@@QAEPADXZ 10026ca0 f i Misc.obj
 0001:00025ca0       ?_Get_second@?$_Compressed_pair@V?$allocator@D@std@@V?$_String_val@U?$_Simple_types@D@std@@@2@$00@std@@QAEAAV?$_String_val@U?$_Simple_types@D@std@@@2@XZ 10026ca0 f i Parser.obj
 0001:00025ca0       ??0?$allocator@U?$pair@QADPAD@std@@@std@@QAE@XZ 10026ca0 f i Hooks.obj
 0001:00025ca0       ?_Get_first@?$_Compressed_pair@V?$allocator@U?$_List_node@U?$pair@QADPAD@std@@PAX@std@@@std@@V?$_List_val@U?$_List_simple_types@U?$pair@QADPAD@std@@@std@@@2@$00@std@@QAEAAV?$allocator@U?$_List_node@U?$pair@QADPAD@std@@PAX@std@@@2@XZ 10026ca0 f i Hooks.obj
 0001:00025cb0       ?_Init@?$_Hash@V?$_Umap_traits@V?$basic_string@DU?$char_traits@D@std@@V?$allocator@D@2@@std@@V12@V?$_Uhash_compare@V?$basic_string@DU?$char_traits@D@std@@V?$allocator@D@2@@std@@U?$hash@V?$basic_string@DU?$char_traits@D@std@@V?$allocator@D@2@@std@@@2@U?$equal_to@V?$basic_string@DU?$char_traits@D@std@@V?$allocator@D@2@@std@@@2@@2@V?$allocator@U?$pair@$$CBV?$basic_string@DU?$char_traits@D@std@@V?$allocator@D@2@@std@@V12@@std@@@2@$0A@@std@@@std@@IAEXI@Z 10026cb0 f i Configuration.obj
 0001:00025cb0       ?_Init@?$_Hash@V?$_Umap_traits@V?$basic_string@DU?$char_traits@D@std@@V?$allocator@D@2@@std@@V?$set@V?$basic_string@DU?$char_traits@D@std@@V?$allocator@D@2@@std@@U?$less@V?$basic_string@DU?$char_traits@D@std@@V?$allocator@D@2@@std@@@2@V?$allocator@V?$basic_string@DU?$char_traits@D@std@@V?$allocator@D@2@@std@@@2@@2@V?$_Uhash_compare@V?$basic_string@DU?$char_traits@D@std@@V?$allocator@D@2@@std@@U?$hash@V?$basic_string@DU?$char_traits@D@std@@V?$allocator@D@2@@std@@@2@U?$equal_to@V?$basic_string@DU?$char_traits@D@std@@V?$allocator@D@2@@std@@@2@@2@V?$allocator@U?$pair@$$CBV?$basic_string@DU?$char_traits@D@std@@V?$allocator@D@2@@std@@V?$set@V?$basic_string@DU?$char_traits@D@std@@V?$allocator@D@2@@std@@U?$less@V?$basic_string@DU?$char_traits@D@std@@V?$allocator@D@2@@std@@@2@V?$allocator@V?$basic_string@DU?$char_traits@D@std@@V?$allocator@D@2@@std@@@2@@2@@std@@@2@$0A@@std@@@std@@IAEXI@Z 10026cb0 f i Configuration.obj
 0001:00025cb0       ?_Init@?$_Hash@V?$_Umap_traits@PADPADV?$_Uhash_compare@PADU?$hash@PAD@std@@U?$equal_to@PAD@2@@std@@V?$allocator@U?$pair@QADPAD@std@@@2@$0A@@std@@@std@@IAEXI@Z 10026cb0 f i Hooks.obj
 0001:00025cb0       ?_Init@?$_Hash@V?$_Umap_traits@V?$basic_string@DU?$char_traits@D@std@@V?$allocator@D@2@@std@@UskinInfo@@V?$_Uhash_compare@V?$basic_string@DU?$char_traits@D@std@@V?$allocator@D@2@@std@@U?$hash@V?$basic_string@DU?$char_traits@D@std@@V?$allocator@D@2@@std@@@2@U?$equal_to@V?$basic_string@DU?$char_traits@D@std@@V?$allocator@D@2@@std@@@2@@2@V?$allocator@U?$pair@$$CBV?$basic_string@DU?$char_traits@D@std@@V?$allocator@D@2@@std@@UskinInfo@@@std@@@2@$0A@@std@@@std@@IAEXI@Z 10026cb0 f i Configuration.obj
 0001:00025d10       ?_Max@?$_Tree_comp_alloc@V?$_Tset_traits@V?$basic_string@DU?$char_traits@D@std@@V?$allocator@D@2@@std@@U?$less@V?$basic_string@DU?$char_traits@D@std@@V?$allocator@D@2@@std@@@2@V?$allocator@V?$basic_string@DU?$char_traits@D@std@@V?$allocator@D@2@@std@@@2@$0A@@std@@@std@@SAPAU?$_Tree_node@V?$basic_string@DU?$char_traits@D@std@@V?$allocator@D@2@@std@@PAX@2@PAU32@@Z 10026d10 f i Configuration.obj
 0001:00025d10       ?_Max@?$_Tree_comp_alloc@V?$_Tmap_traits@W4ItemDefinitionIndexx@@UDefItem_t@@U?$less@W4ItemDefinitionIndexx@@@std@@V?$allocator@U?$pair@$$CBW4ItemDefinitionIndexx@@UDefItem_t@@@std@@@4@$0A@@std@@@std@@SAPAU?$_Tree_node@U?$pair@$$CBW4ItemDefinitionIndexx@@UDefItem_t@@@std@@PAX@2@PAU32@@Z 10026d10 f i recvproxy.obj
 0001:00025d30       ?_Max@?$_Tree_val@U?$_Tree_simple_types@V?$basic_string@DU?$char_traits@D@std@@V?$allocator@D@2@@std@@@std@@@std@@SAPAU?$_Tree_node@V?$basic_string@DU?$char_traits@D@std@@V?$allocator@D@2@@std@@PAX@2@PAU32@@Z 10026d30 f i Configuration.obj
 0001:00025d30       ?_Max@?$_Tree_val@U?$_Tree_simple_types@U?$pair@$$CBW4ItemDefinitionIndexx@@UDefItem_t@@@std@@@std@@@std@@SAPAU?$_Tree_node@U?$pair@$$CBW4ItemDefinitionIndexx@@UDefItem_t@@@std@@PAX@2@PAU32@@Z 10026d30 f i recvproxy.obj
 0001:00025d60       ?_Move_alloc@?$_String_alloc@U?$_String_base_types@DV?$allocator@D@std@@@std@@@std@@QAEXAAV?$allocator@D@2@@Z 10026d60 f i Configuration.obj
 0001:00025d90       ?_Myend@?$_Vector_alloc@U?$_Vec_base_types@V?$basic_string@DU?$char_traits@D@std@@V?$allocator@D@2@@std@@V?$allocator@V?$basic_string@DU?$char_traits@D@std@@V?$allocator@D@2@@std@@@2@@std@@@std@@QBEABQAV?$basic_string@DU?$char_traits@D@std@@V?$allocator@D@2@@2@XZ 10026d90 f i Configuration.obj
 0001:00025d90       ?_Myend@?$_Vector_alloc@U?$_Vec_base_types@PAV?$ConfigValue@M@@V?$allocator@PAV?$ConfigValue@M@@@std@@@std@@@std@@QBEABQAPAV?$ConfigValue@M@@XZ 10026d90 f i Configuration.obj
 0001:00025d90       ?_Myend@?$_Vector_alloc@U?$_Vec_base_types@PAV?$ConfigValue@H@@V?$allocator@PAV?$ConfigValue@H@@@std@@@std@@@std@@QBEABQAPAV?$ConfigValue@H@@XZ 10026d90 f i Configuration.obj
 0001:00025d90       ?_Mapsize@?$_Deque_alloc@U?$_Deque_base_types@V?$shared_ptr@VNode@valve_parser@@@std@@V?$allocator@V?$shared_ptr@VNode@valve_parser@@@std@@@2@@std@@@std@@QAEAAIXZ 10026d90 f i Hooks.obj
 0001:00025d90       ?_Myend@?$_Vector_alloc@U?$_Vec_base_types@PAV?$ConfigValue@M@@V?$allocator@PAV?$ConfigValue@M@@@std@@@std@@@std@@QAEAAPAPAV?$ConfigValue@M@@XZ 10026d90 f i Configuration.obj
 0001:00025d90       ?_Myend@?$_Vector_alloc@U?$_Vec_base_types@PAV?$ConfigValue@_N@@V?$allocator@PAV?$ConfigValue@_N@@@std@@@std@@@std@@QAEAAPAPAV?$ConfigValue@_N@@XZ 10026d90 f i Configuration.obj
 0001:00025d90       ?_Myend@?$_Vector_alloc@U?$_Vec_base_types@PAV?$ConfigValue@H@@V?$allocator@PAV?$ConfigValue@H@@@std@@@std@@@std@@QAEAAPAPAV?$ConfigValue@H@@XZ 10026d90 f i Configuration.obj
 0001:00025d90       ?_Myend@?$_Vector_alloc@U?$_Vec_base_types@HV?$allocator@H@std@@@std@@@std@@QAEAAPAHXZ 10026d90 f i LegitBot.obj
 0001:00025d90       ?_Myend@?$_Vector_alloc@U?$_Vec_base_types@V?$_List_unchecked_iterator@V?$_List_val@U?$_List_simple_types@U?$pair@$$CBV?$basic_string@DU?$char_traits@D@std@@V?$allocator@D@2@@std@@V?$set@V?$basic_string@DU?$char_traits@D@std@@V?$allocator@D@2@@std@@U?$less@V?$basic_string@DU?$char_traits@D@std@@V?$allocator@D@2@@std@@@2@V?$allocator@V?$basic_string@DU?$char_traits@D@std@@V?$allocator@D@2@@std@@@2@@2@@std@@@std@@@std@@@std@@V?$allocator@V?$_List_unchecked_iterator@V?$_List_val@U?$_List_simple_types@U?$pair@$$CBV?$basic_string@DU?$char_traits@D@std@@V?$allocator@D@2@@std@@V?$set@V?$basic_string@DU?$char_traits@D@std@@V?$allocator@D@2@@std@@U?$less@V?$basic_string@DU?$char_traits@D@std@@V?$allocator@D@2@@std@@@2@V?$allocator@V?$basic_string@DU?$char_traits@D@std@@V?$allocator@D@2@@std@@@2@@2@@std@@@std@@@std@@@std@@@2@@std@@@std@@QBEABQAV?$_List_unchecked_iterator@V?$_List_val@U?$_List_simple_types@U?$pair@$$CBV?$basic_string@DU?$char_traits@D@std@@V?$allocator@D@2@@std@@V?$set@V?$basic_string@DU?$char_traits@D@std@@V?$allocator@D@2@@std@@U?$less@V?$basic_string@DU?$char_traits@D@std@@V?$allocator@D@2@@std@@@2@V?$allocator@V?$basic_string@DU?$char_traits@D@std@@V?$allocator@D@2@@std@@@2@@2@@std@@@std@@@std@@@2@XZ 10026d90 f i Configuration.obj
 0001:00025d90       ?_Myend@?$_Vector_alloc@U?$_Vec_base_types@V?$basic_string@DU?$char_traits@D@std@@V?$allocator@D@2@@std@@V?$allocator@V?$basic_string@DU?$char_traits@D@std@@V?$allocator@D@2@@std@@@2@@std@@@std@@QAEAAPAV?$basic_string@DU?$char_traits@D@std@@V?$allocator@D@2@@2@XZ 10026d90 f i Configuration.obj
 0001:00025d90       ?_Myend@?$_Vector_alloc@U?$_Vec_base_types@V?$shared_ptr@VNode@valve_parser@@@std@@V?$allocator@V?$shared_ptr@VNode@valve_parser@@@std@@@2@@std@@@std@@QBEABQAV?$shared_ptr@VNode@valve_parser@@@2@XZ 10026d90 f i Parser.obj
 0001:00025d90       ?_Myend@?$_Vector_alloc@U?$_Vec_base_types@V?$_List_unchecked_iterator@V?$_List_val@U?$_List_simple_types@U?$pair@$$CBV?$basic_string@DU?$char_traits@D@std@@V?$allocator@D@2@@std@@V?$set@V?$basic_string@DU?$char_traits@D@std@@V?$allocator@D@2@@std@@U?$less@V?$basic_string@DU?$char_traits@D@std@@V?$allocator@D@2@@std@@@2@V?$allocator@V?$basic_string@DU?$char_traits@D@std@@V?$allocator@D@2@@std@@@2@@2@@std@@@std@@@std@@@std@@V?$allocator@V?$_List_unchecked_iterator@V?$_List_val@U?$_List_simple_types@U?$pair@$$CBV?$basic_string@DU?$char_traits@D@std@@V?$allocator@D@2@@std@@V?$set@V?$basic_string@DU?$char_traits@D@std@@V?$allocator@D@2@@std@@U?$less@V?$basic_string@DU?$char_traits@D@std@@V?$allocator@D@2@@std@@@2@V?$allocator@V?$basic_string@DU?$char_traits@D@std@@V?$allocator@D@2@@std@@@2@@2@@std@@@std@@@std@@@std@@@2@@std@@@std@@QAEAAPAV?$_List_unchecked_iterator@V?$_List_val@U?$_List_simple_types@U?$pair@$$CBV?$basic_string@DU?$char_traits@D@std@@V?$allocator@D@2@@std@@V?$set@V?$basic_string@DU?$char_traits@D@std@@V?$allocator@D@2@@std@@U?$less@V?$basic_string@DU?$char_traits@D@std@@V?$allocator@D@2@@std@@@2@V?$allocator@V?$basic_string@DU?$char_traits@D@std@@V?$allocator@D@2@@std@@@2@@2@@std@@@std@@@std@@@2@XZ 10026d90 f i Configuration.obj
 0001:00025d90       ?_Myend@?$_Vector_alloc@U?$_Vec_base_types@VVector@@V?$allocator@VVector@@@std@@@std@@@std@@QAEAAPAVVector@@XZ 10026d90 f i ESP.obj
 0001:00025d90       ?_Myend@?$_Vector_alloc@U?$_Vec_base_types@_SV?$allocator@_S@std@@@std@@@std@@QAEAAPA_SXZ 10026d90 f i Parser.obj
 0001:00025d90       ?_Myend@?$_Vector_alloc@U?$_Vec_base_types@HV?$allocator@H@std@@@std@@@std@@QBEABQAHXZ 10026d90 f i LegitBot.obj
 0001:00025d90       ?_Myend@?$_Vector_alloc@U?$_Vec_base_types@PAURecvTable@@V?$allocator@PAURecvTable@@@std@@@std@@@std@@QBEABQAPAURecvTable@@XZ 10026d90 f i NetVarManager.obj
 0001:00025d90       ?_Myend@?$_Vector_alloc@U?$_Vec_base_types@PAURecvTable@@V?$allocator@PAURecvTable@@@std@@@std@@@std@@QAEAAPAPAURecvTable@@XZ 10026d90 f i NetVarManager.obj
 0001:00025d90       ?_Myend@?$_Vector_alloc@U?$_Vec_base_types@V?$_List_unchecked_iterator@V?$_List_val@U?$_List_simple_types@U?$pair@$$CBV?$basic_string@DU?$char_traits@D@std@@V?$allocator@D@2@@std@@V12@@std@@@std@@@std@@@std@@V?$allocator@V?$_List_unchecked_iterator@V?$_List_val@U?$_List_simple_types@U?$pair@$$CBV?$basic_string@DU?$char_traits@D@std@@V?$allocator@D@2@@std@@V12@@std@@@std@@@std@@@std@@@2@@std@@@std@@QBEABQAV?$_List_unchecked_iterator@V?$_List_val@U?$_List_simple_types@U?$pair@$$CBV?$basic_string@DU?$char_traits@D@std@@V?$allocator@D@2@@std@@V12@@std@@@std@@@std@@@2@XZ 10026d90 f i Configuration.obj
 0001:00025d90       ?_Myend@?$_Vector_alloc@U?$_Vec_base_types@VVector@@V?$allocator@VVector@@@std@@@std@@@std@@QBEABQAVVector@@XZ 10026d90 f i ESP.obj
 0001:00025d90       ?_Myend@?$_Vector_alloc@U?$_Vec_base_types@PAV?$ConfigValue@_N@@V?$allocator@PAV?$ConfigValue@_N@@@std@@@std@@@std@@QBEABQAPAV?$ConfigValue@_N@@XZ 10026d90 f i Configuration.obj
 0001:00025d90       ?_Myend@?$_Vector_alloc@U?$_Vec_base_types@V?$_List_unchecked_iterator@V?$_List_val@U?$_List_simple_types@U?$pair@$$CBV?$basic_string@DU?$char_traits@D@std@@V?$allocator@D@2@@std@@UskinInfo@@@std@@@std@@@std@@@std@@V?$allocator@V?$_List_unchecked_iterator@V?$_List_val@U?$_List_simple_types@U?$pair@$$CBV?$basic_string@DU?$char_traits@D@std@@V?$allocator@D@2@@std@@UskinInfo@@@std@@@std@@@std@@@std@@@2@@std@@@std@@QAEAAPAV?$_List_unchecked_iterator@V?$_List_val@U?$_List_simple_types@U?$pair@$$CBV?$basic_string@DU?$char_traits@D@std@@V?$allocator@D@2@@std@@UskinInfo@@@std@@@std@@@std@@@2@XZ 10026d90 f i Configuration.obj
 0001:00025d90       ?_Myend@?$_Vector_alloc@U?$_Vec_base_types@V?$_List_unchecked_iterator@V?$_List_val@U?$_List_simple_types@U?$pair@QADPAD@std@@@std@@@std@@@std@@V?$allocator@V?$_List_unchecked_iterator@V?$_List_val@U?$_List_simple_types@U?$pair@QADPAD@std@@@std@@@std@@@std@@@2@@std@@@std@@QAEAAPAV?$_List_unchecked_iterator@V?$_List_val@U?$_List_simple_types@U?$pair@QADPAD@std@@@std@@@std@@@2@XZ 10026d90 f i Hooks.obj
 0001:00025d90       ?_Myend@?$_Vector_alloc@U?$_Vec_base_types@V?$_List_unchecked_iterator@V?$_List_val@U?$_List_simple_types@U?$pair@$$CBV?$basic_string@DU?$char_traits@D@std@@V?$allocator@D@2@@std@@V12@@std@@@std@@@std@@@std@@V?$allocator@V?$_List_unchecked_iterator@V?$_List_val@U?$_List_simple_types@U?$pair@$$CBV?$basic_string@DU?$char_traits@D@std@@V?$allocator@D@2@@std@@V12@@std@@@std@@@std@@@std@@@2@@std@@@std@@QAEAAPAV?$_List_unchecked_iterator@V?$_List_val@U?$_List_simple_types@U?$pair@$$CBV?$basic_string@DU?$char_traits@D@std@@V?$allocator@D@2@@std@@V12@@std@@@std@@@std@@@2@XZ 10026d90 f i Configuration.obj
 0001:00025d90       ?_Myend@?$_Vector_alloc@U?$_Vec_base_types@_SV?$allocator@_S@std@@@std@@@std@@QBEABQA_SXZ 10026d90 f i Parser.obj
 0001:00025d90       ?_Myend@?$_Vector_alloc@U?$_Vec_base_types@V?$shared_ptr@VNode@valve_parser@@@std@@V?$allocator@V?$shared_ptr@VNode@valve_parser@@@std@@@2@@std@@@std@@QAEAAPAV?$shared_ptr@VNode@valve_parser@@@2@XZ 10026d90 f i Parser.obj
 0001:00025d90       ?_Myend@?$_Vector_alloc@U?$_Vec_base_types@V?$_List_unchecked_iterator@V?$_List_val@U?$_List_simple_types@U?$pair@QADPAD@std@@@std@@@std@@@std@@V?$allocator@V?$_List_unchecked_iterator@V?$_List_val@U?$_List_simple_types@U?$pair@QADPAD@std@@@std@@@std@@@std@@@2@@std@@@std@@QBEABQAV?$_List_unchecked_iterator@V?$_List_val@U?$_List_simple_types@U?$pair@QADPAD@std@@@std@@@std@@@2@XZ 10026d90 f i Hooks.obj
 0001:00025d90       ?_Myend@?$_Vector_alloc@U?$_Vec_base_types@V?$_List_unchecked_iterator@V?$_List_val@U?$_List_simple_types@U?$pair@$$CBV?$basic_string@DU?$char_traits@D@std@@V?$allocator@D@2@@std@@UskinInfo@@@std@@@std@@@std@@@std@@V?$allocator@V?$_List_unchecked_iterator@V?$_List_val@U?$_List_simple_types@U?$pair@$$CBV?$basic_string@DU?$char_traits@D@std@@V?$allocator@D@2@@std@@UskinInfo@@@std@@@std@@@std@@@std@@@2@@std@@@std@@QBEABQAV?$_List_unchecked_iterator@V?$_List_val@U?$_List_simple_types@U?$pair@$$CBV?$basic_string@DU?$char_traits@D@std@@V?$allocator@D@2@@std@@UskinInfo@@@std@@@std@@@std@@@2@XZ 10026d90 f i Configuration.obj
 0001:00025db0       ?_Myhead@?$_Tree_comp_alloc@V?$_Tmap_traits@W4ItemDefinitionIndexx@@UDefItem_t@@U?$less@W4ItemDefinitionIndexx@@@std@@V?$allocator@U?$pair@$$CBW4ItemDefinitionIndexx@@UDefItem_t@@@std@@@4@$0A@@std@@@std@@QBEABQAU?$_Tree_node@U?$pair@$$CBW4ItemDefinitionIndexx@@UDefItem_t@@@std@@PAX@2@XZ 10026db0 f i recvproxy.obj
 0001:00025db0       ?_Max_bucket_size@?$_Hash@V?$_Umap_traits@V?$basic_string@DU?$char_traits@D@std@@V?$allocator@D@2@@std@@V?$set@V?$basic_string@DU?$char_traits@D@std@@V?$allocator@D@2@@std@@U?$less@V?$basic_string@DU?$char_traits@D@std@@V?$allocator@D@2@@std@@@2@V?$allocator@V?$basic_string@DU?$char_traits@D@std@@V?$allocator@D@2@@std@@@2@@2@V?$_Uhash_compare@V?$basic_string@DU?$char_traits@D@std@@V?$allocator@D@2@@std@@U?$hash@V?$basic_string@DU?$char_traits@D@std@@V?$allocator@D@2@@std@@@2@U?$equal_to@V?$basic_string@DU?$char_traits@D@std@@V?$allocator@D@2@@std@@@2@@2@V?$allocator@U?$pair@$$CBV?$basic_string@DU?$char_traits@D@std@@V?$allocator@D@2@@std@@V?$set@V?$basic_string@DU?$char_traits@D@std@@V?$allocator@D@2@@std@@U?$less@V?$basic_string@DU?$char_traits@D@std@@V?$allocator@D@2@@std@@@2@V?$allocator@V?$basic_string@DU?$char_traits@D@std@@V?$allocator@D@2@@std@@@2@@2@@std@@@2@$0A@@std@@@std@@IAEAAMXZ 10026db0 f i Configuration.obj
 0001:00025db0       ?_Max_bucket_size@?$_Hash@V?$_Umap_traits@V?$basic_string@DU?$char_traits@D@std@@V?$allocator@D@2@@std@@UskinInfo@@V?$_Uhash_compare@V?$basic_string@DU?$char_traits@D@std@@V?$allocator@D@2@@std@@U?$hash@V?$basic_string@DU?$char_traits@D@std@@V?$allocator@D@2@@std@@@2@U?$equal_to@V?$basic_string@DU?$char_traits@D@std@@V?$allocator@D@2@@std@@@2@@2@V?$allocator@U?$pair@$$CBV?$basic_string@DU?$char_traits@D@std@@V?$allocator@D@2@@std@@UskinInfo@@@std@@@2@$0A@@std@@@std@@IBEABMXZ 10026db0 f i Hooks.obj
 0001:00025db0       ?_Myhead@?$_Tree_comp_alloc@V?$_Tset_traits@V?$basic_string@DU?$char_traits@D@std@@V?$allocator@D@2@@std@@U?$less@V?$basic_string@DU?$char_traits@D@std@@V?$allocator@D@2@@std@@@2@V?$allocator@V?$basic_string@DU?$char_traits@D@std@@V?$allocator@D@2@@std@@@2@$0A@@std@@@std@@QBEABQAU?$_Tree_node@V?$basic_string@DU?$char_traits@D@std@@V?$allocator@D@2@@std@@PAX@2@XZ 10026db0 f i Configuration.obj
 0001:00025db0       ?_Max_bucket_size@?$_Hash@V?$_Umap_traits@V?$basic_string@DU?$char_traits@D@std@@V?$allocator@D@2@@std@@V?$set@V?$basic_string@DU?$char_traits@D@std@@V?$allocator@D@2@@std@@U?$less@V?$basic_string@DU?$char_traits@D@std@@V?$allocator@D@2@@std@@@2@V?$allocator@V?$basic_string@DU?$char_traits@D@std@@V?$allocator@D@2@@std@@@2@@2@V?$_Uhash_compare@V?$basic_string@DU?$char_traits@D@std@@V?$allocator@D@2@@std@@U?$hash@V?$basic_string@DU?$char_traits@D@std@@V?$allocator@D@2@@std@@@2@U?$equal_to@V?$basic_string@DU?$char_traits@D@std@@V?$allocator@D@2@@std@@@2@@2@V?$allocator@U?$pair@$$CBV?$basic_string@DU?$char_traits@D@std@@V?$allocator@D@2@@std@@V?$set@V?$basic_string@DU?$char_traits@D@std@@V?$allocator@D@2@@std@@U?$less@V?$basic_string@DU?$char_traits@D@std@@V?$allocator@D@2@@std@@@2@V?$allocator@V?$basic_string@DU?$char_traits@D@std@@V?$allocator@D@2@@std@@@2@@2@@std@@@2@$0A@@std@@@std@@IBEABMXZ 10026db0 f i Hooks.obj
 0001:00025db0       ?_Myhead@?$_Tree_comp_alloc@V?$_Tmap_traits@W4ItemDefinitionIndexx@@UDefItem_t@@U?$less@W4ItemDefinitionIndexx@@@std@@V?$allocator@U?$pair@$$CBW4ItemDefinitionIndexx@@UDefItem_t@@@std@@@4@$0A@@std@@@std@@QAEAAPAU?$_Tree_node@U?$pair@$$CBW4ItemDefinitionIndexx@@UDefItem_t@@@std@@PAX@2@XZ 10026db0 f i recvproxy.obj
 0001:00025db0       ?_Max_bucket_size@?$_Hash@V?$_Umap_traits@V?$basic_string@DU?$char_traits@D@std@@V?$allocator@D@2@@std@@UskinInfo@@V?$_Uhash_compare@V?$basic_string@DU?$char_traits@D@std@@V?$allocator@D@2@@std@@U?$hash@V?$basic_string@DU?$char_traits@D@std@@V?$allocator@D@2@@std@@@2@U?$equal_to@V?$basic_string@DU?$char_traits@D@std@@V?$allocator@D@2@@std@@@2@@2@V?$allocator@U?$pair@$$CBV?$basic_string@DU?$char_traits@D@std@@V?$allocator@D@2@@std@@UskinInfo@@@std@@@2@$0A@@std@@@std@@IAEAAMXZ 10026db0 f i Configuration.obj
 0001:00025db0       ?_Max_bucket_size@?$_Hash@V?$_Umap_traits@V?$basic_string@DU?$char_traits@D@std@@V?$allocator@D@2@@std@@V12@V?$_Uhash_compare@V?$basic_string@DU?$char_traits@D@std@@V?$allocator@D@2@@std@@U?$hash@V?$basic_string@DU?$char_traits@D@std@@V?$allocator@D@2@@std@@@2@U?$equal_to@V?$basic_string@DU?$char_traits@D@std@@V?$allocator@D@2@@std@@@2@@2@V?$allocator@U?$pair@$$CBV?$basic_string@DU?$char_traits@D@std@@V?$allocator@D@2@@std@@V12@@std@@@2@$0A@@std@@@std@@IBEABMXZ 10026db0 f i Hooks.obj
 0001:00025db0       ?_Max_bucket_size@?$_Hash@V?$_Umap_traits@V?$basic_string@DU?$char_traits@D@std@@V?$allocator@D@2@@std@@V12@V?$_Uhash_compare@V?$basic_string@DU?$char_traits@D@std@@V?$allocator@D@2@@std@@U?$hash@V?$basic_string@DU?$char_traits@D@std@@V?$allocator@D@2@@std@@@2@U?$equal_to@V?$basic_string@DU?$char_traits@D@std@@V?$allocator@D@2@@std@@@2@@2@V?$allocator@U?$pair@$$CBV?$basic_string@DU?$char_traits@D@std@@V?$allocator@D@2@@std@@V12@@std@@@2@$0A@@std@@@std@@IAEAAMXZ 10026db0 f i Configuration.obj
 0001:00025db0       ?_Myhead@?$_Tree_comp_alloc@V?$_Tset_traits@V?$basic_string@DU?$char_traits@D@std@@V?$allocator@D@2@@std@@U?$less@V?$basic_string@DU?$char_traits@D@std@@V?$allocator@D@2@@std@@@2@V?$allocator@V?$basic_string@DU?$char_traits@D@std@@V?$allocator@D@2@@std@@@2@$0A@@std@@@std@@QAEAAPAU?$_Tree_node@V?$basic_string@DU?$char_traits@D@std@@V?$allocator@D@2@@std@@PAX@2@XZ 10026db0 f i Configuration.obj
 0001:00025db0       ?_Max_bucket_size@?$_Hash@V?$_Umap_traits@PADPADV?$_Uhash_compare@PADU?$hash@PAD@std@@U?$equal_to@PAD@2@@std@@V?$allocator@U?$pair@QADPAD@std@@@2@$0A@@std@@@std@@IAEAAMXZ 10026db0 f i Hooks.obj
 0001:00025dd0       ?_Orphan_all@?$_Vector_alloc@U?$_Vec_base_types@_SV?$allocator@_S@std@@@std@@@std@@QAEXXZ 10026dd0 f i Parser.obj
 0001:00025dd0       ?_Orphan_all@?$_Vector_alloc@U?$_Vec_base_types@PAV?$ConfigValue@H@@V?$allocator@PAV?$ConfigValue@H@@@std@@@std@@@std@@QAEXXZ 10026dd0 f i Configuration.obj
 0001:00025dd0       ?_Orphan_all@?$_Vector_alloc@U?$_Vec_base_types@VVector@@V?$allocator@VVector@@@std@@@std@@@std@@QAEXXZ 10026dd0 f i ESP.obj
 0001:00025dd0       ?_Orphan_all@?$_Vector_alloc@U?$_Vec_base_types@V?$_List_unchecked_iterator@V?$_List_val@U?$_List_simple_types@U?$pair@$$CBV?$basic_string@DU?$char_traits@D@std@@V?$allocator@D@2@@std@@UskinInfo@@@std@@@std@@@std@@@std@@V?$allocator@V?$_List_unchecked_iterator@V?$_List_val@U?$_List_simple_types@U?$pair@$$CBV?$basic_string@DU?$char_traits@D@std@@V?$allocator@D@2@@std@@UskinInfo@@@std@@@std@@@std@@@std@@@2@@std@@@std@@QAEXXZ 10026dd0 f i Configuration.obj
 0001:00025dd0       ?_Orphan_all@?$_String_alloc@U?$_String_base_types@DV?$allocator@D@std@@@std@@@std@@QAEXXZ 10026dd0 f i Parser.obj
 0001:00025dd0       ?_Orphan_all@?$_Vector_alloc@U?$_Vec_base_types@PAURecvTable@@V?$allocator@PAURecvTable@@@std@@@std@@@std@@QAEXXZ 10026dd0 f i NetVarManager.obj
 0001:00025dd0       ?_Orphan_all@?$_Vector_alloc@U?$_Vec_base_types@V?$shared_ptr@VNode@valve_parser@@@std@@V?$allocator@V?$shared_ptr@VNode@valve_parser@@@std@@@2@@std@@@std@@QAEXXZ 10026dd0 f i Parser.obj
 0001:00025dd0       ?_Orphan_all@?$_Vector_alloc@U?$_Vec_base_types@V?$_List_unchecked_iterator@V?$_List_val@U?$_List_simple_types@U?$pair@$$CBV?$basic_string@DU?$char_traits@D@std@@V?$allocator@D@2@@std@@V?$set@V?$basic_string@DU?$char_traits@D@std@@V?$allocator@D@2@@std@@U?$less@V?$basic_string@DU?$char_traits@D@std@@V?$allocator@D@2@@std@@@2@V?$allocator@V?$basic_string@DU?$char_traits@D@std@@V?$allocator@D@2@@std@@@2@@2@@std@@@std@@@std@@@std@@V?$allocator@V?$_List_unchecked_iterator@V?$_List_val@U?$_List_simple_types@U?$pair@$$CBV?$basic_string@DU?$char_traits@D@std@@V?$allocator@D@2@@std@@V?$set@V?$basic_string@DU?$char_traits@D@std@@V?$allocator@D@2@@std@@U?$less@V?$basic_string@DU?$char_traits@D@std@@V?$allocator@D@2@@std@@@2@V?$allocator@V?$basic_string@DU?$char_traits@D@std@@V?$allocator@D@2@@std@@@2@@2@@std@@@std@@@std@@@std@@@2@@std@@@std@@QAEXXZ 10026dd0 f i Configuration.obj
 0001:00025dd0       ?_Orphan_all@?$_Vector_alloc@U?$_Vec_base_types@V?$_List_unchecked_iterator@V?$_List_val@U?$_List_simple_types@U?$pair@QADPAD@std@@@std@@@std@@@std@@V?$allocator@V?$_List_unchecked_iterator@V?$_List_val@U?$_List_simple_types@U?$pair@QADPAD@std@@@std@@@std@@@std@@@2@@std@@@std@@QAEXXZ 10026dd0 f i Hooks.obj
 0001:00025dd0       ?_Orphan_all@?$_Vector_alloc@U?$_Vec_base_types@PAV?$ConfigValue@_N@@V?$allocator@PAV?$ConfigValue@_N@@@std@@@std@@@std@@QAEXXZ 10026dd0 f i Configuration.obj
 0001:00025dd0       ?_Orphan_all@?$_Vector_alloc@U?$_Vec_base_types@V?$basic_string@DU?$char_traits@D@std@@V?$allocator@D@2@@std@@V?$allocator@V?$basic_string@DU?$char_traits@D@std@@V?$allocator@D@2@@std@@@2@@std@@@std@@QAEXXZ 10026dd0 f i Configuration.obj
 0001:00025dd0       ?_Orphan_all@?$_Deque_alloc@U?$_Deque_base_types@V?$shared_ptr@VNode@valve_parser@@@std@@V?$allocator@V?$shared_ptr@VNode@valve_parser@@@std@@@2@@std@@@std@@QAEXXZ 10026dd0 f i Hooks.obj
 0001:00025dd0       ?_Orphan_all@?$_Vector_alloc@U?$_Vec_base_types@HV?$allocator@H@std@@@std@@@std@@QAEXXZ 10026dd0 f i LegitBot.obj
 0001:00025dd0       ?_Orphan_all@?$_Vector_alloc@U?$_Vec_base_types@PAV?$ConfigValue@M@@V?$allocator@PAV?$ConfigValue@M@@@std@@@std@@@std@@QAEXXZ 10026dd0 f i Configuration.obj
 0001:00025dd0       ?_Orphan_all@?$_Vector_alloc@U?$_Vec_base_types@V?$_List_unchecked_iterator@V?$_List_val@U?$_List_simple_types@U?$pair@$$CBV?$basic_string@DU?$char_traits@D@std@@V?$allocator@D@2@@std@@V12@@std@@@std@@@std@@@std@@V?$allocator@V?$_List_unchecked_iterator@V?$_List_val@U?$_List_simple_types@U?$pair@$$CBV?$basic_string@DU?$char_traits@D@std@@V?$allocator@D@2@@std@@V12@@std@@@std@@@std@@@std@@@2@@std@@@std@@QAEXXZ 10026dd0 f i Configuration.obj
 0001:00025df0       ?_Orphan_range@?$vector@PAV?$ConfigValue@_N@@V?$allocator@PAV?$ConfigValue@_N@@@std@@@std@@ABEXPAPAV?$ConfigValue@_N@@0@Z 10026df0 f i Configuration.obj
 0001:00025df0       ?_Orphan_range@?$vector@VVector@@V?$allocator@VVector@@@std@@@std@@ABEXPAVVector@@0@Z 10026df0 f i GrenadePrediction.obj
 0001:00025df0       ?_Orphan_range@?$vector@HV?$allocator@H@std@@@std@@ABEXPAH0@Z 10026df0 f i RageBot.obj
 0001:00025df0       ?_Orphan_range@?$vector@PAURecvTable@@V?$allocator@PAURecvTable@@@std@@@std@@ABEXPAPAURecvTable@@0@Z 10026df0 f i NetVarManager.obj
 0001:00025df0       ?_Orphan_range@?$vector@PAV?$ConfigValue@H@@V?$allocator@PAV?$ConfigValue@H@@@std@@@std@@ABEXPAPAV?$ConfigValue@H@@0@Z 10026df0 f i Configuration.obj
 0001:00025df0       ?_Orphan_range@?$vector@V?$shared_ptr@VNode@valve_parser@@@std@@V?$allocator@V?$shared_ptr@VNode@valve_parser@@@std@@@2@@std@@ABEXPAV?$shared_ptr@VNode@valve_parser@@@2@0@Z 10026df0 f i Parser.obj
 0001:00025df0       ?_Orphan_range@?$vector@PAV?$ConfigValue@M@@V?$allocator@PAV?$ConfigValue@M@@@std@@@std@@ABEXPAPAV?$ConfigValue@M@@0@Z 10026df0 f i Configuration.obj
 0001:00025df0       ?_Orphan_range@?$vector@_SV?$allocator@_S@std@@@std@@ABEXPA_S0@Z 10026df0 f i Parser.obj
 0001:00025e00       ?_Reallocate_exactly@?$vector@V?$_List_unchecked_iterator@V?$_List_val@U?$_List_simple_types@U?$pair@$$CBV?$basic_string@DU?$char_traits@D@std@@V?$allocator@D@2@@std@@UskinInfo@@@std@@@std@@@std@@@std@@V?$allocator@V?$_List_unchecked_iterator@V?$_List_val@U?$_List_simple_types@U?$pair@$$CBV?$basic_string@DU?$char_traits@D@std@@V?$allocator@D@2@@std@@UskinInfo@@@std@@@std@@@std@@@std@@@2@@std@@AAEXI@Z 10026e00 f i Configuration.obj
 0001:00025e00       ?_Reallocate_exactly@?$vector@V?$_List_unchecked_iterator@V?$_List_val@U?$_List_simple_types@U?$pair@$$CBV?$basic_string@DU?$char_traits@D@std@@V?$allocator@D@2@@std@@V12@@std@@@std@@@std@@@std@@V?$allocator@V?$_List_unchecked_iterator@V?$_List_val@U?$_List_simple_types@U?$pair@$$CBV?$basic_string@DU?$char_traits@D@std@@V?$allocator@D@2@@std@@V12@@std@@@std@@@std@@@std@@@2@@std@@AAEXI@Z 10026e00 f i Configuration.obj
 0001:00025e00       ?_Reallocate_exactly@?$vector@V?$_List_unchecked_iterator@V?$_List_val@U?$_List_simple_types@U?$pair@QADPAD@std@@@std@@@std@@@std@@V?$allocator@V?$_List_unchecked_iterator@V?$_List_val@U?$_List_simple_types@U?$pair@QADPAD@std@@@std@@@std@@@std@@@2@@std@@AAEXI@Z 10026e00 f i Hooks.obj
 0001:00025e00       ?_Reallocate_exactly@?$vector@V?$_List_unchecked_iterator@V?$_List_val@U?$_List_simple_types@U?$pair@$$CBV?$basic_string@DU?$char_traits@D@std@@V?$allocator@D@2@@std@@V?$set@V?$basic_string@DU?$char_traits@D@std@@V?$allocator@D@2@@std@@U?$less@V?$basic_string@DU?$char_traits@D@std@@V?$allocator@D@2@@std@@@2@V?$allocator@V?$basic_string@DU?$char_traits@D@std@@V?$allocator@D@2@@std@@@2@@2@@std@@@std@@@std@@@std@@V?$allocator@V?$_List_unchecked_iterator@V?$_List_val@U?$_List_simple_types@U?$pair@$$CBV?$basic_string@DU?$char_traits@D@std@@V?$allocator@D@2@@std@@V?$set@V?$basic_string@DU?$char_traits@D@std@@V?$allocator@D@2@@std@@U?$less@V?$basic_string@DU?$char_traits@D@std@@V?$allocator@D@2@@std@@@2@V?$allocator@V?$basic_string@DU?$char_traits@D@std@@V?$allocator@D@2@@std@@@2@@2@@std@@@std@@@std@@@std@@@2@@std@@AAEXI@Z 10026e00 f i Configuration.obj
 0001:00025ee0       ?_Rmost@?$_Tree@V?$_Tset_traits@V?$basic_string@DU?$char_traits@D@std@@V?$allocator@D@2@@std@@U?$less@V?$basic_string@DU?$char_traits@D@std@@V?$allocator@D@2@@std@@@2@V?$allocator@V?$basic_string@DU?$char_traits@D@std@@V?$allocator@D@2@@std@@@2@$0A@@std@@@std@@IBEAAPAU?$_Tree_node@V?$basic_string@DU?$char_traits@D@std@@V?$allocator@D@2@@std@@PAX@2@XZ 10026ee0 f i Configuration.obj
 0001:00025ee0       ?_Rmost@?$_Tree@V?$_Tmap_traits@W4ItemDefinitionIndexx@@UDefItem_t@@U?$less@W4ItemDefinitionIndexx@@@std@@V?$allocator@U?$pair@$$CBW4ItemDefinitionIndexx@@UDefItem_t@@@std@@@4@$0A@@std@@@std@@IBEAAPAU?$_Tree_node@U?$pair@$$CBW4ItemDefinitionIndexx@@UDefItem_t@@@std@@PAX@2@XZ 10026ee0 f i recvproxy.obj
 0001:00025f00       ?_Tidy@?$_Tree@V?$_Tset_traits@V?$basic_string@DU?$char_traits@D@std@@V?$allocator@D@2@@std@@U?$less@V?$basic_string@DU?$char_traits@D@std@@V?$allocator@D@2@@std@@@2@V?$allocator@V?$basic_string@DU?$char_traits@D@std@@V?$allocator@D@2@@std@@@2@$0A@@std@@@std@@IAEXXZ 10026f00 f i Configuration.obj
 0001:00025f40       ?_Tidy@?$list@U?$pair@$$CBV?$basic_string@DU?$char_traits@D@std@@V?$allocator@D@2@@std@@UskinInfo@@@std@@V?$allocator@U?$pair@$$CBV?$basic_string@DU?$char_traits@D@std@@V?$allocator@D@2@@std@@UskinInfo@@@std@@@2@@std@@QAEXXZ 10026f40 f i Configuration.obj
 0001:00025f60       ?_Tidy@?$list@U?$pair@$$CBV?$basic_string@DU?$char_traits@D@std@@V?$allocator@D@2@@std@@V12@@std@@V?$allocator@U?$pair@$$CBV?$basic_string@DU?$char_traits@D@std@@V?$allocator@D@2@@std@@V12@@std@@@2@@std@@QAEXXZ 10026f60 f i Configuration.obj
 0001:00025f80       ?_Tidy@?$list@U?$pair@$$CBV?$basic_string@DU?$char_traits@D@std@@V?$allocator@D@2@@std@@V?$set@V?$basic_string@DU?$char_traits@D@std@@V?$allocator@D@2@@std@@U?$less@V?$basic_string@DU?$char_traits@D@std@@V?$allocator@D@2@@std@@@2@V?$allocator@V?$basic_string@DU?$char_traits@D@std@@V?$allocator@D@2@@std@@@2@@2@@std@@V?$allocator@U?$pair@$$CBV?$basic_string@DU?$char_traits@D@std@@V?$allocator@D@2@@std@@V?$set@V?$basic_string@DU?$char_traits@D@std@@V?$allocator@D@2@@std@@U?$less@V?$basic_string@DU?$char_traits@D@std@@V?$allocator@D@2@@std@@@2@V?$allocator@V?$basic_string@DU?$char_traits@D@std@@V?$allocator@D@2@@std@@@2@@2@@std@@@2@@std@@QAEXXZ 10026f80 f i Configuration.obj
 0001:00025fa0       ?_Tidy@?$vector@V?$_List_unchecked_iterator@V?$_List_val@U?$_List_simple_types@U?$pair@$$CBV?$basic_string@DU?$char_traits@D@std@@V?$allocator@D@2@@std@@V?$set@V?$basic_string@DU?$char_traits@D@std@@V?$allocator@D@2@@std@@U?$less@V?$basic_string@DU?$char_traits@D@std@@V?$allocator@D@2@@std@@@2@V?$allocator@V?$basic_string@DU?$char_traits@D@std@@V?$allocator@D@2@@std@@@2@@2@@std@@@std@@@std@@@std@@V?$allocator@V?$_List_unchecked_iterator@V?$_List_val@U?$_List_simple_types@U?$pair@$$CBV?$basic_string@DU?$char_traits@D@std@@V?$allocator@D@2@@std@@V?$set@V?$basic_string@DU?$char_traits@D@std@@V?$allocator@D@2@@std@@U?$less@V?$basic_string@DU?$char_traits@D@std@@V?$allocator@D@2@@std@@@2@V?$allocator@V?$basic_string@DU?$char_traits@D@std@@V?$allocator@D@2@@std@@@2@@2@@std@@@std@@@std@@@std@@@2@@std@@AAEXXZ 10026fa0 f i Configuration.obj
 0001:00025fa0       ?_Tidy@?$vector@PAV?$ConfigValue@H@@V?$allocator@PAV?$ConfigValue@H@@@std@@@std@@AAEXXZ 10026fa0 f i Configuration.obj
 0001:00025fa0       ?_Tidy@?$vector@PAV?$ConfigValue@M@@V?$allocator@PAV?$ConfigValue@M@@@std@@@std@@AAEXXZ 10026fa0 f i Configuration.obj
 0001:00025fa0       ?_Tidy@?$vector@HV?$allocator@H@std@@@std@@AAEXXZ 10026fa0 f i LegitBot.obj
 0001:00025fa0       ?_Tidy@?$vector@PAV?$ConfigValue@_N@@V?$allocator@PAV?$ConfigValue@_N@@@std@@@std@@AAEXXZ 10026fa0 f i Configuration.obj
 0001:00025fa0       ?_Tidy@?$vector@V?$_List_unchecked_iterator@V?$_List_val@U?$_List_simple_types@U?$pair@$$CBV?$basic_string@DU?$char_traits@D@std@@V?$allocator@D@2@@std@@UskinInfo@@@std@@@std@@@std@@@std@@V?$allocator@V?$_List_unchecked_iterator@V?$_List_val@U?$_List_simple_types@U?$pair@$$CBV?$basic_string@DU?$char_traits@D@std@@V?$allocator@D@2@@std@@UskinInfo@@@std@@@std@@@std@@@std@@@2@@std@@AAEXXZ 10026fa0 f i Configuration.obj
 0001:00025fa0       ?_Tidy@?$vector@V?$_List_unchecked_iterator@V?$_List_val@U?$_List_simple_types@U?$pair@$$CBV?$basic_string@DU?$char_traits@D@std@@V?$allocator@D@2@@std@@V12@@std@@@std@@@std@@@std@@V?$allocator@V?$_List_unchecked_iterator@V?$_List_val@U?$_List_simple_types@U?$pair@$$CBV?$basic_string@DU?$char_traits@D@std@@V?$allocator@D@2@@std@@V12@@std@@@std@@@std@@@std@@@2@@std@@AAEXXZ 10026fa0 f i Configuration.obj
 0001:00025fa0       ?_Tidy@?$vector@V?$_List_unchecked_iterator@V?$_List_val@U?$_List_simple_types@U?$pair@QADPAD@std@@@std@@@std@@@std@@V?$allocator@V?$_List_unchecked_iterator@V?$_List_val@U?$_List_simple_types@U?$pair@QADPAD@std@@@std@@@std@@@std@@@2@@std@@AAEXXZ 10026fa0 f i Hooks.obj
 0001:00026030       ?_Tidy@?$vector@V?$basic_string@DU?$char_traits@D@std@@V?$allocator@D@2@@std@@V?$allocator@V?$basic_string@DU?$char_traits@D@std@@V?$allocator@D@2@@std@@@2@@std@@AAEXXZ 10027030 f i Configuration.obj
 0001:000260c0       ?_Ufill@?$vector@V?$_List_unchecked_iterator@V?$_List_val@U?$_List_simple_types@U?$pair@$$CBV?$basic_string@DU?$char_traits@D@std@@V?$allocator@D@2@@std@@V12@@std@@@std@@@std@@@std@@V?$allocator@V?$_List_unchecked_iterator@V?$_List_val@U?$_List_simple_types@U?$pair@$$CBV?$basic_string@DU?$char_traits@D@std@@V?$allocator@D@2@@std@@V12@@std@@@std@@@std@@@std@@@2@@std@@AAEPAV?$_List_unchecked_iterator@V?$_List_val@U?$_List_simple_types@U?$pair@$$CBV?$basic_string@DU?$char_traits@D@std@@V?$allocator@D@2@@std@@V12@@std@@@std@@@std@@@2@PAV32@IABV32@@Z 100270c0 f i Configuration.obj
 0001:000260c0       ?_Ufill@?$vector@V?$_List_unchecked_iterator@V?$_List_val@U?$_List_simple_types@U?$pair@$$CBV?$basic_string@DU?$char_traits@D@std@@V?$allocator@D@2@@std@@UskinInfo@@@std@@@std@@@std@@@std@@V?$allocator@V?$_List_unchecked_iterator@V?$_List_val@U?$_List_simple_types@U?$pair@$$CBV?$basic_string@DU?$char_traits@D@std@@V?$allocator@D@2@@std@@UskinInfo@@@std@@@std@@@std@@@std@@@2@@std@@AAEPAV?$_List_unchecked_iterator@V?$_List_val@U?$_List_simple_types@U?$pair@$$CBV?$basic_string@DU?$char_traits@D@std@@V?$allocator@D@2@@std@@UskinInfo@@@std@@@std@@@std@@@2@PAV32@IABV32@@Z 100270c0 f i Configuration.obj
 0001:000260c0       ?_Ufill@?$vector@V?$_List_unchecked_iterator@V?$_List_val@U?$_List_simple_types@U?$pair@QADPAD@std@@@std@@@std@@@std@@V?$allocator@V?$_List_unchecked_iterator@V?$_List_val@U?$_List_simple_types@U?$pair@QADPAD@std@@@std@@@std@@@std@@@2@@std@@AAEPAV?$_List_unchecked_iterator@V?$_List_val@U?$_List_simple_types@U?$pair@QADPAD@std@@@std@@@std@@@2@PAV32@IABV32@@Z 100270c0 f i Hooks.obj
 0001:000260c0       ?_Ufill@?$vector@V?$_List_unchecked_iterator@V?$_List_val@U?$_List_simple_types@U?$pair@$$CBV?$basic_string@DU?$char_traits@D@std@@V?$allocator@D@2@@std@@V?$set@V?$basic_string@DU?$char_traits@D@std@@V?$allocator@D@2@@std@@U?$less@V?$basic_string@DU?$char_traits@D@std@@V?$allocator@D@2@@std@@@2@V?$allocator@V?$basic_string@DU?$char_traits@D@std@@V?$allocator@D@2@@std@@@2@@2@@std@@@std@@@std@@@std@@V?$allocator@V?$_List_unchecked_iterator@V?$_List_val@U?$_List_simple_types@U?$pair@$$CBV?$basic_string@DU?$char_traits@D@std@@V?$allocator@D@2@@std@@V?$set@V?$basic_string@DU?$char_traits@D@std@@V?$allocator@D@2@@std@@U?$less@V?$basic_string@DU?$char_traits@D@std@@V?$allocator@D@2@@std@@@2@V?$allocator@V?$basic_string@DU?$char_traits@D@std@@V?$allocator@D@2@@std@@@2@@2@@std@@@std@@@std@@@std@@@2@@std@@AAEPAV?$_List_unchecked_iterator@V?$_List_val@U?$_List_simple_types@U?$pair@$$CBV?$basic_string@DU?$char_traits@D@std@@V?$allocator@D@2@@std@@V?$set@V?$basic_string@DU?$char_traits@D@std@@V?$allocator@D@2@@std@@U?$less@V?$basic_string@DU?$char_traits@D@std@@V?$allocator@D@2@@std@@@2@V?$allocator@V?$basic_string@DU?$char_traits@D@std@@V?$allocator@D@2@@std@@@2@@2@@std@@@std@@@std@@@2@PAV32@IABV32@@Z 100270c0 f i Configuration.obj
 0001:000260f0       ?_Umove_if_noexcept1@?$vector@V?$_List_unchecked_iterator@V?$_List_val@U?$_List_simple_types@U?$pair@QADPAD@std@@@std@@@std@@@std@@V?$allocator@V?$_List_unchecked_iterator@V?$_List_val@U?$_List_simple_types@U?$pair@QADPAD@std@@@std@@@std@@@std@@@2@@std@@AAEXPAV?$_List_unchecked_iterator@V?$_List_val@U?$_List_simple_types@U?$pair@QADPAD@std@@@std@@@std@@@2@00U?$integral_constant@_N$00@2@@Z 100270f0 f i Hooks.obj
 0001:000260f0       ?_Umove_if_noexcept1@?$vector@V?$_List_unchecked_iterator@V?$_List_val@U?$_List_simple_types@U?$pair@$$CBV?$basic_string@DU?$char_traits@D@std@@V?$allocator@D@2@@std@@V?$set@V?$basic_string@DU?$char_traits@D@std@@V?$allocator@D@2@@std@@U?$less@V?$basic_string@DU?$char_traits@D@std@@V?$allocator@D@2@@std@@@2@V?$allocator@V?$basic_string@DU?$char_traits@D@std@@V?$allocator@D@2@@std@@@2@@2@@std@@@std@@@std@@@std@@V?$allocator@V?$_List_unchecked_iterator@V?$_List_val@U?$_List_simple_types@U?$pair@$$CBV?$basic_string@DU?$char_traits@D@std@@V?$allocator@D@2@@std@@V?$set@V?$basic_string@DU?$char_traits@D@std@@V?$allocator@D@2@@std@@U?$less@V?$basic_string@DU?$char_traits@D@std@@V?$allocator@D@2@@std@@@2@V?$allocator@V?$basic_string@DU?$char_traits@D@std@@V?$allocator@D@2@@std@@@2@@2@@std@@@std@@@std@@@std@@@2@@std@@AAEXPAV?$_List_unchecked_iterator@V?$_List_val@U?$_List_simple_types@U?$pair@$$CBV?$basic_string@DU?$char_traits@D@std@@V?$allocator@D@2@@std@@V?$set@V?$basic_string@DU?$char_traits@D@std@@V?$allocator@D@2@@std@@U?$less@V?$basic_string@DU?$char_traits@D@std@@V?$allocator@D@2@@std@@@2@V?$allocator@V?$basic_string@DU?$char_traits@D@std@@V?$allocator@D@2@@std@@@2@@2@@std@@@std@@@std@@@2@00U?$integral_constant@_N$00@2@@Z 100270f0 f i Configuration.obj
 0001:000260f0       ?_Umove_if_noexcept1@?$vector@V?$_List_unchecked_iterator@V?$_List_val@U?$_List_simple_types@U?$pair@$$CBV?$basic_string@DU?$char_traits@D@std@@V?$allocator@D@2@@std@@V12@@std@@@std@@@std@@@std@@V?$allocator@V?$_List_unchecked_iterator@V?$_List_val@U?$_List_simple_types@U?$pair@$$CBV?$basic_string@DU?$char_traits@D@std@@V?$allocator@D@2@@std@@V12@@std@@@std@@@std@@@std@@@2@@std@@AAEXPAV?$_List_unchecked_iterator@V?$_List_val@U?$_List_simple_types@U?$pair@$$CBV?$basic_string@DU?$char_traits@D@std@@V?$allocator@D@2@@std@@V12@@std@@@std@@@std@@@2@00U?$integral_constant@_N$00@2@@Z 100270f0 f i Configuration.obj
 0001:000260f0       ?_Umove_if_noexcept1@?$vector@V?$_List_unchecked_iterator@V?$_List_val@U?$_List_simple_types@U?$pair@$$CBV?$basic_string@DU?$char_traits@D@std@@V?$allocator@D@2@@std@@UskinInfo@@@std@@@std@@@std@@@std@@V?$allocator@V?$_List_unchecked_iterator@V?$_List_val@U?$_List_simple_types@U?$pair@$$CBV?$basic_string@DU?$char_traits@D@std@@V?$allocator@D@2@@std@@UskinInfo@@@std@@@std@@@std@@@std@@@2@@std@@AAEXPAV?$_List_unchecked_iterator@V?$_List_val@U?$_List_simple_types@U?$pair@$$CBV?$basic_string@DU?$char_traits@D@std@@V?$allocator@D@2@@std@@UskinInfo@@@std@@@std@@@std@@@2@00U?$integral_constant@_N$00@2@@Z 100270f0 f i Configuration.obj
 0001:00026120       ?_Umove_if_noexcept@?$vector@V?$_List_unchecked_iterator@V?$_List_val@U?$_List_simple_types@U?$pair@$$CBV?$basic_string@DU?$char_traits@D@std@@V?$allocator@D@2@@std@@V?$set@V?$basic_string@DU?$char_traits@D@std@@V?$allocator@D@2@@std@@U?$less@V?$basic_string@DU?$char_traits@D@std@@V?$allocator@D@2@@std@@@2@V?$allocator@V?$basic_string@DU?$char_traits@D@std@@V?$allocator@D@2@@std@@@2@@2@@std@@@std@@@std@@@std@@V?$allocator@V?$_List_unchecked_iterator@V?$_List_val@U?$_List_simple_types@U?$pair@$$CBV?$basic_string@DU?$char_traits@D@std@@V?$allocator@D@2@@std@@V?$set@V?$basic_string@DU?$char_traits@D@std@@V?$allocator@D@2@@std@@U?$less@V?$basic_string@DU?$char_traits@D@std@@V?$allocator@D@2@@std@@@2@V?$allocator@V?$basic_string@DU?$char_traits@D@std@@V?$allocator@D@2@@std@@@2@@2@@std@@@std@@@std@@@std@@@2@@std@@AAEXPAV?$_List_unchecked_iterator@V?$_List_val@U?$_List_simple_types@U?$pair@$$CBV?$basic_string@DU?$char_traits@D@std@@V?$allocator@D@2@@std@@V?$set@V?$basic_string@DU?$char_traits@D@std@@V?$allocator@D@2@@std@@U?$less@V?$basic_string@DU?$char_traits@D@std@@V?$allocator@D@2@@std@@@2@V?$allocator@V?$basic_string@DU?$char_traits@D@std@@V?$allocator@D@2@@std@@@2@@2@@std@@@std@@@std@@@2@00@Z 10027120 f i Configuration.obj
 0001:00026120       ?_Umove_if_noexcept@?$vector@V?$_List_unchecked_iterator@V?$_List_val@U?$_List_simple_types@U?$pair@QADPAD@std@@@std@@@std@@@std@@V?$allocator@V?$_List_unchecked_iterator@V?$_List_val@U?$_List_simple_types@U?$pair@QADPAD@std@@@std@@@std@@@std@@@2@@std@@AAEXPAV?$_List_unchecked_iterator@V?$_List_val@U?$_List_simple_types@U?$pair@QADPAD@std@@@std@@@std@@@2@00@Z 10027120 f i Hooks.obj
 0001:00026120       ?_Umove_if_noexcept@?$vector@V?$_List_unchecked_iterator@V?$_List_val@U?$_List_simple_types@U?$pair@$$CBV?$basic_string@DU?$char_traits@D@std@@V?$allocator@D@2@@std@@UskinInfo@@@std@@@std@@@std@@@std@@V?$allocator@V?$_List_unchecked_iterator@V?$_List_val@U?$_List_simple_types@U?$pair@$$CBV?$basic_string@DU?$char_traits@D@std@@V?$allocator@D@2@@std@@UskinInfo@@@std@@@std@@@std@@@std@@@2@@std@@AAEXPAV?$_List_unchecked_iterator@V?$_List_val@U?$_List_simple_types@U?$pair@$$CBV?$basic_string@DU?$char_traits@D@std@@V?$allocator@D@2@@std@@UskinInfo@@@std@@@std@@@std@@@2@00@Z 10027120 f i Configuration.obj
 0001:00026120       ?_Umove_if_noexcept@?$vector@V?$_List_unchecked_iterator@V?$_List_val@U?$_List_simple_types@U?$pair@$$CBV?$basic_string@DU?$char_traits@D@std@@V?$allocator@D@2@@std@@V12@@std@@@std@@@std@@@std@@V?$allocator@V?$_List_unchecked_iterator@V?$_List_val@U?$_List_simple_types@U?$pair@$$CBV?$basic_string@DU?$char_traits@D@std@@V?$allocator@D@2@@std@@V12@@std@@@std@@@std@@@std@@@2@@std@@AAEXPAV?$_List_unchecked_iterator@V?$_List_val@U?$_List_simple_types@U?$pair@$$CBV?$basic_string@DU?$char_traits@D@std@@V?$allocator@D@2@@std@@V12@@std@@@std@@@std@@@2@00@Z 10027120 f i Configuration.obj
 0001:00026150       ?_Unchecked_end@?$_Hash@V?$_Umap_traits@PADPADV?$_Uhash_compare@PADU?$hash@PAD@std@@U?$equal_to@PAD@2@@std@@V?$allocator@U?$pair@QADPAD@std@@@2@$0A@@std@@@std@@QAE?AV?$_List_unchecked_iterator@V?$_List_val@U?$_List_simple_types@U?$pair@QADPAD@std@@@std@@@std@@@2@XZ 10027150 f i Hooks.obj
 0001:00026150       ?_Unchecked_end@?$_Hash@V?$_Umap_traits@V?$basic_string@DU?$char_traits@D@std@@V?$allocator@D@2@@std@@V12@V?$_Uhash_compare@V?$basic_string@DU?$char_traits@D@std@@V?$allocator@D@2@@std@@U?$hash@V?$basic_string@DU?$char_traits@D@std@@V?$allocator@D@2@@std@@@2@U?$equal_to@V?$basic_string@DU?$char_traits@D@std@@V?$allocator@D@2@@std@@@2@@2@V?$allocator@U?$pair@$$CBV?$basic_string@DU?$char_traits@D@std@@V?$allocator@D@2@@std@@V12@@std@@@2@$0A@@std@@@std@@QAE?AV?$_List_unchecked_iterator@V?$_List_val@U?$_List_simple_types@U?$pair@$$CBV?$basic_string@DU?$char_traits@D@std@@V?$allocator@D@2@@std@@V12@@std@@@std@@@std@@@2@XZ 10027150 f i Configuration.obj
 0001:00026150       ?_Unchecked_end@?$_Hash@V?$_Umap_traits@V?$basic_string@DU?$char_traits@D@std@@V?$allocator@D@2@@std@@V?$set@V?$basic_string@DU?$char_traits@D@std@@V?$allocator@D@2@@std@@U?$less@V?$basic_string@DU?$char_traits@D@std@@V?$allocator@D@2@@std@@@2@V?$allocator@V?$basic_string@DU?$char_traits@D@std@@V?$allocator@D@2@@std@@@2@@2@V?$_Uhash_compare@V?$basic_string@DU?$char_traits@D@std@@V?$allocator@D@2@@std@@U?$hash@V?$basic_string@DU?$char_traits@D@std@@V?$allocator@D@2@@std@@@2@U?$equal_to@V?$basic_string@DU?$char_traits@D@std@@V?$allocator@D@2@@std@@@2@@2@V?$allocator@U?$pair@$$CBV?$basic_string@DU?$char_traits@D@std@@V?$allocator@D@2@@std@@V?$set@V?$basic_string@DU?$char_traits@D@std@@V?$allocator@D@2@@std@@U?$less@V?$basic_string@DU?$char_traits@D@std@@V?$allocator@D@2@@std@@@2@V?$allocator@V?$basic_string@DU?$char_traits@D@std@@V?$allocator@D@2@@std@@@2@@2@@std@@@2@$0A@@std@@@std@@QAE?AV?$_List_unchecked_iterator@V?$_List_val@U?$_List_simple_types@U?$pair@$$CBV?$basic_string@DU?$char_traits@D@std@@V?$allocator@D@2@@std@@V?$set@V?$basic_string@DU?$char_traits@D@std@@V?$allocator@D@2@@std@@U?$less@V?$basic_string@DU?$char_traits@D@std@@V?$allocator@D@2@@std@@@2@V?$allocator@V?$basic_string@DU?$char_traits@D@std@@V?$allocator@D@2@@std@@@2@@2@@std@@@std@@@std@@@2@XZ 10027150 f i Configuration.obj
 0001:00026150       ?_Unchecked_end@?$_Hash@V?$_Umap_traits@V?$basic_string@DU?$char_traits@D@std@@V?$allocator@D@2@@std@@UskinInfo@@V?$_Uhash_compare@V?$basic_string@DU?$char_traits@D@std@@V?$allocator@D@2@@std@@U?$hash@V?$basic_string@DU?$char_traits@D@std@@V?$allocator@D@2@@std@@@2@U?$equal_to@V?$basic_string@DU?$char_traits@D@std@@V?$allocator@D@2@@std@@@2@@2@V?$allocator@U?$pair@$$CBV?$basic_string@DU?$char_traits@D@std@@V?$allocator@D@2@@std@@UskinInfo@@@std@@@2@$0A@@std@@@std@@QAE?AV?$_List_unchecked_iterator@V?$_List_val@U?$_List_simple_types@U?$pair@$$CBV?$basic_string@DU?$char_traits@D@std@@V?$allocator@D@2@@std@@UskinInfo@@@std@@@std@@@std@@@2@XZ 10027150 f i Configuration.obj
 0001:00026170       ?_Unchecked_end@?$list@U?$pair@$$CBV?$basic_string@DU?$char_traits@D@std@@V?$allocator@D@2@@std@@UskinInfo@@@std@@V?$allocator@U?$pair@$$CBV?$basic_string@DU?$char_traits@D@std@@V?$allocator@D@2@@std@@UskinInfo@@@std@@@2@@std@@QAE?AV?$_List_unchecked_iterator@V?$_List_val@U?$_List_simple_types@U?$pair@$$CBV?$basic_string@DU?$char_traits@D@std@@V?$allocator@D@2@@std@@UskinInfo@@@std@@@std@@@std@@@2@XZ 10027170 f i Configuration.obj
 0001:00026170       ?_Unchecked_end@?$list@U?$pair@QADPAD@std@@V?$allocator@U?$pair@QADPAD@std@@@2@@std@@QAE?AV?$_List_unchecked_iterator@V?$_List_val@U?$_List_simple_types@U?$pair@QADPAD@std@@@std@@@std@@@2@XZ 10027170 f i Hooks.obj
 0001:00026170       ?_Unchecked_end@?$list@U?$pair@$$CBV?$basic_string@DU?$char_traits@D@std@@V?$allocator@D@2@@std@@V?$set@V?$basic_string@DU?$char_traits@D@std@@V?$allocator@D@2@@std@@U?$less@V?$basic_string@DU?$char_traits@D@std@@V?$allocator@D@2@@std@@@2@V?$allocator@V?$basic_string@DU?$char_traits@D@std@@V?$allocator@D@2@@std@@@2@@2@@std@@V?$allocator@U?$pair@$$CBV?$basic_string@DU?$char_traits@D@std@@V?$allocator@D@2@@std@@V?$set@V?$basic_string@DU?$char_traits@D@std@@V?$allocator@D@2@@std@@U?$less@V?$basic_string@DU?$char_traits@D@std@@V?$allocator@D@2@@std@@@2@V?$allocator@V?$basic_string@DU?$char_traits@D@std@@V?$allocator@D@2@@std@@@2@@2@@std@@@2@@std@@QAE?AV?$_List_unchecked_iterator@V?$_List_val@U?$_List_simple_types@U?$pair@$$CBV?$basic_string@DU?$char_traits@D@std@@V?$allocator@D@2@@std@@V?$set@V?$basic_string@DU?$char_traits@D@std@@V?$allocator@D@2@@std@@U?$less@V?$basic_string@DU?$char_traits@D@std@@V?$allocator@D@2@@std@@@2@V?$allocator@V?$basic_string@DU?$char_traits@D@std@@V?$allocator@D@2@@std@@@2@@2@@std@@@std@@@std@@@2@XZ 10027170 f i Configuration.obj
 0001:00026170       ?_Unchecked_end@?$list@U?$pair@$$CBV?$basic_string@DU?$char_traits@D@std@@V?$allocator@D@2@@std@@V12@@std@@V?$allocator@U?$pair@$$CBV?$basic_string@DU?$char_traits@D@std@@V?$allocator@D@2@@std@@V12@@std@@@2@@std@@QAE?AV?$_List_unchecked_iterator@V?$_List_val@U?$_List_simple_types@U?$pair@$$CBV?$basic_string@DU?$char_traits@D@std@@V?$allocator@D@2@@std@@V12@@std@@@std@@@std@@@2@XZ 10027170 f i Configuration.obj
 0001:000261a0       ?_Xran@?$_String_val@U?$_Simple_types@D@std@@@std@@SAXXZ 100271a0 f i Configuration.obj
 0001:000261b0       ?allocate@?$allocator@U?$_List_node@U?$pair@$$CBV?$basic_string@DU?$char_traits@D@std@@V?$allocator@D@2@@std@@UskinInfo@@@std@@PAX@std@@@std@@QAEPAU?$_List_node@U?$pair@$$CBV?$basic_string@DU?$char_traits@D@std@@V?$allocator@D@2@@std@@UskinInfo@@@std@@PAX@2@I@Z 100271b0 f i Configuration.obj
 0001:000261d0       ?allocate@?$allocator@U?$_List_node@U?$pair@$$CBV?$basic_string@DU?$char_traits@D@std@@V?$allocator@D@2@@std@@V12@@std@@PAX@std@@@std@@QAEPAU?$_List_node@U?$pair@$$CBV?$basic_string@DU?$char_traits@D@std@@V?$allocator@D@2@@std@@V12@@std@@PAX@2@I@Z 100271d0 f i Configuration.obj
 0001:000261f0       ?allocate@?$allocator@V?$_List_unchecked_iterator@V?$_List_val@U?$_List_simple_types@U?$pair@$$CBV?$basic_string@DU?$char_traits@D@std@@V?$allocator@D@2@@std@@V?$set@V?$basic_string@DU?$char_traits@D@std@@V?$allocator@D@2@@std@@U?$less@V?$basic_string@DU?$char_traits@D@std@@V?$allocator@D@2@@std@@@2@V?$allocator@V?$basic_string@DU?$char_traits@D@std@@V?$allocator@D@2@@std@@@2@@2@@std@@@std@@@std@@@std@@@std@@QAEPAV?$_List_unchecked_iterator@V?$_List_val@U?$_List_simple_types@U?$pair@$$CBV?$basic_string@DU?$char_traits@D@std@@V?$allocator@D@2@@std@@V?$set@V?$basic_string@DU?$char_traits@D@std@@V?$allocator@D@2@@std@@U?$less@V?$basic_string@DU?$char_traits@D@std@@V?$allocator@D@2@@std@@@2@V?$allocator@V?$basic_string@DU?$char_traits@D@std@@V?$allocator@D@2@@std@@@2@@2@@std@@@std@@@std@@@2@I@Z 100271f0 f i Configuration.obj
 0001:000261f0       ?allocate@?$allocator@H@std@@QAEPAHI@Z 100271f0 f i LegitBot.obj
 0001:000261f0       ?allocate@?$allocator@PAV?$shared_ptr@VNode@valve_parser@@@std@@@std@@QAEPAPAV?$shared_ptr@VNode@valve_parser@@@2@I@Z 100271f0 f i Hooks.obj
 0001:000261f0       ?allocate@?$allocator@V?$_List_unchecked_iterator@V?$_List_val@U?$_List_simple_types@U?$pair@$$CBV?$basic_string@DU?$char_traits@D@std@@V?$allocator@D@2@@std@@V12@@std@@@std@@@std@@@std@@@std@@QAEPAV?$_List_unchecked_iterator@V?$_List_val@U?$_List_simple_types@U?$pair@$$CBV?$basic_string@DU?$char_traits@D@std@@V?$allocator@D@2@@std@@V12@@std@@@std@@@std@@@2@I@Z 100271f0 f i Configuration.obj
 0001:000261f0       ?allocate@?$allocator@PAURecvTable@@@std@@QAEPAPAURecvTable@@I@Z 100271f0 f i NetVarManager.obj
 0001:000261f0       ?allocate@?$allocator@PAV?$ConfigValue@M@@@std@@QAEPAPAV?$ConfigValue@M@@I@Z 100271f0 f i Configuration.obj
 0001:000261f0       ?allocate@?$allocator@V?$_List_unchecked_iterator@V?$_List_val@U?$_List_simple_types@U?$pair@QADPAD@std@@@std@@@std@@@std@@@std@@QAEPAV?$_List_unchecked_iterator@V?$_List_val@U?$_List_simple_types@U?$pair@QADPAD@std@@@std@@@std@@@2@I@Z 100271f0 f i Hooks.obj
 0001:000261f0       ?allocate@?$allocator@V?$_List_unchecked_iterator@V?$_List_val@U?$_List_simple_types@U?$pair@$$CBV?$basic_string@DU?$char_traits@D@std@@V?$allocator@D@2@@std@@UskinInfo@@@std@@@std@@@std@@@std@@@std@@QAEPAV?$_List_unchecked_iterator@V?$_List_val@U?$_List_simple_types@U?$pair@$$CBV?$basic_string@DU?$char_traits@D@std@@V?$allocator@D@2@@std@@UskinInfo@@@std@@@std@@@std@@@2@I@Z 100271f0 f i Configuration.obj
 0001:000261f0       ?allocate@?$allocator@PAV?$ConfigValue@H@@@std@@QAEPAPAV?$ConfigValue@H@@I@Z 100271f0 f i Configuration.obj
 0001:000261f0       ?allocate@?$allocator@PAV?$ConfigValue@_N@@@std@@QAEPAPAV?$ConfigValue@_N@@I@Z 100271f0 f i Configuration.obj
 0001:00026210       ?append@?$basic_string@DU?$char_traits@D@std@@V?$allocator@D@2@@std@@QAEAAV12@ABV12@@Z 10027210 f i Configuration.obj
 0001:00026250       ?append@?$basic_string@DU?$char_traits@D@std@@V?$allocator@D@2@@std@@QAEAAV12@ID@Z 10027250 f i Configuration.obj
 0001:000262f0       ?append@?$basic_string@DU?$char_traits@D@std@@V?$allocator@D@2@@std@@QAEAAV12@QBD@Z 100272f0 f i Configuration.obj
 0001:00026320       ?append@?$basic_string@DU?$char_traits@D@std@@V?$allocator@D@2@@std@@QAEAAV12@QBDI@Z 10027320 f i Configuration.obj
 0001:000263c0       ?assign@?$basic_string@DU?$char_traits@D@std@@V?$allocator@D@2@@std@@QAEAAV12@ID@Z 100273c0 f i Configuration.obj
 0001:00026450       ?assign@?$char_traits@D@std@@SAPADQADID@Z 10027450 f i Configuration.obj
 0001:00026470       ?assign@?$vector@V?$_List_unchecked_iterator@V?$_List_val@U?$_List_simple_types@U?$pair@$$CBV?$basic_string@DU?$char_traits@D@std@@V?$allocator@D@2@@std@@V12@@std@@@std@@@std@@@std@@V?$allocator@V?$_List_unchecked_iterator@V?$_List_val@U?$_List_simple_types@U?$pair@$$CBV?$basic_string@DU?$char_traits@D@std@@V?$allocator@D@2@@std@@V12@@std@@@std@@@std@@@std@@@2@@std@@QAEXIABV?$_List_unchecked_iterator@V?$_List_val@U?$_List_simple_types@U?$pair@$$CBV?$basic_string@DU?$char_traits@D@std@@V?$allocator@D@2@@std@@V12@@std@@@std@@@std@@@2@@Z 10027470 f i Configuration.obj
 0001:00026470       ?assign@?$vector@V?$_List_unchecked_iterator@V?$_List_val@U?$_List_simple_types@U?$pair@QADPAD@std@@@std@@@std@@@std@@V?$allocator@V?$_List_unchecked_iterator@V?$_List_val@U?$_List_simple_types@U?$pair@QADPAD@std@@@std@@@std@@@std@@@2@@std@@QAEXIABV?$_List_unchecked_iterator@V?$_List_val@U?$_List_simple_types@U?$pair@QADPAD@std@@@std@@@std@@@2@@Z 10027470 f i Hooks.obj
 0001:00026470       ?assign@?$vector@V?$_List_unchecked_iterator@V?$_List_val@U?$_List_simple_types@U?$pair@$$CBV?$basic_string@DU?$char_traits@D@std@@V?$allocator@D@2@@std@@V?$set@V?$basic_string@DU?$char_traits@D@std@@V?$allocator@D@2@@std@@U?$less@V?$basic_string@DU?$char_traits@D@std@@V?$allocator@D@2@@std@@@2@V?$allocator@V?$basic_string@DU?$char_traits@D@std@@V?$allocator@D@2@@std@@@2@@2@@std@@@std@@@std@@@std@@V?$allocator@V?$_List_unchecked_iterator@V?$_List_val@U?$_List_simple_types@U?$pair@$$CBV?$basic_string@DU?$char_traits@D@std@@V?$allocator@D@2@@std@@V?$set@V?$basic_string@DU?$char_traits@D@std@@V?$allocator@D@2@@std@@U?$less@V?$basic_string@DU?$char_traits@D@std@@V?$allocator@D@2@@std@@@2@V?$allocator@V?$basic_string@DU?$char_traits@D@std@@V?$allocator@D@2@@std@@@2@@2@@std@@@std@@@std@@@std@@@2@@std@@QAEXIABV?$_List_unchecked_iterator@V?$_List_val@U?$_List_simple_types@U?$pair@$$CBV?$basic_string@DU?$char_traits@D@std@@V?$allocator@D@2@@std@@V?$set@V?$basic_string@DU?$char_traits@D@std@@V?$allocator@D@2@@std@@U?$less@V?$basic_string@DU?$char_traits@D@std@@V?$allocator@D@2@@std@@@2@V?$allocator@V?$basic_string@DU?$char_traits@D@std@@V?$allocator@D@2@@std@@@2@@2@@std@@@std@@@std@@@2@@Z 10027470 f i Configuration.obj
 0001:00026470       ?assign@?$vector@V?$_List_unchecked_iterator@V?$_List_val@U?$_List_simple_types@U?$pair@$$CBV?$basic_string@DU?$char_traits@D@std@@V?$allocator@D@2@@std@@UskinInfo@@@std@@@std@@@std@@@std@@V?$allocator@V?$_List_unchecked_iterator@V?$_List_val@U?$_List_simple_types@U?$pair@$$CBV?$basic_string@DU?$char_traits@D@std@@V?$allocator@D@2@@std@@UskinInfo@@@std@@@std@@@std@@@std@@@2@@std@@QAEXIABV?$_List_unchecked_iterator@V?$_List_val@U?$_List_simple_types@U?$pair@$$CBV?$basic_string@DU?$char_traits@D@std@@V?$allocator@D@2@@std@@UskinInfo@@@std@@@std@@@std@@@2@@Z 10027470 f i Configuration.obj
 0001:00026600       ?begin@?$_Tree@V?$_Tset_traits@V?$basic_string@DU?$char_traits@D@std@@V?$allocator@D@2@@std@@U?$less@V?$basic_string@DU?$char_traits@D@std@@V?$allocator@D@2@@std@@@2@V?$allocator@V?$basic_string@DU?$char_traits@D@std@@V?$allocator@D@2@@std@@@2@$0A@@std@@@std@@QAE?AV?$_Tree_const_iterator@V?$_Tree_val@U?$_Tree_simple_types@V?$basic_string@DU?$char_traits@D@std@@V?$allocator@D@2@@std@@@std@@@std@@@2@XZ 10027600 f i Configuration.obj
 0001:00026660       ?capacity@?$basic_string@DU?$char_traits@D@std@@V?$allocator@D@2@@std@@QBEIXZ 10027660 f i Configuration.obj
 0001:00026680       ?capacity@?$vector@HV?$allocator@H@std@@@std@@QBEIXZ 10027680 f i LegitBot.obj
 0001:00026680       ?capacity@?$vector@PAURecvTable@@V?$allocator@PAURecvTable@@@std@@@std@@QBEIXZ 10027680 f i NetVarManager.obj
 0001:00026680       ?capacity@?$vector@V?$_List_unchecked_iterator@V?$_List_val@U?$_List_simple_types@U?$pair@$$CBV?$basic_string@DU?$char_traits@D@std@@V?$allocator@D@2@@std@@UskinInfo@@@std@@@std@@@std@@@std@@V?$allocator@V?$_List_unchecked_iterator@V?$_List_val@U?$_List_simple_types@U?$pair@$$CBV?$basic_string@DU?$char_traits@D@std@@V?$allocator@D@2@@std@@UskinInfo@@@std@@@std@@@std@@@std@@@2@@std@@QBEIXZ 10027680 f i Configuration.obj
 0001:00026680       ?capacity@?$vector@PAV?$ConfigValue@_N@@V?$allocator@PAV?$ConfigValue@_N@@@std@@@std@@QBEIXZ 10027680 f i Configuration.obj
 0001:00026680       ?capacity@?$vector@V?$_List_unchecked_iterator@V?$_List_val@U?$_List_simple_types@U?$pair@$$CBV?$basic_string@DU?$char_traits@D@std@@V?$allocator@D@2@@std@@V12@@std@@@std@@@std@@@std@@V?$allocator@V?$_List_unchecked_iterator@V?$_List_val@U?$_List_simple_types@U?$pair@$$CBV?$basic_string@DU?$char_traits@D@std@@V?$allocator@D@2@@std@@V12@@std@@@std@@@std@@@std@@@2@@std@@QBEIXZ 10027680 f i Configuration.obj
 0001:00026680       ?capacity@?$vector@PAV?$ConfigValue@H@@V?$allocator@PAV?$ConfigValue@H@@@std@@@std@@QBEIXZ 10027680 f i Configuration.obj
 0001:00026680       ?capacity@?$vector@PAV?$ConfigValue@M@@V?$allocator@PAV?$ConfigValue@M@@@std@@@std@@QBEIXZ 10027680 f i Configuration.obj
 0001:00026680       ?capacity@?$vector@V?$_List_unchecked_iterator@V?$_List_val@U?$_List_simple_types@U?$pair@QADPAD@std@@@std@@@std@@@std@@V?$allocator@V?$_List_unchecked_iterator@V?$_List_val@U?$_List_simple_types@U?$pair@QADPAD@std@@@std@@@std@@@std@@@2@@std@@QBEIXZ 10027680 f i Hooks.obj
 0001:00026680       ?capacity@?$vector@V?$_List_unchecked_iterator@V?$_List_val@U?$_List_simple_types@U?$pair@$$CBV?$basic_string@DU?$char_traits@D@std@@V?$allocator@D@2@@std@@V?$set@V?$basic_string@DU?$char_traits@D@std@@V?$allocator@D@2@@std@@U?$less@V?$basic_string@DU?$char_traits@D@std@@V?$allocator@D@2@@std@@@2@V?$allocator@V?$basic_string@DU?$char_traits@D@std@@V?$allocator@D@2@@std@@@2@@2@@std@@@std@@@std@@@std@@V?$allocator@V?$_List_unchecked_iterator@V?$_List_val@U?$_List_simple_types@U?$pair@$$CBV?$basic_string@DU?$char_traits@D@std@@V?$allocator@D@2@@std@@V?$set@V?$basic_string@DU?$char_traits@D@std@@V?$allocator@D@2@@std@@U?$less@V?$basic_string@DU?$char_traits@D@std@@V?$allocator@D@2@@std@@@2@V?$allocator@V?$basic_string@DU?$char_traits@D@std@@V?$allocator@D@2@@std@@@2@@2@@std@@@std@@@std@@@std@@@2@@std@@QBEIXZ 10027680 f i Configuration.obj
 0001:000266b0       ?capacity@?$vector@V?$basic_string@DU?$char_traits@D@std@@V?$allocator@D@2@@std@@V?$allocator@V?$basic_string@DU?$char_traits@D@std@@V?$allocator@D@2@@std@@@2@@std@@QBEIXZ 100276b0 f i Configuration.obj
 0001:000266e0       ?clear@?$_Tree@V?$_Tset_traits@V?$basic_string@DU?$char_traits@D@std@@V?$allocator@D@2@@std@@U?$less@V?$basic_string@DU?$char_traits@D@std@@V?$allocator@D@2@@std@@@2@V?$allocator@V?$basic_string@DU?$char_traits@D@std@@V?$allocator@D@2@@std@@@2@$0A@@std@@@std@@QAEXXZ 100276e0 f i Configuration.obj
 0001:00026780       ?clear@?$list@U?$pair@$$CBV?$basic_string@DU?$char_traits@D@std@@V?$allocator@D@2@@std@@UskinInfo@@@std@@V?$allocator@U?$pair@$$CBV?$basic_string@DU?$char_traits@D@std@@V?$allocator@D@2@@std@@UskinInfo@@@std@@@2@@std@@QAEXXZ 10027780 f i Configuration.obj
 0001:00026840       ?clear@?$list@U?$pair@$$CBV?$basic_string@DU?$char_traits@D@std@@V?$allocator@D@2@@std@@V12@@std@@V?$allocator@U?$pair@$$CBV?$basic_string@DU?$char_traits@D@std@@V?$allocator@D@2@@std@@V12@@std@@@2@@std@@QAEXXZ 10027840 f i Configuration.obj
 0001:00026900       ?clear@?$list@U?$pair@$$CBV?$basic_string@DU?$char_traits@D@std@@V?$allocator@D@2@@std@@V?$set@V?$basic_string@DU?$char_traits@D@std@@V?$allocator@D@2@@std@@U?$less@V?$basic_string@DU?$char_traits@D@std@@V?$allocator@D@2@@std@@@2@V?$allocator@V?$basic_string@DU?$char_traits@D@std@@V?$allocator@D@2@@std@@@2@@2@@std@@V?$allocator@U?$pair@$$CBV?$basic_string@DU?$char_traits@D@std@@V?$allocator@D@2@@std@@V?$set@V?$basic_string@DU?$char_traits@D@std@@V?$allocator@D@2@@std@@U?$less@V?$basic_string@DU?$char_traits@D@std@@V?$allocator@D@2@@std@@@2@V?$allocator@V?$basic_string@DU?$char_traits@D@std@@V?$allocator@D@2@@std@@@2@@2@@std@@@2@@std@@QAEXXZ 10027900 f i Configuration.obj
 0001:000269c0       ?deallocate@?$allocator@U?$_List_node@U?$pair@$$CBV?$basic_string@DU?$char_traits@D@std@@V?$allocator@D@2@@std@@UskinInfo@@@std@@PAX@std@@@std@@QAEXQAU?$_List_node@U?$pair@$$CBV?$basic_string@DU?$char_traits@D@std@@V?$allocator@D@2@@std@@UskinInfo@@@std@@PAX@2@I@Z 100279c0 f i Configuration.obj
 0001:000269e0       ?deallocate@?$allocator@U?$_List_node@U?$pair@$$CBV?$basic_string@DU?$char_traits@D@std@@V?$allocator@D@2@@std@@V12@@std@@PAX@std@@@std@@QAEXQAU?$_List_node@U?$pair@$$CBV?$basic_string@DU?$char_traits@D@std@@V?$allocator@D@2@@std@@V12@@std@@PAX@2@I@Z 100279e0 f i Configuration.obj
 0001:00026a00       ?deallocate@?$allocator@U?$_Tree_node@V?$basic_string@DU?$char_traits@D@std@@V?$allocator@D@2@@std@@PAX@std@@@std@@QAEXQAU?$_Tree_node@V?$basic_string@DU?$char_traits@D@std@@V?$allocator@D@2@@std@@PAX@2@I@Z 10027a00 f i Configuration.obj
 0001:00026a00       ?deallocate@?$allocator@U?$_List_node@U?$pair@$$CBV?$basic_string@DU?$char_traits@D@std@@V?$allocator@D@2@@std@@V?$set@V?$basic_string@DU?$char_traits@D@std@@V?$allocator@D@2@@std@@U?$less@V?$basic_string@DU?$char_traits@D@std@@V?$allocator@D@2@@std@@@2@V?$allocator@V?$basic_string@DU?$char_traits@D@std@@V?$allocator@D@2@@std@@@2@@2@@std@@PAX@std@@@std@@QAEXQAU?$_List_node@U?$pair@$$CBV?$basic_string@DU?$char_traits@D@std@@V?$allocator@D@2@@std@@V?$set@V?$basic_string@DU?$char_traits@D@std@@V?$allocator@D@2@@std@@U?$less@V?$basic_string@DU?$char_traits@D@std@@V?$allocator@D@2@@std@@@2@V?$allocator@V?$basic_string@DU?$char_traits@D@std@@V?$allocator@D@2@@std@@@2@@2@@std@@PAX@2@I@Z 10027a00 f i Configuration.obj
 0001:00026a20       ?deallocate@?$allocator@PAV?$ConfigValue@_N@@@std@@QAEXQAPAV?$ConfigValue@_N@@I@Z 10027a20 f i Configuration.obj
 0001:00026a20       ?deallocate@?$allocator@PAV?$ConfigValue@M@@@std@@QAEXQAPAV?$ConfigValue@M@@I@Z 10027a20 f i Configuration.obj
 0001:00026a20       ?deallocate@?$allocator@PAV?$ConfigValue@H@@@std@@QAEXQAPAV?$ConfigValue@H@@I@Z 10027a20 f i Configuration.obj
 0001:00026a20       ?deallocate@?$allocator@PAV?$shared_ptr@VNode@valve_parser@@@std@@@std@@QAEXQAPAV?$shared_ptr@VNode@valve_parser@@@2@I@Z 10027a20 f i Hooks.obj
 0001:00026a20       ?deallocate@?$allocator@V?$_List_unchecked_iterator@V?$_List_val@U?$_List_simple_types@U?$pair@QADPAD@std@@@std@@@std@@@std@@@std@@QAEXQAV?$_List_unchecked_iterator@V?$_List_val@U?$_List_simple_types@U?$pair@QADPAD@std@@@std@@@std@@@2@I@Z 10027a20 f i Hooks.obj
 0001:00026a20       ?deallocate@?$allocator@V?$_List_unchecked_iterator@V?$_List_val@U?$_List_simple_types@U?$pair@$$CBV?$basic_string@DU?$char_traits@D@std@@V?$allocator@D@2@@std@@UskinInfo@@@std@@@std@@@std@@@std@@@std@@QAEXQAV?$_List_unchecked_iterator@V?$_List_val@U?$_List_simple_types@U?$pair@$$CBV?$basic_string@DU?$char_traits@D@std@@V?$allocator@D@2@@std@@UskinInfo@@@std@@@std@@@std@@@2@I@Z 10027a20 f i Configuration.obj
 0001:00026a20       ?deallocate@?$allocator@H@std@@QAEXQAHI@Z 10027a20 f i LegitBot.obj
 0001:00026a20       ?deallocate@?$allocator@V?$_List_unchecked_iterator@V?$_List_val@U?$_List_simple_types@U?$pair@$$CBV?$basic_string@DU?$char_traits@D@std@@V?$allocator@D@2@@std@@V12@@std@@@std@@@std@@@std@@@std@@QAEXQAV?$_List_unchecked_iterator@V?$_List_val@U?$_List_simple_types@U?$pair@$$CBV?$basic_string@DU?$char_traits@D@std@@V?$allocator@D@2@@std@@V12@@std@@@std@@@std@@@2@I@Z 10027a20 f i Configuration.obj
 0001:00026a20       ?deallocate@?$allocator@V?$_List_unchecked_iterator@V?$_List_val@U?$_List_simple_types@U?$pair@$$CBV?$basic_string@DU?$char_traits@D@std@@V?$allocator@D@2@@std@@V?$set@V?$basic_string@DU?$char_traits@D@std@@V?$allocator@D@2@@std@@U?$less@V?$basic_string@DU?$char_traits@D@std@@V?$allocator@D@2@@std@@@2@V?$allocator@V?$basic_string@DU?$char_traits@D@std@@V?$allocator@D@2@@std@@@2@@2@@std@@@std@@@std@@@std@@@std@@QAEXQAV?$_List_unchecked_iterator@V?$_List_val@U?$_List_simple_types@U?$pair@$$CBV?$basic_string@DU?$char_traits@D@std@@V?$allocator@D@2@@std@@V?$set@V?$basic_string@DU?$char_traits@D@std@@V?$allocator@D@2@@std@@U?$less@V?$basic_string@DU?$char_traits@D@std@@V?$allocator@D@2@@std@@@2@V?$allocator@V?$basic_string@DU?$char_traits@D@std@@V?$allocator@D@2@@std@@@2@@2@@std@@@std@@@std@@@2@I@Z 10027a20 f i Configuration.obj
 0001:00026a20       ?deallocate@?$allocator@PAURecvTable@@@std@@QAEXQAPAURecvTable@@I@Z 10027a20 f i NetVarManager.obj
 0001:00026a40       ?deallocate@?$allocator@V?$basic_string@DU?$char_traits@D@std@@V?$allocator@D@2@@std@@@std@@QAEXQAV?$basic_string@DU?$char_traits@D@std@@V?$allocator@D@2@@2@I@Z 10027a40 f i Configuration.obj
 0001:00026a60       ?end@?$_Tree@V?$_Tmap_traits@W4ItemDefinitionIndexx@@UDefItem_t@@U?$less@W4ItemDefinitionIndexx@@@std@@V?$allocator@U?$pair@$$CBW4ItemDefinitionIndexx@@UDefItem_t@@@std@@@4@$0A@@std@@@std@@QBE?AV?$_Tree_const_iterator@V?$_Tree_val@U?$_Tree_simple_types@U?$pair@$$CBW4ItemDefinitionIndexx@@UDefItem_t@@@std@@@std@@@std@@@2@XZ 10027a60 f i Hooks.obj
 0001:00026a60       ?end@?$_Tree@V?$_Tset_traits@V?$basic_string@DU?$char_traits@D@std@@V?$allocator@D@2@@std@@U?$less@V?$basic_string@DU?$char_traits@D@std@@V?$allocator@D@2@@std@@@2@V?$allocator@V?$basic_string@DU?$char_traits@D@std@@V?$allocator@D@2@@std@@@2@$0A@@std@@@std@@QAE?AV?$_Tree_const_iterator@V?$_Tree_val@U?$_Tree_simple_types@V?$basic_string@DU?$char_traits@D@std@@V?$allocator@D@2@@std@@@std@@@std@@@2@XZ 10027a60 f i Configuration.obj
 0001:00026ac0       ?erase@?$_Tree@V?$_Tset_traits@V?$basic_string@DU?$char_traits@D@std@@V?$allocator@D@2@@std@@U?$less@V?$basic_string@DU?$char_traits@D@std@@V?$allocator@D@2@@std@@@2@V?$allocator@V?$basic_string@DU?$char_traits@D@std@@V?$allocator@D@2@@std@@@2@$0A@@std@@@std@@QAE?AV?$_Tree_const_iterator@V?$_Tree_val@U?$_Tree_simple_types@V?$basic_string@DU?$char_traits@D@std@@V?$allocator@D@2@@std@@@std@@@std@@@2@V32@0@Z 10027ac0 f i Configuration.obj
 0001:00026b80       ?erase@?$_Tree@V?$_Tset_traits@V?$basic_string@DU?$char_traits@D@std@@V?$allocator@D@2@@std@@U?$less@V?$basic_string@DU?$char_traits@D@std@@V?$allocator@D@2@@std@@@2@V?$allocator@V?$basic_string@DU?$char_traits@D@std@@V?$allocator@D@2@@std@@@2@$0A@@std@@@std@@QAE?AV?$_Tree_const_iterator@V?$_Tree_val@U?$_Tree_simple_types@V?$basic_string@DU?$char_traits@D@std@@V?$allocator@D@2@@std@@@std@@@std@@@2@V32@@Z 10027b80 f i Configuration.obj
 0001:00027030       ?insert@?$basic_string@DU?$char_traits@D@std@@V?$allocator@D@2@@std@@QAEAAV12@IABV12@@Z 10028030 f i Configuration.obj
 0001:00027070       ?insert@?$basic_string@DU?$char_traits@D@std@@V?$allocator@D@2@@std@@QAEAAV12@IQBDI@Z 10028070 f i Configuration.obj
 0001:00027190       ?max_size@?$_Default_allocator_traits@V?$allocator@PAURecvTable@@@std@@@std@@SAIABV?$allocator@PAURecvTable@@@2@@Z 10028190 f i NetVarManager.obj
 0001:00027190       ?max_size@?$_Default_allocator_traits@V?$allocator@PAV?$ConfigValue@H@@@std@@@std@@SAIABV?$allocator@PAV?$ConfigValue@H@@@2@@Z 10028190 f i Configuration.obj
 0001:00027190       ?max_size@?$_Default_allocator_traits@V?$allocator@V?$_List_unchecked_iterator@V?$_List_val@U?$_List_simple_types@U?$pair@$$CBV?$basic_string@DU?$char_traits@D@std@@V?$allocator@D@2@@std@@V12@@std@@@std@@@std@@@std@@@std@@@std@@SAIABV?$allocator@V?$_List_unchecked_iterator@V?$_List_val@U?$_List_simple_types@U?$pair@$$CBV?$basic_string@DU?$char_traits@D@std@@V?$allocator@D@2@@std@@V12@@std@@@std@@@std@@@std@@@2@@Z 10028190 f i Configuration.obj
 0001:00027190       ?max_size@?$_Default_allocator_traits@V?$allocator@PAV?$ConfigValue@_N@@@std@@@std@@SAIABV?$allocator@PAV?$ConfigValue@_N@@@2@@Z 10028190 f i Configuration.obj
 0001:00027190       ?max_size@?$_Default_allocator_traits@V?$allocator@PAV?$ConfigValue@M@@@std@@@std@@SAIABV?$allocator@PAV?$ConfigValue@M@@@2@@Z 10028190 f i Configuration.obj
 0001:00027190       ?max_size@?$_Default_allocator_traits@V?$allocator@V?$_List_unchecked_iterator@V?$_List_val@U?$_List_simple_types@U?$pair@QADPAD@std@@@std@@@std@@@std@@@std@@@std@@SAIABV?$allocator@V?$_List_unchecked_iterator@V?$_List_val@U?$_List_simple_types@U?$pair@QADPAD@std@@@std@@@std@@@std@@@2@@Z 10028190 f i Hooks.obj
 0001:00027190       ?max_size@?$_Default_allocator_traits@V?$allocator@H@std@@@std@@SAIABV?$allocator@H@2@@Z 10028190 f i LegitBot.obj
 0001:00027190       ?max_size@?$_Default_allocator_traits@V?$allocator@V?$_List_unchecked_iterator@V?$_List_val@U?$_List_simple_types@U?$pair@$$CBV?$basic_string@DU?$char_traits@D@std@@V?$allocator@D@2@@std@@UskinInfo@@@std@@@std@@@std@@@std@@@std@@@std@@SAIABV?$allocator@V?$_List_unchecked_iterator@V?$_List_val@U?$_List_simple_types@U?$pair@$$CBV?$basic_string@DU?$char_traits@D@std@@V?$allocator@D@2@@std@@UskinInfo@@@std@@@std@@@std@@@std@@@2@@Z 10028190 f i Configuration.obj
 0001:00027190       ?max_size@?$_Default_allocator_traits@V?$allocator@V?$_List_unchecked_iterator@V?$_List_val@U?$_List_simple_types@U?$pair@$$CBV?$basic_string@DU?$char_traits@D@std@@V?$allocator@D@2@@std@@V?$set@V?$basic_string@DU?$char_traits@D@std@@V?$allocator@D@2@@std@@U?$less@V?$basic_string@DU?$char_traits@D@std@@V?$allocator@D@2@@std@@@2@V?$allocator@V?$basic_string@DU?$char_traits@D@std@@V?$allocator@D@2@@std@@@2@@2@@std@@@std@@@std@@@std@@@std@@@std@@SAIABV?$allocator@V?$_List_unchecked_iterator@V?$_List_val@U?$_List_simple_types@U?$pair@$$CBV?$basic_string@DU?$char_traits@D@std@@V?$allocator@D@2@@std@@V?$set@V?$basic_string@DU?$char_traits@D@std@@V?$allocator@D@2@@std@@U?$less@V?$basic_string@DU?$char_traits@D@std@@V?$allocator@D@2@@std@@@2@V?$allocator@V?$basic_string@DU?$char_traits@D@std@@V?$allocator@D@2@@std@@@2@@2@@std@@@std@@@std@@@std@@@2@@Z 10028190 f i Configuration.obj
 0001:000271a0       ?push_back@?$vector@PAV?$ConfigValue@M@@V?$allocator@PAV?$ConfigValue@M@@@std@@@std@@QAEX$$QAPAV?$ConfigValue@M@@@Z 100281a0 f i Configuration.obj
 0001:000271a0       ?push_back@?$vector@HV?$allocator@H@std@@@std@@QAEX$$QAH@Z 100281a0 f i RageBot.obj
 0001:000271a0       ?push_back@?$vector@PAV?$ConfigValue@H@@V?$allocator@PAV?$ConfigValue@H@@@std@@@std@@QAEX$$QAPAV?$ConfigValue@H@@@Z 100281a0 f i Configuration.obj
 0001:000271a0       ?push_back@?$vector@PAV?$ConfigValue@_N@@V?$allocator@PAV?$ConfigValue@_N@@@std@@@std@@QAEX$$QAPAV?$ConfigValue@_N@@@Z 100281a0 f i Configuration.obj
 0001:000271d0       ?reserve@?$vector@V?$_List_unchecked_iterator@V?$_List_val@U?$_List_simple_types@U?$pair@QADPAD@std@@@std@@@std@@@std@@V?$allocator@V?$_List_unchecked_iterator@V?$_List_val@U?$_List_simple_types@U?$pair@QADPAD@std@@@std@@@std@@@std@@@2@@std@@QAEXI@Z 100281d0 f i Hooks.obj
 0001:000271d0       ?reserve@?$vector@V?$_List_unchecked_iterator@V?$_List_val@U?$_List_simple_types@U?$pair@$$CBV?$basic_string@DU?$char_traits@D@std@@V?$allocator@D@2@@std@@V?$set@V?$basic_string@DU?$char_traits@D@std@@V?$allocator@D@2@@std@@U?$less@V?$basic_string@DU?$char_traits@D@std@@V?$allocator@D@2@@std@@@2@V?$allocator@V?$basic_string@DU?$char_traits@D@std@@V?$allocator@D@2@@std@@@2@@2@@std@@@std@@@std@@@std@@V?$allocator@V?$_List_unchecked_iterator@V?$_List_val@U?$_List_simple_types@U?$pair@$$CBV?$basic_string@DU?$char_traits@D@std@@V?$allocator@D@2@@std@@V?$set@V?$basic_string@DU?$char_traits@D@std@@V?$allocator@D@2@@std@@U?$less@V?$basic_string@DU?$char_traits@D@std@@V?$allocator@D@2@@std@@@2@V?$allocator@V?$basic_string@DU?$char_traits@D@std@@V?$allocator@D@2@@std@@@2@@2@@std@@@std@@@std@@@std@@@2@@std@@QAEXI@Z 100281d0 f i Configuration.obj
 0001:000271d0       ?reserve@?$vector@V?$_List_unchecked_iterator@V?$_List_val@U?$_List_simple_types@U?$pair@$$CBV?$basic_string@DU?$char_traits@D@std@@V?$allocator@D@2@@std@@UskinInfo@@@std@@@std@@@std@@@std@@V?$allocator@V?$_List_unchecked_iterator@V?$_List_val@U?$_List_simple_types@U?$pair@$$CBV?$basic_string@DU?$char_traits@D@std@@V?$allocator@D@2@@std@@UskinInfo@@@std@@@std@@@std@@@std@@@2@@std@@QAEXI@Z 100281d0 f i Configuration.obj
 0001:000271d0       ?reserve@?$vector@V?$_List_unchecked_iterator@V?$_List_val@U?$_List_simple_types@U?$pair@$$CBV?$basic_string@DU?$char_traits@D@std@@V?$allocator@D@2@@std@@V12@@std@@@std@@@std@@@std@@V?$allocator@V?$_List_unchecked_iterator@V?$_List_val@U?$_List_simple_types@U?$pair@$$CBV?$basic_string@DU?$char_traits@D@std@@V?$allocator@D@2@@std@@V12@@std@@@std@@@std@@@std@@@2@@std@@QAEXI@Z 100281d0 f i Configuration.obj
 0001:00027210       ?resize@?$basic_string@DU?$char_traits@D@std@@V?$allocator@D@2@@std@@QAEXID@Z 10028210 f i Configuration.obj
 0001:00027260       ?length@?$basic_string@DU?$char_traits@D@std@@V?$allocator@D@2@@std@@QBEIXZ 10028260 f i Hooks.obj
 0001:00027260       ?size@?$basic_string@DU?$char_traits@D@std@@V?$allocator@D@2@@std@@QBEIXZ 10028260 f i Configuration.obj
 0001:00027280       ?to_string@std@@YA?AV?$basic_string@DU?$char_traits@D@std@@V?$allocator@D@2@@1@H@Z 10028280 f i Configuration.obj
 0001:000272b0       ?to_string@std@@YA?AV?$basic_string@DU?$char_traits@D@std@@V?$allocator@D@2@@1@M@Z 100282b0 f i Configuration.obj
 0001:000272f0       __scprintf                 100282f0 f i Configuration.obj
 0001:00027330       __vscprintf_l              10028330 f i Configuration.obj
 0001:00027380       ?on_dll_attach@@YA_NPAX@Z  10028380 f   DLLMain.obj
 0001:000273f0       ?on_dll_detach@@YA_NXZ     100283f0 f   DLLMain.obj
 0001:00027410       _DllMain@12                10028410 f   DLLMain.obj
 0001:00027460       ?rygzhilodfgnjsn@@YAHXZ    10028460 f   DLLMain.obj
 0001:000274d0       ?fvbnyhuakoqve@@YAHXZ      100284d0 f   DLLMain.obj
 0001:00027540       ?dqabwwulhoavj@@YAHXZ      10028540 f   DLLMain.obj
 0001:000275b0       ?StartPrediction@@YAXPAVCUserCmd@CInput@@@Z 100285b0 f   EnginePrediction.obj
 0001:00027730       ?EndPrediction@@YAXPAVCUserCmd@CInput@@@Z 10028730 f   EnginePrediction.obj
 0001:000277c0       ?kxxuqksknexxgkp@@YAHXZ    100287c0 f   EnginePrediction.obj
 0001:00027830       ?axduxbojxewc@@YAHXZ       10028830 f   EnginePrediction.obj
 0001:000278a0       ?dxneaarvonml@@YAHXZ       100288a0 f   EnginePrediction.obj
 0001:00027910       ??0CMoveData@@QAE@XZ       10028910 f i EnginePrediction.obj
 0001:000279a0       ?GetTickBase@C_BaseEntity@@QAEHXZ 100289a0 f i EnginePrediction.obj
 0001:000279d0       ??0visuals@@QAE@XZ         100289d0 f   ESP.obj
 0001:000279f0       ?OnPaintTraverse@visuals@@QAEXPAVC_BaseEntity@@@Z 100289f0 f   ESP.obj
 0001:00029030       ?DrawBox@visuals@@AAEXUtagRECT@@VColor@@@Z 1002a030 f   ESP.obj
 0001:000290f0       ?DrawCorners@visuals@@AAEXUtagRECT@@VColor@@@Z 1002a0f0 f   ESP.obj
 0001:00029500       ?ThreeDBox@visuals@@AAEXVVector@@00VColor@@@Z 1002a500 f   ESP.obj
 0001:00029920       ?DrawInfo@visuals@@AAEXUtagRECT@@PAVC_BaseEntity@@1@Z 1002a920 f   ESP.obj
 0001:0002a8c0       ?BulletTrace@visuals@@AAEXPAVC_BaseEntity@@VColor@@@Z 1002b8c0 f   ESP.obj
 0001:0002ab00       ?Skeleton@visuals@@AAEXPAVC_BaseEntity@@VColor@@@Z 1002bb00 f   ESP.obj
 0001:0002ac70       ?DrawSnapLine@visuals@@AAEXVVector@@VColor@@@Z 1002bc70 f   ESP.obj
 0001:0002ad00       ?DrawHealth@visuals@@AAEXUtagRECT@@PAVC_BaseEntity@@@Z 1002bd00 f   ESP.obj
 0001:0002af70       ?DrawAngles@visuals@@AAEXXZ 1002bf70 f   ESP.obj
 0001:0002b350       ?DrawAwall@visuals@@AAEXXZ 1002c350 f   ESP.obj
 0001:0002b4a0       ?DynamicBox@visuals@@AAE?AUtagRECT@@PAVC_BaseEntity@@AA_N0@Z 1002c4a0 f   ESP.obj
 0001:0002bd30       ?DLight@visuals@@AAEXPAVC_BaseEntity@@0@Z 1002cd30 f   ESP.obj
 0001:0002bfb0       ?Crosshair@visuals@@AAEXPAVC_BaseEntity@@@Z 1002cfb0 f   ESP.obj
 0001:0002c270       ?NightMode@visuals@@AAEXXZ 1002d270 f   ESP.obj
 0001:0002c700       ?Hitmarker@visuals@@AAEXXZ 1002d700 f   ESP.obj
 0001:0002c920       ?apcstngfnlcclwk@@YAHXZ    1002d920 f   ESP.obj
 0001:0002c990       ?rsnzhrmoi@@YAHXZ          1002d990 f   ESP.obj
 0001:0002ca00       ?aqwpzxphbqr@@YAHXZ        1002da00 f   ESP.obj
 0001:0002ca90       ??$?0$0A@$00$01$02$03$04$05$06$07$08@?$XorString@$09$0A@@XorCompileTime@@QAE@PBDU?$integer_sequence@I$0A@$00$01$02$03$04$05$06$07$08@std@@@Z 1002da90 f i ESP.obj
 0001:0002cbe0       ??$?0$0A@$00$01$02$03$04$05@?$XorString@$06$01@XorCompileTime@@QAE@PBDU?$integer_sequence@I$0A@$00$01$02$03$04$05@std@@@Z 1002dbe0 f i ESP.obj
 0001:0002cce0       ??$?0$0A@$00$01$02$03$04@?$XorString@$05$00@XorCompileTime@@QAE@PBDU?$integer_sequence@I$0A@$00$01$02$03$04@std@@@Z 1002dce0 f i ESP.obj
 0001:0002cdc0       ??$?HDU?$char_traits@D@std@@V?$allocator@D@1@@std@@YA?AV?$basic_string@DU?$char_traits@D@std@@V?$allocator@D@2@@0@QBD$$QAV10@@Z 1002ddc0 f i ESP.obj
 0001:0002d220       ??$max@H@std@@YAABHABH0@Z  1002e220 f i ESP.obj
 0001:0002d250       ??$sprintf_s@$0EA@@@YAHAAY0EA@DPBDZZ 1002e250 f i ESP.obj
 0001:0002d2e0       ??0Color@@QAE@HHH@Z        1002e2e0 f i ESP.obj
 0001:0002d310       ??0Color@@QAE@HHHH@Z       1002e310 f i ESP.obj
 0001:0002d340       ??0Ray_t@@QAE@XZ           1002e340 f i ESP.obj
 0001:0002d490       ??0Vector@@QAE@MMM@Z       1002e490 f i ESP.obj
 0001:0002d4d0       ??0VectorAligned@@QAE@ABVVector@@@Z 1002e4d0 f i ESP.obj
 0001:0002d510       ??0VectorAligned@@QAE@XZ   1002e510 f i ESP.obj
 0001:0002d550       ??0grenade_prediction@@QAE@XZ 1002e550 f i ESP.obj
 0001:0002d5d0       ??1?$vector@VVector@@V?$allocator@VVector@@@std@@@std@@QAE@XZ 1002e5d0 f i ESP.obj
 0001:0002d630       ??1grenade_prediction@@QAE@XZ 1002e630 f i ESP.obj
 0001:0002d650       ??4Color@@QAEAAV0@ABV0@@Z  1002e650 f i ESP.obj
 0001:0002d680       ??4VectorAligned@@QAEAAV0@$$QAV0@@Z 1002e680 f i ESP.obj
 0001:0002d6b0       ??AVector@@QAEAAMH@Z       1002e6b0 f i ESP.obj
 0001:0002d6d0       ??XVector@@QAEAAV0@M@Z     1002e6d0 f i ESP.obj
 0001:0002d720       ??YVector@@QAEAAV0@ABV0@@Z 1002e720 f i ESP.obj
 0001:0002d780       ??_GText@?1??DrawInfo@visuals@@AAEXUtagRECT@@PAVC_BaseEntity@@1@Z@QAEPAXI@Z 1002e780 f i ESP.obj
 0001:0002d7b0       ?Black@Color@@SA?AV1@XZ    1002e7b0 f i ESP.obj
 0001:0002d7d0       ?CL_AllocDlight@IVEffects@@QAEPAUdlight_t@@H@Z 1002e7d0 f i ESP.obj
 0001:0002d7d0       ?GetClientEntityFromHandle@C_BaseEntityList@@QAEPAVC_BaseEntity@@K@Z 1002e7d0 f i Hooks.obj
 0001:0002d800       ?CSGO_Armor@@YAMMH@Z       1002e800 f i ESP.obj
 0001:0002d8a0       ?ColorModulate@IMaterial@@QAEXMMM@Z 1002e8a0 f i ESP.obj
 0001:0002d8f0       ?DistTo@Vector@@QBEMABV1@@Z 1002e8f0 f i ESP.obj
 0001:0002d930       ?DrawLine@ISurface@@QAEXHHHH@Z 1002e930 f i ESP.obj
 0001:0002d960       ?DrawOutlinedRect@ISurface@@QAEXHHHH@Z 1002e960 f i ESP.obj
 0001:0002d990       ?DrawSetColor@ISurface@@QAEXHHHH@Z 1002e990 f i ESP.obj
 0001:0002d9c0       ?SetValue@ConVar@@QAEXPBD@Z 1002e9c0 f i ESP.obj
 0001:0002d9c0       ?DrawSetColor@ISurface@@QAEXVColor@@@Z 1002e9c0 f i ESP.obj
 0001:0002d9f0       ?FirstMaterial@CMaterialSystem@@QAEGXZ 1002e9f0 f i ESP.obj
 0001:0002da10       ?GetAimPunchAngle@CLocalPlayerExclusive@@QAE?AVVector@@XZ 1002ea10 f i ESP.obj
 0001:0002da40       ?GetArmorName@C_BaseEntity@@QAEPADXZ 1002ea40 f i ESP.obj
 0001:0002da80       ?GetBombDefuser@CCSBomb@@QAEHXZ 1002ea80 f i ESP.obj
 0001:0002daa0       ?GetBone@studiohdr_t@@QBEPAUmstudiobone_t@@H@Z 1002eaa0 f i ESP.obj
 0001:0002dad0       ?GetBonePos@C_BaseEntity@@QAE?AVVector@@H@Z 1002ead0 f i ESP.obj
 0001:0002dbf0       ?GetC4BlowTime@CCSBomb@@QAEMXZ 1002ebf0 f i ESP.obj
 0001:0002dc10       ?GetC4DefuseCountDown@CCSBomb@@QAEMXZ 1002ec10 f i ESP.obj
 0001:0002dc30       ?GetCallout@C_BaseEntity@@QAEPADXZ 1002ec30 f i ESP.obj
 0001:0002dc50       ?GetCollideable@IClientUnknown@@QAEPAVICollideable@@XZ 1002ec50 f i ESP.obj
 0001:0002dc70       ?GetColor@Color@@QBEXAAH000@Z 1002ec70 f i ESP.obj
 0001:0002dcd0       ?GetEyeAngles@C_BaseEntity@@QAEPAVVector@@XZ 1002ecd0 f i ESP.obj
 0001:0002dcf0       ?GetFlashDuration@C_BaseEntity@@QAEMXZ 1002ecf0 f i ESP.obj
 0001:0002dd10       ?GetGunName@CBaseCombatWeapon@@QAEPADXZ 1002ed10 f i ESP.obj
 0001:0002e080       ?GetInaccuracy@CBaseCombatWeapon@@QAEMXZ 1002f080 f i ESP.obj
 0001:0002e0b0       ?GetItemDefinitionIndex@CBaseAttributableItem@@QAEHXZ 1002f0b0 f i ESP.obj
 0001:0002e0d0       ?GetMaterial@CMaterialSystem@@QAEPAVIMaterial@@G@Z 1002f0d0 f i ESP.obj
 0001:0002e100       ?GetModelMaterials@CModelInfo@@QAEXPBUmodel_t@@HPAPAVIMaterial@@@Z 1002f100 f i ESP.obj
 0001:0002e130       ?GetName@IMaterial@@QAEPBDXZ 1002f130 f i ESP.obj
 0001:0002e150       ?GetPlayerInfo@IVEngineClient@@QAE_NHPAUplayer_info_s@@@Z 1002f150 f i ESP.obj
 0001:0002e180       ?GetScreenSize@IVEngineClient@@QAEXAAH0@Z 1002f180 f i ESP.obj
 0001:0002e1b0       ?GetSimulationTime@C_BaseEntity@@QAEMXZ 1002f1b0 f i ESP.obj
 0001:0002e1d0       ?GetSpread@CBaseCombatWeapon@@QAEMXZ 1002f1d0 f i ESP.obj
 0001:0002e200       ?GetStudiomodel@CModelInfo@@QAEPAUstudiohdr_t@@PBUmodel_t@@@Z 1002f200 f i ESP.obj
 0001:0002e230       ?Green@Color@@SA?AV1@XZ    1002f230 f i ESP.obj
 0001:0002e250       ?Init@Ray_t@@QAEXABVVector@@0@Z 1002f250 f i ESP.obj
 0001:0002e330       ?InvalidMaterial@CMaterialSystem@@QAEGXZ 1002f330 f i ESP.obj
 0001:0002e350       ?IsBombDefused@CCSBomb@@QAE_NXZ 1002f350 f i ESP.obj
 0001:0002e370       ?IsFlashed@C_BaseEntity@@QAE_NXZ 1002f370 f i ESP.obj
 0001:0002e3b0       ?IsInReload@CBaseCombatWeapon@@QAE_NXZ 1002f3b0 f i ESP.obj
 0001:0002e3d0       ?IsKnife@CBaseCombatWeapon@@QAE_NXZ 1002f3d0 f i ESP.obj
 0001:0002e460       ?IsScoped@C_BaseEntity@@QAE_NXZ 1002f460 f i ESP.obj
 0001:0002e480       ?LengthSqr@Vector@@QBEMXZ  1002f480 f i ESP.obj
 0001:0002e4d0       ?NextMaterial@CMaterialSystem@@QAEGG@Z 1002f4d0 f i ESP.obj
 0001:0002e500       ?ScreenPosition@IVDebugOverlay@@QAEHABVVector@@AAV2@@Z 1002f500 f i ESP.obj
 0001:0002e530       ?SetColor@Color@@QAEXHHHH@Z 1002f530 f i ESP.obj
 0001:0002e580       ?SetMaterialVarFlag@IMaterial@@QAEXW4MaterialVarFlags_t@@_N@Z 1002f580 f i ESP.obj
 0001:0002e5b0       ?SetRawColor@Color@@QAEXH@Z 1002f5b0 f i ESP.obj
 0001:0002e5d0       ?SetValue@ConVar@@QAEXH@Z  1002f5d0 f i ESP.obj
 0001:0002e600       ?SetupBones@IClientRenderable@@QAE_NPAY123MHHM@Z 1002f600 f i ESP.obj
 0001:0002e640       ?TraceRay@IEngineTrace@@QAEXABURay_t@@IPAVITraceFilter@@PAVCGameTrace@@@Z 1002f640 f i ESP.obj
 0001:0002e850       ?_Mylast@?$_Vector_alloc@U?$_Vec_base_types@PAV?$ConfigValue@_N@@V?$allocator@PAV?$ConfigValue@_N@@@std@@@std@@@std@@QAEAAPAPAV?$ConfigValue@_N@@XZ 1002f850 f i Configuration.obj
 0001:0002e850       ?_Mysize@?$_List_alloc@U?$_List_base_types@U?$pair@$$CBV?$basic_string@DU?$char_traits@D@std@@V?$allocator@D@2@@std@@V?$set@V?$basic_string@DU?$char_traits@D@std@@V?$allocator@D@2@@std@@U?$less@V?$basic_string@DU?$char_traits@D@std@@V?$allocator@D@2@@std@@@2@V?$allocator@V?$basic_string@DU?$char_traits@D@std@@V?$allocator@D@2@@std@@@2@@2@@std@@V?$allocator@U?$pair@$$CBV?$basic_string@DU?$char_traits@D@std@@V?$allocator@D@2@@std@@V?$set@V?$basic_string@DU?$char_traits@D@std@@V?$allocator@D@2@@std@@U?$less@V?$basic_string@DU?$char_traits@D@std@@V?$allocator@D@2@@std@@@2@V?$allocator@V?$basic_string@DU?$char_traits@D@std@@V?$allocator@D@2@@std@@@2@@2@@std@@@2@@std@@@std@@QAEAAIXZ 1002f850 f i Configuration.obj
 0001:0002e850       ?_Mylast@?$_Vector_alloc@U?$_Vec_base_types@V?$_List_unchecked_iterator@V?$_List_val@U?$_List_simple_types@U?$pair@$$CBV?$basic_string@DU?$char_traits@D@std@@V?$allocator@D@2@@std@@V12@@std@@@std@@@std@@@std@@V?$allocator@V?$_List_unchecked_iterator@V?$_List_val@U?$_List_simple_types@U?$pair@$$CBV?$basic_string@DU?$char_traits@D@std@@V?$allocator@D@2@@std@@V12@@std@@@std@@@std@@@std@@@2@@std@@@std@@QAEAAPAV?$_List_unchecked_iterator@V?$_List_val@U?$_List_simple_types@U?$pair@$$CBV?$basic_string@DU?$char_traits@D@std@@V?$allocator@D@2@@std@@V12@@std@@@std@@@std@@@2@XZ 1002f850 f i Configuration.obj
 0001:0002e850       ?_Mylast@?$_Vector_alloc@U?$_Vec_base_types@PAURecvTable@@V?$allocator@PAURecvTable@@@std@@@std@@@std@@QAEAAPAPAURecvTable@@XZ 1002f850 f i NetVarManager.obj
 0001:0002e850       ?_Mylast@?$_Vector_alloc@U?$_Vec_base_types@VVector@@V?$allocator@VVector@@@std@@@std@@@std@@QBEABQAVVector@@XZ 1002f850 f i GrenadePrediction.obj
 0001:0002e850       ?_Mylast@?$_Vector_alloc@U?$_Vec_base_types@PAV?$ConfigValue@H@@V?$allocator@PAV?$ConfigValue@H@@@std@@@std@@@std@@QAEAAPAPAV?$ConfigValue@H@@XZ 1002f850 f i Configuration.obj
 0001:0002e850       ?_Mylast@?$_Vector_alloc@U?$_Vec_base_types@PAV?$ConfigValue@M@@V?$allocator@PAV?$ConfigValue@M@@@std@@@std@@@std@@QBEABQAPAV?$ConfigValue@M@@XZ 1002f850 f i Configuration.obj
 0001:0002e850       ?_Mylast@?$_Vector_alloc@U?$_Vec_base_types@V?$_List_unchecked_iterator@V?$_List_val@U?$_List_simple_types@U?$pair@$$CBV?$basic_string@DU?$char_traits@D@std@@V?$allocator@D@2@@std@@UskinInfo@@@std@@@std@@@std@@@std@@V?$allocator@V?$_List_unchecked_iterator@V?$_List_val@U?$_List_simple_types@U?$pair@$$CBV?$basic_string@DU?$char_traits@D@std@@V?$allocator@D@2@@std@@UskinInfo@@@std@@@std@@@std@@@std@@@2@@std@@@std@@QAEAAPAV?$_List_unchecked_iterator@V?$_List_val@U?$_List_simple_types@U?$pair@$$CBV?$basic_string@DU?$char_traits@D@std@@V?$allocator@D@2@@std@@UskinInfo@@@std@@@std@@@std@@@2@XZ 1002f850 f i Configuration.obj
 0001:0002e850       ?_Mylast@?$_Vector_alloc@U?$_Vec_base_types@V?$shared_ptr@VNode@valve_parser@@@std@@V?$allocator@V?$shared_ptr@VNode@valve_parser@@@std@@@2@@std@@@std@@QBEABQAV?$shared_ptr@VNode@valve_parser@@@2@XZ 1002f850 f i Parser.obj
 0001:0002e850       ?_Mysize@?$_List_alloc@U?$_List_base_types@U?$pair@$$CBV?$basic_string@DU?$char_traits@D@std@@V?$allocator@D@2@@std@@UskinInfo@@@std@@V?$allocator@U?$pair@$$CBV?$basic_string@DU?$char_traits@D@std@@V?$allocator@D@2@@std@@UskinInfo@@@std@@@2@@std@@@std@@QBEABIXZ 1002f850 f i Hooks.obj
 0001:0002e850       ?_Mylast@?$_Vector_alloc@U?$_Vec_base_types@V?$shared_ptr@VNode@valve_parser@@@std@@V?$allocator@V?$shared_ptr@VNode@valve_parser@@@std@@@2@@std@@@std@@QAEAAPAV?$shared_ptr@VNode@valve_parser@@@2@XZ 1002f850 f i Parser.obj
 0001:0002e850       ?_Mylast@?$_Vector_alloc@U?$_Vec_base_types@VVector@@V?$allocator@VVector@@@std@@@std@@@std@@QAEAAPAVVector@@XZ 1002f850 f i ESP.obj
 0001:0002e850       ?_Mysize@?$_List_alloc@U?$_List_base_types@U?$pair@$$CBV?$basic_string@DU?$char_traits@D@std@@V?$allocator@D@2@@std@@V12@@std@@V?$allocator@U?$pair@$$CBV?$basic_string@DU?$char_traits@D@std@@V?$allocator@D@2@@std@@V12@@std@@@2@@std@@@std@@QBEABIXZ 1002f850 f i Hooks.obj
 0001:0002e850       ?_Mysize@?$_List_alloc@U?$_List_base_types@U?$pair@$$CBV?$basic_string@DU?$char_traits@D@std@@V?$allocator@D@2@@std@@V?$set@V?$basic_string@DU?$char_traits@D@std@@V?$allocator@D@2@@std@@U?$less@V?$basic_string@DU?$char_traits@D@std@@V?$allocator@D@2@@std@@@2@V?$allocator@V?$basic_string@DU?$char_traits@D@std@@V?$allocator@D@2@@std@@@2@@2@@std@@V?$allocator@U?$pair@$$CBV?$basic_string@DU?$char_traits@D@std@@V?$allocator@D@2@@std@@V?$set@V?$basic_string@DU?$char_traits@D@std@@V?$allocator@D@2@@std@@U?$less@V?$basic_string@DU?$char_traits@D@std@@V?$allocator@D@2@@std@@@2@V?$allocator@V?$basic_string@DU?$char_traits@D@std@@V?$allocator@D@2@@std@@@2@@2@@std@@@2@@std@@@std@@QBEABIXZ 1002f850 f i Hooks.obj
 0001:0002e850       ?_Mysize@?$_List_alloc@U?$_List_base_types@U?$pair@$$CBV?$basic_string@DU?$char_traits@D@std@@V?$allocator@D@2@@std@@V12@@std@@V?$allocator@U?$pair@$$CBV?$basic_string@DU?$char_traits@D@std@@V?$allocator@D@2@@std@@V12@@std@@@2@@std@@@std@@QAEAAIXZ 1002f850 f i Configuration.obj
 0001:0002e850       ?_Mysize@?$_List_alloc@U?$_List_base_types@U?$pair@QADPAD@std@@V?$allocator@U?$pair@QADPAD@std@@@2@@std@@@std@@QAEAAIXZ 1002f850 f i Hooks.obj
 0001:0002e850       ?_Mylast@?$_Vector_alloc@U?$_Vec_base_types@V?$_List_unchecked_iterator@V?$_List_val@U?$_List_simple_types@U?$pair@QADPAD@std@@@std@@@std@@@std@@V?$allocator@V?$_List_unchecked_iterator@V?$_List_val@U?$_List_simple_types@U?$pair@QADPAD@std@@@std@@@std@@@std@@@2@@std@@@std@@QAEAAPAV?$_List_unchecked_iterator@V?$_List_val@U?$_List_simple_types@U?$pair@QADPAD@std@@@std@@@std@@@2@XZ 1002f850 f i Hooks.obj
 0001:0002e850       ?_Mylast@?$_Vector_alloc@U?$_Vec_base_types@HV?$allocator@H@std@@@std@@@std@@QAEAAPAHXZ 1002f850 f i LegitBot.obj
 0001:0002e850       ?_Mylast@?$_Vector_alloc@U?$_Vec_base_types@PAV?$ConfigValue@H@@V?$allocator@PAV?$ConfigValue@H@@@std@@@std@@@std@@QBEABQAPAV?$ConfigValue@H@@XZ 1002f850 f i Configuration.obj
 0001:0002e850       ?_Map@?$_Deque_alloc@U?$_Deque_base_types@V?$shared_ptr@VNode@valve_parser@@@std@@V?$allocator@V?$shared_ptr@VNode@valve_parser@@@std@@@2@@std@@@std@@QAEAAPAPAV?$shared_ptr@VNode@valve_parser@@@2@XZ 1002f850 f i Hooks.obj
 0001:0002e850       ?_Mylast@?$_Vector_alloc@U?$_Vec_base_types@PAV?$ConfigValue@_N@@V?$allocator@PAV?$ConfigValue@_N@@@std@@@std@@@std@@QBEABQAPAV?$ConfigValue@_N@@XZ 1002f850 f i Configuration.obj
 0001:0002e850       ?_Mylast@?$_Vector_alloc@U?$_Vec_base_types@EV?$allocator@E@std@@@std@@@std@@QBEABQAEXZ 1002f850 f i Utilities.obj
 0001:0002e850       ?_Mylast@?$_Vector_alloc@U?$_Vec_base_types@V?$_List_unchecked_iterator@V?$_List_val@U?$_List_simple_types@U?$pair@$$CBV?$basic_string@DU?$char_traits@D@std@@V?$allocator@D@2@@std@@V?$set@V?$basic_string@DU?$char_traits@D@std@@V?$allocator@D@2@@std@@U?$less@V?$basic_string@DU?$char_traits@D@std@@V?$allocator@D@2@@std@@@2@V?$allocator@V?$basic_string@DU?$char_traits@D@std@@V?$allocator@D@2@@std@@@2@@2@@std@@@std@@@std@@@std@@V?$allocator@V?$_List_unchecked_iterator@V?$_List_val@U?$_List_simple_types@U?$pair@$$CBV?$basic_string@DU?$char_traits@D@std@@V?$allocator@D@2@@std@@V?$set@V?$basic_string@DU?$char_traits@D@std@@V?$allocator@D@2@@std@@U?$less@V?$basic_string@DU?$char_traits@D@std@@V?$allocator@D@2@@std@@@2@V?$allocator@V?$basic_string@DU?$char_traits@D@std@@V?$allocator@D@2@@std@@@2@@2@@std@@@std@@@std@@@std@@@2@@std@@@std@@QBEABQAV?$_List_unchecked_iterator@V?$_List_val@U?$_List_simple_types@U?$pair@$$CBV?$basic_string@DU?$char_traits@D@std@@V?$allocator@D@2@@std@@V?$set@V?$basic_string@DU?$char_traits@D@std@@V?$allocator@D@2@@std@@U?$less@V?$basic_string@DU?$char_traits@D@std@@V?$allocator@D@2@@std@@@2@V?$allocator@V?$basic_string@DU?$char_traits@D@std@@V?$allocator@D@2@@std@@@2@@2@@std@@@std@@@std@@@2@XZ 1002f850 f i Configuration.obj
 0001:0002e850       ?_Mylast@?$_Vector_alloc@U?$_Vec_base_types@V?$_List_unchecked_iterator@V?$_List_val@U?$_List_simple_types@U?$pair@QADPAD@std@@@std@@@std@@@std@@V?$allocator@V?$_List_unchecked_iterator@V?$_List_val@U?$_List_simple_types@U?$pair@QADPAD@std@@@std@@@std@@@std@@@2@@std@@@std@@QBEABQAV?$_List_unchecked_iterator@V?$_List_val@U?$_List_simple_types@U?$pair@QADPAD@std@@@std@@@std@@@2@XZ 1002f850 f i Hooks.obj
 0001:0002e850       ?_Mylast@?$_Vector_alloc@U?$_Vec_base_types@_SV?$allocator@_S@std@@@std@@@std@@QAEAAPA_SXZ 1002f850 f i Parser.obj
 0001:0002e850       ?_Mylast@?$_Vector_alloc@U?$_Vec_base_types@PAV?$ConfigValue@M@@V?$allocator@PAV?$ConfigValue@M@@@std@@@std@@@std@@QAEAAPAPAV?$ConfigValue@M@@XZ 1002f850 f i Configuration.obj
 0001:0002e850       ?_Mylast@?$_Vector_alloc@U?$_Vec_base_types@V?$_List_unchecked_iterator@V?$_List_val@U?$_List_simple_types@U?$pair@$$CBV?$basic_string@DU?$char_traits@D@std@@V?$allocator@D@2@@std@@UskinInfo@@@std@@@std@@@std@@@std@@V?$allocator@V?$_List_unchecked_iterator@V?$_List_val@U?$_List_simple_types@U?$pair@$$CBV?$basic_string@DU?$char_traits@D@std@@V?$allocator@D@2@@std@@UskinInfo@@@std@@@std@@@std@@@std@@@2@@std@@@std@@QBEABQAV?$_List_unchecked_iterator@V?$_List_val@U?$_List_simple_types@U?$pair@$$CBV?$basic_string@DU?$char_traits@D@std@@V?$allocator@D@2@@std@@UskinInfo@@@std@@@std@@@std@@@2@XZ 1002f850 f i Configuration.obj
 0001:0002e850       ?_Mysize@?$_List_alloc@U?$_List_base_types@U?$pair@$$CBV?$basic_string@DU?$char_traits@D@std@@V?$allocator@D@2@@std@@UskinInfo@@@std@@V?$allocator@U?$pair@$$CBV?$basic_string@DU?$char_traits@D@std@@V?$allocator@D@2@@std@@UskinInfo@@@std@@@2@@std@@@std@@QAEAAIXZ 1002f850 f i Configuration.obj
 0001:0002e850       ?_Mylast@?$_Vector_alloc@U?$_Vec_base_types@PAURecvTable@@V?$allocator@PAURecvTable@@@std@@@std@@@std@@QBEABQAPAURecvTable@@XZ 1002f850 f i NetVarManager.obj
 0001:0002e850       ?_Mylast@?$_Vector_alloc@U?$_Vec_base_types@V?$basic_string@DU?$char_traits@D@std@@V?$allocator@D@2@@std@@V?$allocator@V?$basic_string@DU?$char_traits@D@std@@V?$allocator@D@2@@std@@@2@@std@@@std@@QAEAAPAV?$basic_string@DU?$char_traits@D@std@@V?$allocator@D@2@@2@XZ 1002f850 f i Configuration.obj
 0001:0002e850       ?_Mylast@?$_Vector_alloc@U?$_Vec_base_types@V?$_List_unchecked_iterator@V?$_List_val@U?$_List_simple_types@U?$pair@$$CBV?$basic_string@DU?$char_traits@D@std@@V?$allocator@D@2@@std@@V?$set@V?$basic_string@DU?$char_traits@D@std@@V?$allocator@D@2@@std@@U?$less@V?$basic_string@DU?$char_traits@D@std@@V?$allocator@D@2@@std@@@2@V?$allocator@V?$basic_string@DU?$char_traits@D@std@@V?$allocator@D@2@@std@@@2@@2@@std@@@std@@@std@@@std@@V?$allocator@V?$_List_unchecked_iterator@V?$_List_val@U?$_List_simple_types@U?$pair@$$CBV?$basic_string@DU?$char_traits@D@std@@V?$allocator@D@2@@std@@V?$set@V?$basic_string@DU?$char_traits@D@std@@V?$allocator@D@2@@std@@U?$less@V?$basic_string@DU?$char_traits@D@std@@V?$allocator@D@2@@std@@@2@V?$allocator@V?$basic_string@DU?$char_traits@D@std@@V?$allocator@D@2@@std@@@2@@2@@std@@@std@@@std@@@std@@@2@@std@@@std@@QAEAAPAV?$_List_unchecked_iterator@V?$_List_val@U?$_List_simple_types@U?$pair@$$CBV?$basic_string@DU?$char_traits@D@std@@V?$allocator@D@2@@std@@V?$set@V?$basic_string@DU?$char_traits@D@std@@V?$allocator@D@2@@std@@U?$less@V?$basic_string@DU?$char_traits@D@std@@V?$allocator@D@2@@std@@@2@V?$allocator@V?$basic_string@DU?$char_traits@D@std@@V?$allocator@D@2@@std@@@2@@2@@std@@@std@@@std@@@2@XZ 1002f850 f i Configuration.obj
 0001:0002e850       ?_Mylast@?$_Vector_alloc@U?$_Vec_base_types@V?$_List_unchecked_iterator@V?$_List_val@U?$_List_simple_types@U?$pair@$$CBV?$basic_string@DU?$char_traits@D@std@@V?$allocator@D@2@@std@@V12@@std@@@std@@@std@@@std@@V?$allocator@V?$_List_unchecked_iterator@V?$_List_val@U?$_List_simple_types@U?$pair@$$CBV?$basic_string@DU?$char_traits@D@std@@V?$allocator@D@2@@std@@V12@@std@@@std@@@std@@@std@@@2@@std@@@std@@QBEABQAV?$_List_unchecked_iterator@V?$_List_val@U?$_List_simple_types@U?$pair@$$CBV?$basic_string@DU?$char_traits@D@std@@V?$allocator@D@2@@std@@V12@@std@@@std@@@std@@@2@XZ 1002f850 f i Configuration.obj
 0001:0002e850       ?_Mylast@?$_Vector_alloc@U?$_Vec_base_types@HV?$allocator@H@std@@@std@@@std@@QBEABQAHXZ 1002f850 f i LegitBot.obj
 0001:0002e850       ?_Mylast@?$_Vector_alloc@U?$_Vec_base_types@_SV?$allocator@_S@std@@@std@@@std@@QBEABQA_SXZ 1002f850 f i Parser.obj
 0001:0002e920       ?_Tidy@?$vector@VVector@@V?$allocator@VVector@@@std@@@std@@AAEXXZ 1002f920 f i ESP.obj
 0001:0002ea50       ?_Xlength@?$vector@V?$shared_ptr@VNode@valve_parser@@@std@@V?$allocator@V?$shared_ptr@VNode@valve_parser@@@std@@@2@@std@@CAXXZ 1002fa50 f   Parser.obj
 0001:0002ea50       ?_Xlength@?$vector@V?$_List_unchecked_iterator@V?$_List_val@U?$_List_simple_types@U?$pair@$$CBV?$basic_string@DU?$char_traits@D@std@@V?$allocator@D@2@@std@@UskinInfo@@@std@@@std@@@std@@@std@@V?$allocator@V?$_List_unchecked_iterator@V?$_List_val@U?$_List_simple_types@U?$pair@$$CBV?$basic_string@DU?$char_traits@D@std@@V?$allocator@D@2@@std@@UskinInfo@@@std@@@std@@@std@@@std@@@2@@std@@CAXXZ 1002fa50 f   Configuration.obj
 0001:0002ea50       ?_Xlength@?$vector@PAV?$ConfigValue@M@@V?$allocator@PAV?$ConfigValue@M@@@std@@@std@@CAXXZ 1002fa50 f   Configuration.obj
 0001:0002ea50       ?_Xlength@?$vector@_SV?$allocator@_S@std@@@std@@CAXXZ 1002fa50 f   Parser.obj
 0001:0002ea50       ?_Xlength@?$vector@PAV?$ConfigValue@H@@V?$allocator@PAV?$ConfigValue@H@@@std@@@std@@CAXXZ 1002fa50 f   Configuration.obj
 0001:0002ea50       ?_Xlength@?$vector@PAURecvTable@@V?$allocator@PAURecvTable@@@std@@@std@@CAXXZ 1002fa50 f   NetVarManager.obj
 0001:0002ea50       ?_Xlength@?$vector@V?$basic_string@DU?$char_traits@D@std@@V?$allocator@D@2@@std@@V?$allocator@V?$basic_string@DU?$char_traits@D@std@@V?$allocator@D@2@@std@@@2@@std@@CAXXZ 1002fa50 f   Hooks.obj
 0001:0002ea50       ?_Xlength@?$vector@V?$_List_unchecked_iterator@V?$_List_val@U?$_List_simple_types@U?$pair@QADPAD@std@@@std@@@std@@@std@@V?$allocator@V?$_List_unchecked_iterator@V?$_List_val@U?$_List_simple_types@U?$pair@QADPAD@std@@@std@@@std@@@std@@@2@@std@@CAXXZ 1002fa50 f   Hooks.obj
 0001:0002ea50       ?_Xlength@?$vector@HV?$allocator@H@std@@@std@@CAXXZ 1002fa50 f   LegitBot.obj
 0001:0002ea50       ?_Xlength@?$vector@PAV?$ConfigValue@_N@@V?$allocator@PAV?$ConfigValue@_N@@@std@@@std@@CAXXZ 1002fa50 f   Configuration.obj
 0001:0002ea50       ?_Xlength@?$vector@V?$_List_unchecked_iterator@V?$_List_val@U?$_List_simple_types@U?$pair@$$CBV?$basic_string@DU?$char_traits@D@std@@V?$allocator@D@2@@std@@V?$set@V?$basic_string@DU?$char_traits@D@std@@V?$allocator@D@2@@std@@U?$less@V?$basic_string@DU?$char_traits@D@std@@V?$allocator@D@2@@std@@@2@V?$allocator@V?$basic_string@DU?$char_traits@D@std@@V?$allocator@D@2@@std@@@2@@2@@std@@@std@@@std@@@std@@V?$allocator@V?$_List_unchecked_iterator@V?$_List_val@U?$_List_simple_types@U?$pair@$$CBV?$basic_string@DU?$char_traits@D@std@@V?$allocator@D@2@@std@@V?$set@V?$basic_string@DU?$char_traits@D@std@@V?$allocator@D@2@@std@@U?$less@V?$basic_string@DU?$char_traits@D@std@@V?$allocator@D@2@@std@@@2@V?$allocator@V?$basic_string@DU?$char_traits@D@std@@V?$allocator@D@2@@std@@@2@@2@@std@@@std@@@std@@@std@@@2@@std@@CAXXZ 1002fa50 f   Configuration.obj
 0001:0002ea50       ?_Xlength@?$vector@V?$_List_unchecked_iterator@V?$_List_val@U?$_List_simple_types@U?$pair@$$CBV?$basic_string@DU?$char_traits@D@std@@V?$allocator@D@2@@std@@V12@@std@@@std@@@std@@@std@@V?$allocator@V?$_List_unchecked_iterator@V?$_List_val@U?$_List_simple_types@U?$pair@$$CBV?$basic_string@DU?$char_traits@D@std@@V?$allocator@D@2@@std@@V12@@std@@@std@@@std@@@std@@@2@@std@@CAXXZ 1002fa50 f   Configuration.obj
 0001:0002ea50       ?_Xlength@?$vector@VVector@@V?$allocator@VVector@@@std@@@std@@CAXXZ 1002fa50 f   GrenadePrediction.obj
 0001:0002ea60       ?allocate@?$allocator@U?$_Tree_node@U?$pair@$$CBW4ItemDefinitionIndexx@@UDefItem_t@@@std@@PAX@std@@@std@@QAEPAU?$_Tree_node@U?$pair@$$CBW4ItemDefinitionIndexx@@UDefItem_t@@@std@@PAX@2@I@Z 1002fa60 f   recvproxy.obj
 0001:0002ea80       ?ammo2@CBaseCombatWeapon@@QAEHXZ 1002fa80 f i ESP.obj
 0001:0002eaa0       ?ammo@CBaseCombatWeapon@@QAEHXZ 1002faa0 f i ESP.obj
 0001:0002eaf0       ?capacity@?$vector@VVector@@V?$allocator@VVector@@@std@@@std@@QBEIXZ 1002faf0 f i ESP.obj
 0001:0002eb20       ?deallocate@?$allocator@VVector@@@std@@QAEXQAVVector@@I@Z 1002fb20 f i ESP.obj
 0001:0002eb40       ?exp@@YAMM@Z               1002fb40 f i ESP.obj
 0001:0002eb60       ?flGetDistance@@YAHVVector@@0@Z 1002fb60 f i ESP.obj
 0001:0002ec00       ?floor@@YAMM@Z             1002fc00 f i ESP.obj
 0001:0002ec20       ?iAccount@C_BaseEntity@@QAEHXZ 1002fc20 f i ESP.obj
 0001:0002ec40       ?insert@?$basic_string@DU?$char_traits@D@std@@V?$allocator@D@2@@std@@QAEAAV12@IQBD@Z 1002fc40 f i ESP.obj
 0001:0002ec80       ?instance@?$singleton@Vgrenade_prediction@@@@SAAAVgrenade_prediction@@XZ 1002fc80 f i ESP.obj
 0001:0002ed40       ?localPlayerExclusive@C_BaseEntity@@QAEPAVCLocalPlayerExclusive@@XZ 1002fd40 f i ESP.obj
 0001:0002ed60       ?m_AttributeManager@CBaseCombatWeapon@@QAEPAVAttributeContainer@@XZ 1002fd60 f i ESP.obj
 0001:0002ed80       ?m_Item@AttributeContainer@@QAEPAVCBaseAttributableItem@@XZ 1002fd80 f i ESP.obj
 0001:0002ee40       ?strstr@@YAPADQADQBD@Z     1002fe40 f i ESP.obj
 0001:0002ee60       __vsnprintf_l              1002fe60 f i ESP.obj
 0001:0002eeb0       __vsprintf_l               1002feb0 f i ESP.obj
 0001:0002eed0       _ceilf                     1002fed0 f i ESP.obj
 0001:0002ef00       _expf                      1002ff00 f i ESP.obj
 0001:0002ef30       _floorf                    1002ff30 f i ESP.obj
 0001:0002ef60       _sprintf                   1002ff60 f i ESP.obj
 0001:0002efa0       _vsprintf_s                1002ffa0 f i ESP.obj
 0001:0002efc0       ?znrgbsdddchmg@@YAHXZ      1002ffc0 f   Global.obj
 0001:0002f030       ?cenkdxcmotn@@YAHXZ        10030030 f   Global.obj
 0001:0002f0a0       ?Setup@grenade_prediction@@AAEXAAVVector@@0V2@@Z 100300a0 f   GrenadePrediction.obj
 0001:0002f400       ?Simulate@grenade_prediction@@AAEXPAUCViewSetup@@@Z 10030400 f   GrenadePrediction.obj
 0001:0002f530       ?Step@grenade_prediction@@AAEHAAVVector@@0HM@Z 10030530 f   GrenadePrediction.obj
 0001:0002f630       ?CheckDetonate@grenade_prediction@@AAE_NABVVector@@ABVCGameTrace@@HM@Z 10030630 f   GrenadePrediction.obj
 0001:0002f740       ?TraceHull@grenade_prediction@@AAEXAAVVector@@0AAVCGameTrace@@@Z 10030740 f   GrenadePrediction.obj
 0001:0002f810       ?AddGravityMove@grenade_prediction@@AAEXAAVVector@@0M_N@Z 10030810 f   GrenadePrediction.obj
 0001:0002f910       ?PushEntity@grenade_prediction@@AAEXAAVVector@@ABV2@AAVCGameTrace@@@Z 10030910 f   GrenadePrediction.obj
 0001:0002f960       ?ResolveFlyCollisionCustom@grenade_prediction@@AAEXAAVCGameTrace@@AAVVector@@M@Z 10030960 f   GrenadePrediction.obj
 0001:0002fab0       ?PhysicsClipVelocity@grenade_prediction@@AAEHABVVector@@0AAV2@M@Z 10030ab0 f   GrenadePrediction.obj
 0001:0002fbe0       ?Tick@grenade_prediction@@QAEXH@Z 10030be0 f   GrenadePrediction.obj
 0001:0002fc80       ?View@grenade_prediction@@QAEXPAUCViewSetup@@@Z 10030c80 f   GrenadePrediction.obj
 0001:0002fd50       ?Paint@grenade_prediction@@QAEXXZ 10030d50 f   GrenadePrediction.obj
 0001:0002fef0       ?angle_vectors2@@YAXABVVector@@PAV1@11@Z 10030ef0 f   GrenadePrediction.obj
 0001:00030120       ?zttbmmjcdtc@@YAHXZ        10031120 f   GrenadePrediction.obj
 0001:00030190       ?rqxyuvcfrkrk@@YAHXZ       10031190 f   GrenadePrediction.obj
 0001:00030200       ?qutbnulimyu@@YAHXZ        10031200 f   GrenadePrediction.obj
 0001:00030270       ??$_Emplace_back_with_unused_capacity@ABVVector@@@?$vector@VVector@@V?$allocator@VVector@@@std@@@std@@AAEXABVVector@@@Z 10031270 f i GrenadePrediction.obj
 0001:000302f0       ??$_Ptr_copy_cat@$$CBV?$basic_string@DU?$char_traits@D@std@@V?$allocator@D@2@@std@@V12@@std@@YA?AU_General_ptr_iterator_tag@0@ABQBV?$basic_string@DU?$char_traits@D@std@@V?$allocator@D@2@@0@ABQAV20@@Z 100312f0 f i Hooks.obj
 0001:000302f0       ??$_Is_checked@V?$_String_iterator@V?$_String_val@U?$_Simple_types@D@std@@@std@@@std@@@std@@YA?AU?$integral_constant@_N$00@0@V?$_String_iterator@V?$_String_val@U?$_Simple_types@D@std@@@std@@@0@@Z 100312f0 f i Hooks.obj
 0001:000302f0       ??$_Idl_distance@V?$_String_iterator@V?$_String_val@U?$_Simple_types@D@std@@@std@@@std@@PAD@std@@YA?AU_Distance_unknown@0@ABQAD0@Z 100312f0 f i Hooks.obj
 0001:000302f0       ??$_Fill_memset_is_safe@PAV?$_List_unchecked_iterator@V?$_List_val@U?$_List_simple_types@U?$pair@QADPAD@std@@@std@@@std@@@std@@V12@@std@@YA?AU?$integral_constant@_N$0A@@0@ABQAV?$_List_unchecked_iterator@V?$_List_val@U?$_List_simple_types@U?$pair@QADPAD@std@@@std@@@std@@@0@ABV20@@Z 100312f0 f i Hooks.obj
 0001:000302f0       ??$_Fill_memset_is_safe@PAV?$_List_unchecked_iterator@V?$_List_val@U?$_List_simple_types@U?$pair@$$CBV?$basic_string@DU?$char_traits@D@std@@V?$allocator@D@2@@std@@V?$set@V?$basic_string@DU?$char_traits@D@std@@V?$allocator@D@2@@std@@U?$less@V?$basic_string@DU?$char_traits@D@std@@V?$allocator@D@2@@std@@@2@V?$allocator@V?$basic_string@DU?$char_traits@D@std@@V?$allocator@D@2@@std@@@2@@2@@std@@@std@@@std@@@std@@V12@@std@@YA?AU?$integral_constant@_N$0A@@0@ABQAV?$_List_unchecked_iterator@V?$_List_val@U?$_List_simple_types@U?$pair@$$CBV?$basic_string@DU?$char_traits@D@std@@V?$allocator@D@2@@std@@V?$set@V?$basic_string@DU?$char_traits@D@std@@V?$allocator@D@2@@std@@U?$less@V?$basic_string@DU?$char_traits@D@std@@V?$allocator@D@2@@std@@@2@V?$allocator@V?$basic_string@DU?$char_traits@D@std@@V?$allocator@D@2@@std@@@2@@2@@std@@@std@@@std@@@0@ABV20@@Z 100312f0 f i Configuration.obj
 0001:000302f0       ??$_Fill_memset_is_safe@PAV?$_List_unchecked_iterator@V?$_List_val@U?$_List_simple_types@U?$pair@$$CBV?$basic_string@DU?$char_traits@D@std@@V?$allocator@D@2@@std@@V12@@std@@@std@@@std@@@std@@V12@@std@@YA?AU?$integral_constant@_N$0A@@0@ABQAV?$_List_unchecked_iterator@V?$_List_val@U?$_List_simple_types@U?$pair@$$CBV?$basic_string@DU?$char_traits@D@std@@V?$allocator@D@2@@std@@V12@@std@@@std@@@std@@@0@ABV20@@Z 100312f0 f i Configuration.obj
 0001:000302f0       ??$_Ptr_move_cat@V?$shared_ptr@VNode@valve_parser@@@std@@V12@@std@@YA?AU_General_ptr_iterator_tag@0@ABQAV?$shared_ptr@VNode@valve_parser@@@0@0@Z 100312f0 f i Parser.obj
 0001:000302f0       ??$_Ptr_move_cat@VVector@@V1@@std@@YA?AU_General_ptr_iterator_tag@0@ABQAVVector@@0@Z 100312f0 f i GrenadePrediction.obj
 0001:000302f0       ??$_Fill_memset_is_safe@PAV?$_List_unchecked_iterator@V?$_List_val@U?$_List_simple_types@U?$pair@$$CBV?$basic_string@DU?$char_traits@D@std@@V?$allocator@D@2@@std@@UskinInfo@@@std@@@std@@@std@@@std@@V12@@std@@YA?AU?$integral_constant@_N$0A@@0@ABQAV?$_List_unchecked_iterator@V?$_List_val@U?$_List_simple_types@U?$pair@$$CBV?$basic_string@DU?$char_traits@D@std@@V?$allocator@D@2@@std@@UskinInfo@@@std@@@std@@@std@@@0@ABV20@@Z 100312f0 f i Configuration.obj
 0001:00030300       ??$_Uninitialized_move@PAVVector@@PAV1@V?$allocator@VVector@@@std@@@std@@YAPAVVector@@PAV1@00AAV?$allocator@VVector@@@0@@Z 10031300 f i GrenadePrediction.obj
 0001:00030390       ??$_Uninitialized_move_al_unchecked@PAVVector@@PAV1@V?$allocator@VVector@@@std@@@std@@YAPAVVector@@PAV1@00AAV?$allocator@VVector@@@0@U_General_ptr_iterator_tag@0@U_Unused_parameter@0@@Z 10031390 f i GrenadePrediction.obj
 0001:00030460       ??$construct@VVector@@V1@@?$_Default_allocator_traits@V?$allocator@VVector@@@std@@@std@@SAXAAV?$allocator@VVector@@@1@QAVVector@@$$QAV3@@Z 10031460 f i GrenadePrediction.obj
 0001:00030460       ??$construct@VVector@@ABV1@@?$_Default_allocator_traits@V?$allocator@VVector@@@std@@@std@@SAXAAV?$allocator@VVector@@@1@QAVVector@@ABV3@@Z 10031460 f i GrenadePrediction.obj
 0001:000304a0       ??$emplace_back@ABVVector@@@?$vector@VVector@@V?$allocator@VVector@@@std@@@std@@QAEXABVVector@@@Z 100314a0 f i GrenadePrediction.obj
 0001:00030630       ??0?$_String_const_iterator@V?$_String_val@U?$_Simple_types@D@std@@@std@@@std@@QAE@PBDPBU_Container_base0@1@@Z 10031630 f i Hooks.obj
 0001:00030630       ??0?$_Tree_unchecked_const_iterator@V?$_Tree_val@U?$_Tree_simple_types@V?$basic_string@DU?$char_traits@D@std@@V?$allocator@D@2@@std@@@std@@@std@@U_Iterator_base0@2@@std@@QAE@PAU?$_Tree_node@V?$basic_string@DU?$char_traits@D@std@@V?$allocator@D@2@@std@@PAX@1@PBV?$_Tree_val@U?$_Tree_simple_types@V?$basic_string@DU?$char_traits@D@std@@V?$allocator@D@2@@std@@@std@@@1@@Z 10031630 f i Configuration.obj
 0001:00030630       ??0?$_Vector_const_iterator@V?$_Vector_val@U?$_Simple_types@VVector@@@std@@@std@@@std@@QAE@PAVVector@@PBU_Container_base0@1@@Z 10031630 f i GrenadePrediction.obj
 0001:00030630       ??0?$_Tree_unchecked_const_iterator@V?$_Tree_val@U?$_Tree_simple_types@U?$pair@$$CBW4ItemDefinitionIndexx@@UDefItem_t@@@std@@@std@@@std@@U_Iterator_base0@2@@std@@QAE@PAU?$_Tree_node@U?$pair@$$CBW4ItemDefinitionIndexx@@UDefItem_t@@@std@@PAX@1@PBV?$_Tree_val@U?$_Tree_simple_types@U?$pair@$$CBW4ItemDefinitionIndexx@@UDefItem_t@@@std@@@std@@@1@@Z 10031630 f i recvproxy.obj
 0001:00030630       ??0?$_List_unchecked_const_iterator@V?$_List_val@U?$_List_simple_types@U?$pair@$$CBV?$basic_string@DU?$char_traits@D@std@@V?$allocator@D@2@@std@@V12@@std@@@std@@@std@@U_Iterator_base0@2@@std@@QAE@PAU?$_List_node@U?$pair@$$CBV?$basic_string@DU?$char_traits@D@std@@V?$allocator@D@2@@std@@V12@@std@@PAX@1@PBV?$_List_val@U?$_List_simple_types@U?$pair@$$CBV?$basic_string@DU?$char_traits@D@std@@V?$allocator@D@2@@std@@V12@@std@@@std@@@1@@Z 10031630 f i Configuration.obj
 0001:00030630       ??0?$_Vector_const_iterator@V?$_Vector_val@U?$_Simple_types@_S@std@@@std@@@std@@QAE@PA_SPBU_Container_base0@1@@Z 10031630 f i Parser.obj
 0001:00030630       ??0?$_Vector_const_iterator@V?$_Vector_val@U?$_Simple_types@PAURecvTable@@@std@@@std@@@std@@QAE@PAPAURecvTable@@PBU_Container_base0@1@@Z 10031630 f i NetVarManager.obj
 0001:00030630       ??0?$_List_unchecked_const_iterator@V?$_List_val@U?$_List_simple_types@U?$pair@$$CBV?$basic_string@DU?$char_traits@D@std@@V?$allocator@D@2@@std@@V?$set@V?$basic_string@DU?$char_traits@D@std@@V?$allocator@D@2@@std@@U?$less@V?$basic_string@DU?$char_traits@D@std@@V?$allocator@D@2@@std@@@2@V?$allocator@V?$basic_string@DU?$char_traits@D@std@@V?$allocator@D@2@@std@@@2@@2@@std@@@std@@@std@@U_Iterator_base0@2@@std@@QAE@PAU?$_List_node@U?$pair@$$CBV?$basic_string@DU?$char_traits@D@std@@V?$allocator@D@2@@std@@V?$set@V?$basic_string@DU?$char_traits@D@std@@V?$allocator@D@2@@std@@U?$less@V?$basic_string@DU?$char_traits@D@std@@V?$allocator@D@2@@std@@@2@V?$allocator@V?$basic_string@DU?$char_traits@D@std@@V?$allocator@D@2@@std@@@2@@2@@std@@PAX@1@PBV?$_List_val@U?$_List_simple_types@U?$pair@$$CBV?$basic_string@DU?$char_traits@D@std@@V?$allocator@D@2@@std@@V?$set@V?$basic_string@DU?$char_traits@D@std@@V?$allocator@D@2@@std@@U?$less@V?$basic_string@DU?$char_traits@D@std@@V?$allocator@D@2@@std@@@2@V?$allocator@V?$basic_string@DU?$char_traits@D@std@@V?$allocator@D@2@@std@@@2@@2@@std@@@std@@@1@@Z 10031630 f i Configuration.obj
 0001:00030630       ??0?$_List_unchecked_const_iterator@V?$_List_val@U?$_List_simple_types@U?$pair@QADPAD@std@@@std@@@std@@U_Iterator_base0@2@@std@@QAE@PAU?$_List_node@U?$pair@QADPAD@std@@PAX@1@PBV?$_List_val@U?$_List_simple_types@U?$pair@QADPAD@std@@@std@@@1@@Z 10031630 f i Hooks.obj
 0001:00030630       ??0?$_List_unchecked_const_iterator@V?$_List_val@U?$_List_simple_types@U?$pair@$$CBV?$basic_string@DU?$char_traits@D@std@@V?$allocator@D@2@@std@@UskinInfo@@@std@@@std@@@std@@U_Iterator_base0@2@@std@@QAE@PAU?$_List_node@U?$pair@$$CBV?$basic_string@DU?$char_traits@D@std@@V?$allocator@D@2@@std@@UskinInfo@@@std@@PAX@1@PBV?$_List_val@U?$_List_simple_types@U?$pair@$$CBV?$basic_string@DU?$char_traits@D@std@@V?$allocator@D@2@@std@@UskinInfo@@@std@@@std@@@1@@Z 10031630 f i Configuration.obj
 0001:00030660       ??0?$_Vector_iterator@V?$_Vector_val@U?$_Simple_types@PAURecvTable@@@std@@@std@@@std@@QAE@PAPAURecvTable@@PBU_Container_base0@1@@Z 10031660 f i NetVarManager.obj
 0001:00030660       ??0?$_List_const_iterator@V?$_List_val@U?$_List_simple_types@U?$pair@$$CBV?$basic_string@DU?$char_traits@D@std@@V?$allocator@D@2@@std@@V?$set@V?$basic_string@DU?$char_traits@D@std@@V?$allocator@D@2@@std@@U?$less@V?$basic_string@DU?$char_traits@D@std@@V?$allocator@D@2@@std@@@2@V?$allocator@V?$basic_string@DU?$char_traits@D@std@@V?$allocator@D@2@@std@@@2@@2@@std@@@std@@@std@@@std@@QAE@PAU?$_List_node@U?$pair@$$CBV?$basic_string@DU?$char_traits@D@std@@V?$allocator@D@2@@std@@V?$set@V?$basic_string@DU?$char_traits@D@std@@V?$allocator@D@2@@std@@U?$less@V?$basic_string@DU?$char_traits@D@std@@V?$allocator@D@2@@std@@@2@V?$allocator@V?$basic_string@DU?$char_traits@D@std@@V?$allocator@D@2@@std@@@2@@2@@std@@PAX@1@PBV?$_List_val@U?$_List_simple_types@U?$pair@$$CBV?$basic_string@DU?$char_traits@D@std@@V?$allocator@D@2@@std@@V?$set@V?$basic_string@DU?$char_traits@D@std@@V?$allocator@D@2@@std@@U?$less@V?$basic_string@DU?$char_traits@D@std@@V?$allocator@D@2@@std@@@2@V?$allocator@V?$basic_string@DU?$char_traits@D@std@@V?$allocator@D@2@@std@@@2@@2@@std@@@std@@@1@@Z 10031660 f i Hooks.obj
 0001:00030660       ??0?$_Vector_iterator@V?$_Vector_val@U?$_Simple_types@_S@std@@@std@@@std@@QAE@PA_SPBU_Container_base0@1@@Z 10031660 f i Parser.obj
 0001:00030660       ??0?$_List_unchecked_iterator@V?$_List_val@U?$_List_simple_types@U?$pair@$$CBV?$basic_string@DU?$char_traits@D@std@@V?$allocator@D@2@@std@@V12@@std@@@std@@@std@@@std@@QAE@PAU?$_List_node@U?$pair@$$CBV?$basic_string@DU?$char_traits@D@std@@V?$allocator@D@2@@std@@V12@@std@@PAX@1@PBV?$_List_val@U?$_List_simple_types@U?$pair@$$CBV?$basic_string@DU?$char_traits@D@std@@V?$allocator@D@2@@std@@V12@@std@@@std@@@1@@Z 10031660 f i Configuration.obj
 0001:00030660       ??0?$_Vector_iterator@V?$_Vector_val@U?$_Simple_types@VVector@@@std@@@std@@@std@@QAE@PAVVector@@PBU_Container_base0@1@@Z 10031660 f i GrenadePrediction.obj
 0001:00030660       ??0?$_List_const_iterator@V?$_List_val@U?$_List_simple_types@U?$pair@$$CBV?$basic_string@DU?$char_traits@D@std@@V?$allocator@D@2@@std@@V12@@std@@@std@@@std@@@std@@QAE@PAU?$_List_node@U?$pair@$$CBV?$basic_string@DU?$char_traits@D@std@@V?$allocator@D@2@@std@@V12@@std@@PAX@1@PBV?$_List_val@U?$_List_simple_types@U?$pair@$$CBV?$basic_string@DU?$char_traits@D@std@@V?$allocator@D@2@@std@@V12@@std@@@std@@@1@@Z 10031660 f i Hooks.obj
 0001:00030660       ??0?$_List_const_iterator@V?$_List_val@U?$_List_simple_types@U?$pair@$$CBV?$basic_string@DU?$char_traits@D@std@@V?$allocator@D@2@@std@@UskinInfo@@@std@@@std@@@std@@@std@@QAE@PAU?$_List_node@U?$pair@$$CBV?$basic_string@DU?$char_traits@D@std@@V?$allocator@D@2@@std@@UskinInfo@@@std@@PAX@1@PBV?$_List_val@U?$_List_simple_types@U?$pair@$$CBV?$basic_string@DU?$char_traits@D@std@@V?$allocator@D@2@@std@@UskinInfo@@@std@@@std@@@1@@Z 10031660 f i Hooks.obj
 0001:00030660       ??0?$_String_iterator@V?$_String_val@U?$_Simple_types@D@std@@@std@@@std@@QAE@PADPBU_Container_base0@1@@Z 10031660 f i Hooks.obj
 0001:00030660       ??0?$_Tree_const_iterator@V?$_Tree_val@U?$_Tree_simple_types@V?$basic_string@DU?$char_traits@D@std@@V?$allocator@D@2@@std@@@std@@@std@@@std@@QAE@PAU?$_Tree_node@V?$basic_string@DU?$char_traits@D@std@@V?$allocator@D@2@@std@@PAX@1@PBV?$_Tree_val@U?$_Tree_simple_types@V?$basic_string@DU?$char_traits@D@std@@V?$allocator@D@2@@std@@@std@@@1@@Z 10031660 f i Configuration.obj
 0001:00030660       ??0?$_List_unchecked_iterator@V?$_List_val@U?$_List_simple_types@U?$pair@$$CBV?$basic_string@DU?$char_traits@D@std@@V?$allocator@D@2@@std@@V?$set@V?$basic_string@DU?$char_traits@D@std@@V?$allocator@D@2@@std@@U?$less@V?$basic_string@DU?$char_traits@D@std@@V?$allocator@D@2@@std@@@2@V?$allocator@V?$basic_string@DU?$char_traits@D@std@@V?$allocator@D@2@@std@@@2@@2@@std@@@std@@@std@@@std@@QAE@PAU?$_List_node@U?$pair@$$CBV?$basic_string@DU?$char_traits@D@std@@V?$allocator@D@2@@std@@V?$set@V?$basic_string@DU?$char_traits@D@std@@V?$allocator@D@2@@std@@U?$less@V?$basic_string@DU?$char_traits@D@std@@V?$allocator@D@2@@std@@@2@V?$allocator@V?$basic_string@DU?$char_traits@D@std@@V?$allocator@D@2@@std@@@2@@2@@std@@PAX@1@PBV?$_List_val@U?$_List_simple_types@U?$pair@$$CBV?$basic_string@DU?$char_traits@D@std@@V?$allocator@D@2@@std@@V?$set@V?$basic_string@DU?$char_traits@D@std@@V?$allocator@D@2@@std@@U?$less@V?$basic_string@DU?$char_traits@D@std@@V?$allocator@D@2@@std@@@2@V?$allocator@V?$basic_string@DU?$char_traits@D@std@@V?$allocator@D@2@@std@@@2@@2@@std@@@std@@@1@@Z 10031660 f i Configuration.obj
 0001:00030660       ??0?$_List_unchecked_iterator@V?$_List_val@U?$_List_simple_types@U?$pair@QADPAD@std@@@std@@@std@@@std@@QAE@PAU?$_List_node@U?$pair@QADPAD@std@@PAX@1@PBV?$_List_val@U?$_List_simple_types@U?$pair@QADPAD@std@@@std@@@1@@Z 10031660 f i Hooks.obj
 0001:00030660       ??0?$_List_unchecked_iterator@V?$_List_val@U?$_List_simple_types@U?$pair@$$CBV?$basic_string@DU?$char_traits@D@std@@V?$allocator@D@2@@std@@UskinInfo@@@std@@@std@@@std@@@std@@QAE@PAU?$_List_node@U?$pair@$$CBV?$basic_string@DU?$char_traits@D@std@@V?$allocator@D@2@@std@@UskinInfo@@@std@@PAX@1@PBV?$_List_val@U?$_List_simple_types@U?$pair@$$CBV?$basic_string@DU?$char_traits@D@std@@V?$allocator@D@2@@std@@UskinInfo@@@std@@@std@@@1@@Z 10031660 f i Configuration.obj
 0001:00030660       ??0?$_Tree_const_iterator@V?$_Tree_val@U?$_Tree_simple_types@U?$pair@$$CBW4ItemDefinitionIndexx@@UDefItem_t@@@std@@@std@@@std@@@std@@QAE@PAU?$_Tree_node@U?$pair@$$CBW4ItemDefinitionIndexx@@UDefItem_t@@@std@@PAX@1@PBV?$_Tree_val@U?$_Tree_simple_types@U?$pair@$$CBW4ItemDefinitionIndexx@@UDefItem_t@@@std@@@std@@@1@@Z 10031660 f i recvproxy.obj
 0001:00030680       ??0CTraceFilterWorldAndPropsOnly@@QAE@XZ 10031680 f i GrenadePrediction.obj
 0001:000306a0       ??8?$_Vector_const_iterator@V?$_Vector_val@U?$_Simple_types@VVector@@@std@@@std@@@std@@QBE_NABV01@@Z 100316a0 f i GrenadePrediction.obj
 0001:000306a0       ??8?$_Vector_const_iterator@V?$_Vector_val@U?$_Simple_types@PAURecvTable@@@std@@@std@@@std@@QBE_NABV01@@Z 100316a0 f i NetVarManager.obj
 0001:000306e0       ??9?$_Vector_const_iterator@V?$_Vector_val@U?$_Simple_types@VVector@@@std@@@std@@@std@@QBE_NABV01@@Z 100316e0 f i GrenadePrediction.obj
 0001:000306e0       ??9?$_Vector_const_iterator@V?$_Vector_val@U?$_Simple_types@PAURecvTable@@@std@@@std@@@std@@QBE_NABV01@@Z 100316e0 f i NetVarManager.obj
 0001:00030720       ??A?$vector@VVector@@V?$allocator@VVector@@@std@@@std@@QAEAAVVector@@I@Z 10031720 f i GrenadePrediction.obj
 0001:00030740       ??AVector@@QBEMH@Z         10031740 f i GrenadePrediction.obj
 0001:00030760       ??E?$_Vector_const_iterator@V?$_Vector_val@U?$_Simple_types@VVector@@@std@@@std@@@std@@QAEAAV01@XZ 10031760 f i GrenadePrediction.obj
 0001:00030780       ??E?$_Vector_iterator@V?$_Vector_val@U?$_Simple_types@VVector@@@std@@@std@@@std@@QAEAAV01@XZ 10031780 f i GrenadePrediction.obj
 0001:000307a0       ??ZVector@@QAEAAV0@ABV0@@Z 100317a0 f i GrenadePrediction.obj
 0001:00030800       ?Dot@Vector@@QBEMABV1@@Z   10031800 f i GrenadePrediction.obj
 0001:00030820       ?DotProduct@@YAMABVVector@@0@Z 10031820 f i GrenadePrediction.obj
 0001:00030870       ?DrawOutlinedCircle@ISurface@@QAEXHHHH@Z 10031870 f i GrenadePrediction.obj
 0001:000308a0       ?GetVelocity@C_BaseEntity@@QAE?AVVector@@XZ 100318a0 f i GrenadePrediction.obj
 0001:000308d0       ?Init@Ray_t@@QAEXABVVector@@000@Z 100318d0 f i GrenadePrediction.obj
 0001:00030a50       ?Length2D@Vector@@QBEMXZ   10031a50 f i GrenadePrediction.obj
 0001:00030a90       ?ShouldHitEntity@CTraceFilterWorldAndPropsOnly@@UAE_NPAVC_BaseEntity@@H@Z 10031a90 f i GrenadePrediction.obj
 0001:00030aa0       ?_Calculate_growth@?$vector@VVector@@V?$allocator@VVector@@@std@@@std@@ABEII@Z 10031aa0 f i GrenadePrediction.obj
 0001:00030af0       ?_Change_array@?$vector@VVector@@V?$allocator@VVector@@@std@@@std@@AAEXQAVVector@@II@Z 10031af0 f i GrenadePrediction.obj
 0001:00030b90       ?_Compat@?$_Vector_const_iterator@V?$_Vector_val@U?$_Simple_types@VVector@@@std@@@std@@@std@@QBEXABV12@@Z 10031b90 f i GrenadePrediction.obj
 0001:00030b90       ?_Compat@?$_Vector_const_iterator@V?$_Vector_val@U?$_Simple_types@PAURecvTable@@@std@@@std@@@std@@QBEXABV12@@Z 10031b90 f i NetVarManager.obj
 0001:00030b90       ?_Swap_all@_Container_base0@std@@QAEXAAU12@@Z 10031b90 f i Hooks.obj
 0001:00030b90       ?_Adopt@_Iterator_base0@std@@QAEXPBX@Z 10031b90 f i Parser.obj
 0001:00030b90       ?imbue@?$basic_streambuf@DU?$char_traits@D@std@@@std@@MAEXABVlocale@2@@Z 10031b90 f i Utilities.obj
 0001:00030b90       ?_Init@?$codecvt@DDU_Mbstatet@@@std@@IAEXABV_Locinfo@2@@Z 10031b90 f i Utilities.obj
 0001:00030b90       ?_Destroy_if_not_nil@?$_Tree@V?$_Tset_traits@V?$basic_string@DU?$char_traits@D@std@@V?$allocator@D@2@@std@@U?$less@V?$basic_string@DU?$char_traits@D@std@@V?$allocator@D@2@@std@@@2@V?$allocator@V?$basic_string@DU?$char_traits@D@std@@V?$allocator@D@2@@std@@@2@$0A@@std@@@std@@IAEXU_Nil@2@@Z 10031b90 f i Hooks.obj
 0001:00030ba0       ?_Umove_if_noexcept1@?$vector@VVector@@V?$allocator@VVector@@@std@@@std@@AAEXPAVVector@@00U?$integral_constant@_N$00@2@@Z 10031ba0 f i GrenadePrediction.obj
 0001:00030bd0       ?_Umove_if_noexcept@?$vector@VVector@@V?$allocator@VVector@@@std@@@std@@AAEXPAVVector@@00@Z 10031bd0 f i GrenadePrediction.obj
 0001:00030c00       ?allocate@?$allocator@VVector@@@std@@QAEPAVVector@@I@Z 10031c00 f i GrenadePrediction.obj
 0001:00030c20       ?abs@@YAMM@Z               10031c20 f i Hooks.obj
 0001:00030c20       ?fabs@@YAMM@Z              10031c20 f i GrenadePrediction.obj
 0001:00030c40       ?max_size@?$_Default_allocator_traits@V?$allocator@VVector@@@std@@@std@@SAIABV?$allocator@VVector@@@2@@Z 10031c40 f i GrenadePrediction.obj
 0001:00030c50       ?max_size@?$vector@VVector@@V?$allocator@VVector@@@std@@@std@@QBEIXZ 10031c50 f i GrenadePrediction.obj
 0001:00030c90       ?push_back@?$vector@VVector@@V?$allocator@VVector@@@std@@@std@@QAEXABVVector@@@Z 10031c90 f i GrenadePrediction.obj
 0001:00030cb0       ?size@?$vector@VVector@@V?$allocator@VVector@@@std@@@std@@QBEIXZ 10031cb0 f i GrenadePrediction.obj
 0001:00030ce0       _fabsf                     10031ce0 f i GrenadePrediction.obj
 0001:00030e00       ?RenderInterface@@YAXXZ    10031e00 f   Hooks.obj
 0001:00037410       ?initialize@hooks@@YAXXZ   10038410 f   Hooks.obj
 0001:000375c0       ?cleanup@hooks@@YAXXZ      100385c0 f   Hooks.obj
 0001:00037660       ?RotateMovement@@YAXPAVCUserCmd@CInput@@M@Z 10038660 f   Hooks.obj
 0001:00037a40       ?DrawMovementRecorder@@YAXXZ 10038a40 f   Hooks.obj
 0001:00037c00       ?CHLCreateMove@@YGXHM_NAA_N@Z 10038c00 f   Hooks.obj
 0001:000380f0       ?hkCreateMove@@YGXHM_N@Z   100390f0 f   Hooks.obj
 0001:00038110       ?GetKnifeDefinitionIndex@@YAHH@Z 10039110 f   Hooks.obj
 0001:000381a0       ?GetCurrentKnifeModel@@YAHH@Z 100391a0 f   Hooks.obj
 0001:000382d0       ?SkinChanger@@YAXXZ        100392d0 f   Hooks.obj
 0001:00038550       ?GetEstimatedServerTickCount@@YAHM@Z 10039550 f   Hooks.obj
 0001:000385d0       ?NormalizeYaw@@YAMM@Z      100395d0 f   Hooks.obj
 0001:00038620       ?Resolver3@@YAXXZ          10039620 f   Hooks.obj
 0001:00039480       ?CL_CreateDLLEntity@@YAPAVIClientNetworkable@@HHH@Z 1003a480 f   Hooks.obj
 0001:000394e0       ?GetGloveSkinByMenu@@YAHHH@Z 1003a4e0 f   Hooks.obj
 0001:00039710       ?isKnife@@YA_NH@Z          1003a710 f   Hooks.obj
 0001:000397c0       ?GloveChanger@@YAXXZ       1003a7c0 f   Hooks.obj
 0001:0003a260       ?hkFrameStageNotify@@YGXW4ClientFrameStage_t@@@Z 1003b260 f   Hooks.obj
 0001:0003a400       ?GetCurrentMaterial@@YAPAVIMaterial@@H@Z 1003b400 f   Hooks.obj
 0001:0003a500       ?GetCurrentZMaterial@@YAPAVIMaterial@@H@Z 1003b500 f   Hooks.obj
 0001:0003a6a0       ?hkDrawModelExecute@@YIXPAXH00ABUModelRenderInfo_t@@PAY123M@Z 1003b6a0 f   Hooks.obj
 0001:0003b110       ?hkPaintTraverse@@YIXPAXHI_N1@Z 1003c110 f   Hooks.obj
 0001:0003b7f0       ?hkInPrediction@@YG_NXZ    1003c7f0 f   Hooks.obj
 0001:0003bac0       ?hkGetViewModelFOV@@YIMPAX0@Z 1003cac0 f   Hooks.obj
 0001:0003bb70       ?hkOverrideView@@YIXPAX0PAUCViewSetup@@@Z 1003cb70 f   Hooks.obj
 0001:0003bde0       ?OnScreenSizeChanged@@YGXHH@Z 1003cde0 f   Hooks.obj
 0001:0003be10       ?hkFireEventClientSide@@YI_NPAX0PAVIGameEvent@@@Z 1003ce10 f   Hooks.obj
 0001:0003beb0       ?hkSvCheatsGetBool@@YI_NPAX0@Z 1003ceb0 f   Hooks.obj
 0001:0003bf70       ?RenderDefault@@YAXPAUIDirect3DDevice9@@@Z 1003cf70 f   Hooks.obj
 0001:0003d460       ?FullUpdate@@YAXXZ         1003e460 f   Hooks.obj
 0001:0003d520       ?weaponnames@@YAPBDH@Z     1003e520 f   Hooks.obj
 0001:0003d800       ?IsUtility@@YA_NW4ItemDefinitionIndexx@@@Z 1003e800 f   Hooks.obj
 0001:0003d850       ?Contains@@YA_NABV?$basic_string@DU?$char_traits@D@std@@V?$allocator@D@2@@std@@0@Z 1003e850 f   Hooks.obj
 0001:0003d8c0       ?ToLower@@YA?AV?$basic_string@DU?$char_traits@D@std@@V?$allocator@D@2@@std@@V12@@Z 1003e8c0 f   Hooks.obj
 0001:0003d970       ?doknives@@YAXPA_N@Z       1003e970 f   Hooks.obj
 0001:0003d9d0       ?ParseSkins@@YAHXZ         1003e9d0 f   Hooks.obj
 0001:0003e9f0       ?hkReset@@YGJPAUIDirect3DDevice9@@PAU_D3DPRESENT_PARAMETERS_@@@Z 1003f9f0 f   Hooks.obj
 0001:0003ea80       ?hkPresent@@YGJPAUIDirect3DDevice9@@PAUtagRECT@@1PAUHWND__@@PAU_RGNDATA@@@Z 1003fa80 f   Hooks.obj
 0001:0003ebb0       ?hkPlaySound@@YGXPBD@Z     1003fbb0 f   Hooks.obj
 0001:0003ecf0       ?hkDoPostScreenSpaceEffects@@YI_NPAX0PAUCViewSetup@@@Z 1003fcf0 f   Hooks.obj
 0001:0003f2f0       ?hkFindMDL@@YIGPAX0PBD@Z   100402f0 f   Hooks.obj
 0001:0003f3a0       ?hkIsHltv@@YI_NPAX0@Z      100403a0 f   Hooks.obj
 0001:0003f500       ?hkIsConnected@@YG_NXZ     10040500 f   Hooks.obj
 0001:0003f630       ?ldncpqtvnos@@YAHXZ        10040630 f   Hooks.obj
 0001:0003f6a0       ?nivyimjmnjzr@@YAHXZ       100406a0 f   Hooks.obj
 0001:0003f710       ?mqjmugayxqtcch@@YAHXZ     10040710 f   Hooks.obj
 0001:0003f780       ??$?0$$V@?$_Compressed_pair@V?$allocator@U?$_Tree_node@U?$pair@$$CBW4ItemDefinitionIndexx@@UDefItem_t@@@std@@PAX@std@@@std@@V?$_Tree_val@U?$_Tree_simple_types@U?$pair@$$CBW4ItemDefinitionIndexx@@UDefItem_t@@@std@@@std@@@2@$00@std@@QAE@U_Zero_then_variadic_args_t@1@@Z 10040780 f i recvproxy.obj
 0001:0003f780       ??$?0$$V@?$_Compressed_pair@V?$allocator@U?$_Tree_node@V?$basic_string@DU?$char_traits@D@std@@V?$allocator@D@2@@std@@PAX@std@@@std@@V?$_Tree_val@U?$_Tree_simple_types@V?$basic_string@DU?$char_traits@D@std@@V?$allocator@D@2@@std@@@std@@@2@$00@std@@QAE@U_Zero_then_variadic_args_t@1@@Z 10040780 f i Hooks.obj
 0001:0003f7a0       ??$?0$$V@?$_Compressed_pair@V?$allocator@V?$shared_ptr@VNode@valve_parser@@@std@@@std@@V?$_Deque_val@U?$_Deque_simple_types@V?$shared_ptr@VNode@valve_parser@@@std@@@std@@@2@$00@std@@QAE@U_Zero_then_variadic_args_t@1@@Z 100407a0 f i Hooks.obj
 0001:0003f7c0       ??$?0$0A@$00$01$02$03$04$05$06$07$08$09$0L@$0M@$0N@$0O@$0P@$0BA@$0BB@$0BC@$0BD@$0BE@$0BF@$0BG@$0BH@$0BI@$0BJ@$0BK@$0BL@$0BM@$0BN@$0BO@$0BP@$0CA@$0CB@$0CC@$0CD@$0CE@$0CF@$0CG@$0CH@$0CI@$0CJ@$0CK@$0CL@$0CM@$0CN@$0CO@$0CP@@?$XorString@$0DA@$00@XorCompileTime@@QAE@PBDU?$integer_sequence@I$0A@$00$01$02$03$04$05$06$07$08$09$0L@$0M@$0N@$0O@$0P@$0BA@$0BB@$0BC@$0BD@$0BE@$0BF@$0BG@$0BH@$0BI@$0BJ@$0BK@$0BL@$0BM@$0BN@$0BO@$0BP@$0CA@$0CB@$0CC@$0CD@$0CE@$0CF@$0CG@$0CH@$0CI@$0CJ@$0CK@$0CL@$0CM@$0CN@$0CO@$0CP@@std@@@Z 100407c0 f i Hooks.obj
 0001:0003fd80       ??$?0$0A@$00$01$02$03$04$05$06$07$08$09$0L@$0M@$0N@$0O@$0P@$0BA@$0BB@$0BC@$0BD@$0BE@$0BF@$0BG@$0BH@$0BI@$0BJ@$0BK@@?$XorString@$0BL@$0BL@@XorCompileTime@@QAE@PBDU?$integer_sequence@I$0A@$00$01$02$03$04$05$06$07$08$09$0L@$0M@$0N@$0O@$0P@$0BA@$0BB@$0BC@$0BD@$0BE@$0BF@$0BG@$0BH@$0BI@$0BJ@$0BK@@std@@@Z 10040d80 f i Hooks.obj
 0001:000400d0       ??$?0$0A@$00$01$02$03$04$05$06$07$08$09$0L@$0M@$0N@$0O@$0P@$0BA@$0BB@$0BC@@?$XorString@$0BD@$0BO@@XorCompileTime@@QAE@PBDU?$integer_sequence@I$0A@$00$01$02$03$04$05$06$07$08$09$0L@$0M@$0N@$0O@$0P@$0BA@$0BB@$0BC@@std@@@Z 100410d0 f i Hooks.obj
 0001:00040330       ??$?0$0A@$00$01$02$03$04$05$06$07$08$09$0L@$0M@$0N@$0O@$0P@$0BA@$0BB@@?$XorString@$0BC@$0DA@@XorCompileTime@@QAE@PBDU?$integer_sequence@I$0A@$00$01$02$03$04$05$06$07$08$09$0L@$0M@$0N@$0O@$0P@$0BA@$0BB@@std@@@Z 10041330 f i Hooks.obj
 0001:00040570       ??$?0$0A@$00$01$02$03$04$05$06$07$08$09$0L@$0M@$0N@$0O@$0P@$0BA@$0BB@@?$XorString@$0BC@$0DC@@XorCompileTime@@QAE@PBDU?$integer_sequence@I$0A@$00$01$02$03$04$05$06$07$08$09$0L@$0M@$0N@$0O@$0P@$0BA@$0BB@@std@@@Z 10041570 f i Hooks.obj
 0001:000407b0       ??$?0$0A@$00$01$02$03$04$05$06$07$08$09$0L@$0M@$0N@$0O@$0P@$0BA@$0BB@@?$XorString@$0BC@$0FP@@XorCompileTime@@QAE@PBDU?$integer_sequence@I$0A@$00$01$02$03$04$05$06$07$08$09$0L@$0M@$0N@$0O@$0P@$0BA@$0BB@@std@@@Z 100417b0 f i Hooks.obj
 0001:000409f0       ??$?0$0A@$00$01$02$03$04$05$06$07$08$09$0L@$0M@$0N@$0O@$0P@$0BA@@?$XorString@$0BB@$0BD@@XorCompileTime@@QAE@PBDU?$integer_sequence@I$0A@$00$01$02$03$04$05$06$07$08$09$0L@$0M@$0N@$0O@$0P@$0BA@@std@@@Z 100419f0 f i Hooks.obj
 0001:00040c10       ??$?0$0A@$00$01$02$03$04$05$06$07$08$09$0L@$0M@$0N@$0O@$0P@$0BA@@?$XorString@$0BB@$0BJ@@XorCompileTime@@QAE@PBDU?$integer_sequence@I$0A@$00$01$02$03$04$05$06$07$08$09$0L@$0M@$0N@$0O@$0P@$0BA@@std@@@Z 10041c10 f i Hooks.obj
 0001:00040e30       ??$?0$0A@$00$01$02$03$04$05$06$07$08$09$0L@$0M@$0N@$0O@$0P@$0BA@@?$XorString@$0BB@$0EM@@XorCompileTime@@QAE@PBDU?$integer_sequence@I$0A@$00$01$02$03$04$05$06$07$08$09$0L@$0M@$0N@$0O@$0P@$0BA@@std@@@Z 10041e30 f i Hooks.obj
 0001:00041050       ??$?0$0A@$00$01$02$03$04$05$06$07$08$09$0L@$0M@$0N@$0O@$0P@@?$XorString@$0BA@$0CC@@XorCompileTime@@QAE@PBDU?$integer_sequence@I$0A@$00$01$02$03$04$05$06$07$08$09$0L@$0M@$0N@$0O@$0P@@std@@@Z 10042050 f i Hooks.obj
 0001:00041250       ??$?0$0A@$00$01$02$03$04$05$06$07$08$09$0L@$0M@$0N@$0O@$0P@@?$XorString@$0BA@$0DG@@XorCompileTime@@QAE@PBDU?$integer_sequence@I$0A@$00$01$02$03$04$05$06$07$08$09$0L@$0M@$0N@$0O@$0P@@std@@@Z 10042250 f i Hooks.obj
 0001:00041450       ??$?0$0A@$00$01$02$03$04$05$06$07$08$09$0L@$0M@$0N@$0O@$0P@@?$XorString@$0BA@$0ID@@XorCompileTime@@QAE@PBDU?$integer_sequence@I$0A@$00$01$02$03$04$05$06$07$08$09$0L@$0M@$0N@$0O@$0P@@std@@@Z 10042450 f i Hooks.obj
 0001:00041650       ??$?0$0A@$00$01$02$03$04$05$06$07$08$09$0L@$0M@$0N@$0O@@?$XorString@$0P@$0DD@@XorCompileTime@@QAE@PBDU?$integer_sequence@I$0A@$00$01$02$03$04$05$06$07$08$09$0L@$0M@$0N@$0O@@std@@@Z 10042650 f i Hooks.obj
 0001:00041840       ??$?0$0A@$00$01$02$03$04$05$06$07$08$09$0L@$0M@$0N@$0O@@?$XorString@$0P@$0DP@@XorCompileTime@@QAE@PBDU?$integer_sequence@I$0A@$00$01$02$03$04$05$06$07$08$09$0L@$0M@$0N@$0O@@std@@@Z 10042840 f i Hooks.obj
 0001:00041a30       ??$?0$0A@$00$01$02$03$04$05$06$07$08$09$0L@$0M@$0N@$0O@@?$XorString@$0P@$0GE@@XorCompileTime@@QAE@PBDU?$integer_sequence@I$0A@$00$01$02$03$04$05$06$07$08$09$0L@$0M@$0N@$0O@@std@@@Z 10042a30 f i Hooks.obj
 0001:00041c20       ??$?0$0A@$00$01$02$03$04$05$06$07$08$09$0L@$0M@$0N@$0O@@?$XorString@$0P@$0GL@@XorCompileTime@@QAE@PBDU?$integer_sequence@I$0A@$00$01$02$03$04$05$06$07$08$09$0L@$0M@$0N@$0O@@std@@@Z 10042c20 f i Hooks.obj
 0001:00041e10       ??$?0$0A@$00$01$02$03$04$05$06$07$08$09$0L@$0M@$0N@$0O@@?$XorString@$0P@$0IO@@XorCompileTime@@QAE@PBDU?$integer_sequence@I$0A@$00$01$02$03$04$05$06$07$08$09$0L@$0M@$0N@$0O@@std@@@Z 10042e10 f i Hooks.obj
 0001:00042000       ??$?0$0A@$00$01$02$03$04$05$06$07$08$09$0L@$0M@$0N@$0O@@?$XorString@$0P@$0JM@@XorCompileTime@@QAE@PBDU?$integer_sequence@I$0A@$00$01$02$03$04$05$06$07$08$09$0L@$0M@$0N@$0O@@std@@@Z 10043000 f i Hooks.obj
 0001:000421f0       ??$?0$0A@$00$01$02$03$04$05$06$07$08$09$0L@$0M@$0N@@?$XorString@$0O@$0DB@@XorCompileTime@@QAE@PBDU?$integer_sequence@I$0A@$00$01$02$03$04$05$06$07$08$09$0L@$0M@$0N@@std@@@Z 100431f0 f i Hooks.obj
 0001:000423c0       ??$?0$0A@$00$01$02$03$04$05$06$07$08$09$0L@$0M@$0N@@?$XorString@$0O@$0DH@@XorCompileTime@@QAE@PBDU?$integer_sequence@I$0A@$00$01$02$03$04$05$06$07$08$09$0L@$0M@$0N@@std@@@Z 100433c0 f i Hooks.obj
 0001:00042590       ??$?0$0A@$00$01$02$03$04$05$06$07$08$09$0L@$0M@$0N@@?$XorString@$0O@$0EB@@XorCompileTime@@QAE@PBDU?$integer_sequence@I$0A@$00$01$02$03$04$05$06$07$08$09$0L@$0M@$0N@@std@@@Z 10043590 f i Hooks.obj
 0001:00042760       ??$?0$0A@$00$01$02$03$04$05$06$07$08$09$0L@$0M@$0N@@?$XorString@$0O@$0HL@@XorCompileTime@@QAE@PBDU?$integer_sequence@I$0A@$00$01$02$03$04$05$06$07$08$09$0L@$0M@$0N@@std@@@Z 10043760 f i Hooks.obj
 0001:00042930       ??$?0$0A@$00$01$02$03$04$05$06$07$08$09$0L@$0M@$0N@@?$XorString@$0O@$0JN@@XorCompileTime@@QAE@PBDU?$integer_sequence@I$0A@$00$01$02$03$04$05$06$07$08$09$0L@$0M@$0N@@std@@@Z 10043930 f i Hooks.obj
 0001:00042b00       ??$?0$0A@$00$01$02$03$04$05$06$07$08$09$0L@$0M@@?$XorString@$0N@$0BA@@XorCompileTime@@QAE@PBDU?$integer_sequence@I$0A@$00$01$02$03$04$05$06$07$08$09$0L@$0M@@std@@@Z 10043b00 f i Hooks.obj
 0001:00042cb0       ??$?0$0A@$00$01$02$03$04$05$06$07$08$09$0L@$0M@@?$XorString@$0N@$0CH@@XorCompileTime@@QAE@PBDU?$integer_sequence@I$0A@$00$01$02$03$04$05$06$07$08$09$0L@$0M@@std@@@Z 10043cb0 f i Hooks.obj
 0001:00042e60       ??$?0$0A@$00$01$02$03$04$05$06$07$08$09$0L@$0M@@?$XorString@$0N@$0CN@@XorCompileTime@@QAE@PBDU?$integer_sequence@I$0A@$00$01$02$03$04$05$06$07$08$09$0L@$0M@@std@@@Z 10043e60 f i Hooks.obj
 0001:00043010       ??$?0$0A@$00$01$02$03$04$05$06$07$08$09$0L@$0M@@?$XorString@$0N@$0GF@@XorCompileTime@@QAE@PBDU?$integer_sequence@I$0A@$00$01$02$03$04$05$06$07$08$09$0L@$0M@@std@@@Z 10044010 f i Hooks.obj
 0001:000431c0       ??$?0$0A@$00$01$02$03$04$05$06$07$08$09$0L@$0M@@?$XorString@$0N@$0JA@@XorCompileTime@@QAE@PBDU?$integer_sequence@I$0A@$00$01$02$03$04$05$06$07$08$09$0L@$0M@@std@@@Z 100441c0 f i Hooks.obj
 0001:00043370       ??$?0$0A@$00$01$02$03$04$05$06$07$08$09$0L@@?$XorString@$0M@$0CJ@@XorCompileTime@@QAE@PBDU?$integer_sequence@I$0A@$00$01$02$03$04$05$06$07$08$09$0L@@std@@@Z 10044370 f i Hooks.obj
 0001:00043500       ??$?0$0A@$00$01$02$03$04$05$06$07$08$09$0L@@?$XorString@$0M@$0CL@@XorCompileTime@@QAE@PBDU?$integer_sequence@I$0A@$00$01$02$03$04$05$06$07$08$09$0L@@std@@@Z 10044500 f i Hooks.obj
 0001:00043690       ??$?0$0A@$00$01$02$03$04$05$06$07$08$09$0L@@?$XorString@$0M@$0CO@@XorCompileTime@@QAE@PBDU?$integer_sequence@I$0A@$00$01$02$03$04$05$06$07$08$09$0L@@std@@@Z 10044690 f i Hooks.obj
 0001:00043820       ??$?0$0A@$00$01$02$03$04$05$06$07$08$09$0L@@?$XorString@$0M@$0CP@@XorCompileTime@@QAE@PBDU?$integer_sequence@I$0A@$00$01$02$03$04$05$06$07$08$09$0L@@std@@@Z 10044820 f i Hooks.obj
 0001:000439b0       ??$?0$0A@$00$01$02$03$04$05$06$07$08$09$0L@@?$XorString@$0M@$0GK@@XorCompileTime@@QAE@PBDU?$integer_sequence@I$0A@$00$01$02$03$04$05$06$07$08$09$0L@@std@@@Z 100449b0 f i Hooks.obj
 0001:00043b40       ??$?0$0A@$00$01$02$03$04$05$06$07$08$09$0L@@?$XorString@$0M@$0GP@@XorCompileTime@@QAE@PBDU?$integer_sequence@I$0A@$00$01$02$03$04$05$06$07$08$09$0L@@std@@@Z 10044b40 f i Hooks.obj
 0001:00043cd0       ??$?0$0A@$00$01$02$03$04$05$06$07$08$09$0L@@?$XorString@$0M@$0HC@@XorCompileTime@@QAE@PBDU?$integer_sequence@I$0A@$00$01$02$03$04$05$06$07$08$09$0L@@std@@@Z 10044cd0 f i Hooks.obj
 0001:00043e60       ??$?0$0A@$00$01$02$03$04$05$06$07$08$09$0L@@?$XorString@$0M@$0HG@@XorCompileTime@@QAE@PBDU?$integer_sequence@I$0A@$00$01$02$03$04$05$06$07$08$09$0L@@std@@@Z 10044e60 f i Hooks.obj
 0001:00043ff0       ??$?0$0A@$00$01$02$03$04$05$06$07$08$09@?$XorString@$0L@$08@XorCompileTime@@QAE@PBDU?$integer_sequence@I$0A@$00$01$02$03$04$05$06$07$08$09@std@@@Z 10044ff0 f i Hooks.obj
 0001:00044160       ??$?0$0A@$00$01$02$03$04$05$06$07$08$09@?$XorString@$0L@$0BN@@XorCompileTime@@QAE@PBDU?$integer_sequence@I$0A@$00$01$02$03$04$05$06$07$08$09@std@@@Z 10045160 f i Hooks.obj
 0001:000442d0       ??$?0$0A@$00$01$02$03$04$05$06$07$08$09@?$XorString@$0L@$0DE@@XorCompileTime@@QAE@PBDU?$integer_sequence@I$0A@$00$01$02$03$04$05$06$07$08$09@std@@@Z 100452d0 f i Hooks.obj
 0001:00044440       ??$?0$0A@$00$01$02$03$04$05$06$07$08$09@?$XorString@$0L@$0GA@@XorCompileTime@@QAE@PBDU?$integer_sequence@I$0A@$00$01$02$03$04$05$06$07$08$09@std@@@Z 10045440 f i Hooks.obj
 0001:000445b0       ??$?0$0A@$00$01$02$03$04$05$06$07$08$09@?$XorString@$0L@$0GD@@XorCompileTime@@QAE@PBDU?$integer_sequence@I$0A@$00$01$02$03$04$05$06$07$08$09@std@@@Z 100455b0 f i Hooks.obj
 0001:00044720       ??$?0$0A@$00$01$02$03$04$05$06$07$08$09@?$XorString@$0L@$0HI@@XorCompileTime@@QAE@PBDU?$integer_sequence@I$0A@$00$01$02$03$04$05$06$07$08$09@std@@@Z 10045720 f i Hooks.obj
 0001:00044890       ??$?0$0A@$00$01$02$03$04$05$06$07$08$09@?$XorString@$0L@$0IA@@XorCompileTime@@QAE@PBDU?$integer_sequence@I$0A@$00$01$02$03$04$05$06$07$08$09@std@@@Z 10045890 f i Hooks.obj
 0001:00044a00       ??$?0$0A@$00$01$02$03$04$05$06$07$08$09@?$XorString@$0L@$0II@@XorCompileTime@@QAE@PBDU?$integer_sequence@I$0A@$00$01$02$03$04$05$06$07$08$09@std@@@Z 10045a00 f i Hooks.obj
 0001:00044b70       ??$?0$0A@$00$01$02$03$04$05$06$07$08$09@?$XorString@$0L@$0IL@@XorCompileTime@@QAE@PBDU?$integer_sequence@I$0A@$00$01$02$03$04$05$06$07$08$09@std@@@Z 10045b70 f i Hooks.obj
 0001:00044ce0       ??$?0$0A@$00$01$02$03$04$05$06$07$08$09@?$XorString@$0L@$0IN@@XorCompileTime@@QAE@PBDU?$integer_sequence@I$0A@$00$01$02$03$04$05$06$07$08$09@std@@@Z 10045ce0 f i Hooks.obj
 0001:00044e50       ??$?0$0A@$00$01$02$03$04$05$06$07$08$09@?$XorString@$0L@$0JB@@XorCompileTime@@QAE@PBDU?$integer_sequence@I$0A@$00$01$02$03$04$05$06$07$08$09@std@@@Z 10045e50 f i Hooks.obj
 0001:00044fc0       ??$?0$0A@$00$01$02$03$04$05$06$07$08$09@?$XorString@$0L@$0N@@XorCompileTime@@QAE@PBDU?$integer_sequence@I$0A@$00$01$02$03$04$05$06$07$08$09@std@@@Z 10045fc0 f i Hooks.obj
 0001:00045130       ??$?0$0A@$00$01$02$03$04$05$06$07$08@?$XorString@$09$0DN@@XorCompileTime@@QAE@PBDU?$integer_sequence@I$0A@$00$01$02$03$04$05$06$07$08@std@@@Z 10046130 f i Hooks.obj
 0001:00045130       ??$?0$0A@$00$01$02$03$04$05$06$07$08@?$XorString@$09$06@XorCompileTime@@QAE@PBDU?$integer_sequence@I$0A@$00$01$02$03$04$05$06$07$08@std@@@Z 10046130 f i Hooks.obj
 0001:00045280       ??$?0$0A@$00$01$02$03$04$05$06$07$08@?$XorString@$09$07@XorCompileTime@@QAE@PBDU?$integer_sequence@I$0A@$00$01$02$03$04$05$06$07$08@std@@@Z 10046280 f i Hooks.obj
 0001:000453d0       ??$?0$0A@$00$01$02$03$04$05$06$07$08@?$XorString@$09$0DO@@XorCompileTime@@QAE@PBDU?$integer_sequence@I$0A@$00$01$02$03$04$05$06$07$08@std@@@Z 100463d0 f i Hooks.obj
 0001:00045520       ??$?0$0A@$00$01$02$03$04$05$06$07$08@?$XorString@$09$0EF@@XorCompileTime@@QAE@PBDU?$integer_sequence@I$0A@$00$01$02$03$04$05$06$07$08@std@@@Z 10046520 f i Hooks.obj
 0001:00045670       ??$?0$0A@$00$01$02$03$04$05$06$07$08@?$XorString@$09$0EG@@XorCompileTime@@QAE@PBDU?$integer_sequence@I$0A@$00$01$02$03$04$05$06$07$08@std@@@Z 10046670 f i Hooks.obj
 0001:000457c0       ??$?0$0A@$00$01$02$03$04$05$06$07$08@?$XorString@$09$0EK@@XorCompileTime@@QAE@PBDU?$integer_sequence@I$0A@$00$01$02$03$04$05$06$07$08@std@@@Z 100467c0 f i Hooks.obj
 0001:00045910       ??$?0$0A@$00$01$02$03$04$05$06$07$08@?$XorString@$09$0EL@@XorCompileTime@@QAE@PBDU?$integer_sequence@I$0A@$00$01$02$03$04$05$06$07$08@std@@@Z 10046910 f i Hooks.obj
 0001:00045a60       ??$?0$0A@$00$01$02$03$04$05$06$07$08@?$XorString@$09$0HN@@XorCompileTime@@QAE@PBDU?$integer_sequence@I$0A@$00$01$02$03$04$05$06$07$08@std@@@Z 10046a60 f i Hooks.obj
 0001:00045bb0       ??$?0$0A@$00$01$02$03$04$05$06$07$08@?$XorString@$09$0IF@@XorCompileTime@@QAE@PBDU?$integer_sequence@I$0A@$00$01$02$03$04$05$06$07$08@std@@@Z 10046bb0 f i Hooks.obj
 0001:00045d00       ??$?0$0A@$00$01$02$03$04$05$06$07$08@?$XorString@$09$0JF@@XorCompileTime@@QAE@PBDU?$integer_sequence@I$0A@$00$01$02$03$04$05$06$07$08@std@@@Z 10046d00 f i Hooks.obj
 0001:00045e50       ??$?0$0A@$00$01$02$03$04$05$06$07$08@?$XorString@$09$0JI@@XorCompileTime@@QAE@PBDU?$integer_sequence@I$0A@$00$01$02$03$04$05$06$07$08@std@@@Z 10046e50 f i Hooks.obj
 0001:00045fa0       ??$?0$0A@$00$01$02$03$04$05$06$07$08@?$XorString@$09$0JP@@XorCompileTime@@QAE@PBDU?$integer_sequence@I$0A@$00$01$02$03$04$05$06$07$08@std@@@Z 10046fa0 f i Hooks.obj
 0001:000460f0       ??$?0$0A@$00$01$02$03$04$05$06$07$08@?$XorString@$09$0KC@@XorCompileTime@@QAE@PBDU?$integer_sequence@I$0A@$00$01$02$03$04$05$06$07$08@std@@@Z 100470f0 f i Hooks.obj
 0001:00046240       ??$?0$0A@$00$01$02$03$04$05$06$07$08@?$XorString@$09$0KD@@XorCompileTime@@QAE@PBDU?$integer_sequence@I$0A@$00$01$02$03$04$05$06$07$08@std@@@Z 10047240 f i Hooks.obj
 0001:00046390       ??$?0$0A@$00$01$02$03$04$05$06$07$08@?$XorString@$09$0O@@XorCompileTime@@QAE@PBDU?$integer_sequence@I$0A@$00$01$02$03$04$05$06$07$08@std@@@Z 10047390 f i Hooks.obj
 0001:000464e0       ??$?0$0A@$00$01$02$03$04$05$06$07@?$XorString@$08$04@XorCompileTime@@QAE@PBDU?$integer_sequence@I$0A@$00$01$02$03$04$05$06$07@std@@@Z 100474e0 f i Hooks.obj
 0001:00046610       ??$?0$0A@$00$01$02$03$04$05$06$07@?$XorString@$08$0CB@@XorCompileTime@@QAE@PBDU?$integer_sequence@I$0A@$00$01$02$03$04$05$06$07@std@@@Z 10047610 f i Hooks.obj
 0001:00046740       ??$?0$0A@$00$01$02$03$04$05$06$07@?$XorString@$08$0DL@@XorCompileTime@@QAE@PBDU?$integer_sequence@I$0A@$00$01$02$03$04$05$06$07@std@@@Z 10047740 f i Hooks.obj
 0001:00046870       ??$?0$0A@$00$01$02$03$04$05$06$07@?$XorString@$08$0ED@@XorCompileTime@@QAE@PBDU?$integer_sequence@I$0A@$00$01$02$03$04$05$06$07@std@@@Z 10047870 f i Hooks.obj
 0001:000469a0       ??$?0$0A@$00$01$02$03$04$05$06$07@?$XorString@$08$0EI@@XorCompileTime@@QAE@PBDU?$integer_sequence@I$0A@$00$01$02$03$04$05$06$07@std@@@Z 100479a0 f i Hooks.obj
 0001:00046ad0       ??$?0$0A@$00$01$02$03$04$05$06$07@?$XorString@$08$0EO@@XorCompileTime@@QAE@PBDU?$integer_sequence@I$0A@$00$01$02$03$04$05$06$07@std@@@Z 10047ad0 f i Hooks.obj
 0001:00046c00       ??$?0$0A@$00$01$02$03$04$05$06$07@?$XorString@$08$0HA@@XorCompileTime@@QAE@PBDU?$integer_sequence@I$0A@$00$01$02$03$04$05$06$07@std@@@Z 10047c00 f i Hooks.obj
 0001:00046d30       ??$?0$0A@$00$01$02$03$04$05$06$07@?$XorString@$08$0HE@@XorCompileTime@@QAE@PBDU?$integer_sequence@I$0A@$00$01$02$03$04$05$06$07@std@@@Z 10047d30 f i Hooks.obj
 0001:00046e60       ??$?0$0A@$00$01$02$03$04$05$06$07@?$XorString@$08$0HH@@XorCompileTime@@QAE@PBDU?$integer_sequence@I$0A@$00$01$02$03$04$05$06$07@std@@@Z 10047e60 f i Hooks.obj
 0001:00046f90       ??$?0$0A@$00$01$02$03$04$05$06$07@?$XorString@$08$0HP@@XorCompileTime@@QAE@PBDU?$integer_sequence@I$0A@$00$01$02$03$04$05$06$07@std@@@Z 10047f90 f i Hooks.obj
 0001:000470c0       ??$?0$0A@$00$01$02$03$04$05$06$07@?$XorString@$08$0IE@@XorCompileTime@@QAE@PBDU?$integer_sequence@I$0A@$00$01$02$03$04$05$06$07@std@@@Z 100480c0 f i Hooks.obj
 0001:000471f0       ??$?0$0A@$00$01$02$03$04$05$06$07@?$XorString@$08$0JG@@XorCompileTime@@QAE@PBDU?$integer_sequence@I$0A@$00$01$02$03$04$05$06$07@std@@@Z 100481f0 f i Hooks.obj
 0001:00047320       ??$?0$0A@$00$01$02$03$04$05$06$07@?$XorString@$08$0KE@@XorCompileTime@@QAE@PBDU?$integer_sequence@I$0A@$00$01$02$03$04$05$06$07@std@@@Z 10048320 f i Hooks.obj
 0001:00047450       ??$?0$0A@$00$01$02$03$04$05$06$07@?$XorString@$08$0M@@XorCompileTime@@QAE@PBDU?$integer_sequence@I$0A@$00$01$02$03$04$05$06$07@std@@@Z 10048450 f i Hooks.obj
 0001:00047580       ??$?0$0A@$00$01$02$03$04$05$06@?$XorString@$07$09@XorCompileTime@@QAE@PBDU?$integer_sequence@I$0A@$00$01$02$03$04$05$06@std@@@Z 10048580 f i Hooks.obj
 0001:00047690       ??$?0$0A@$00$01$02$03$04$05$06@?$XorString@$07$0A@@XorCompileTime@@QAE@PBDU?$integer_sequence@I$0A@$00$01$02$03$04$05$06@std@@@Z 10048690 f i Hooks.obj
 0001:000477a0       ??$?0$0A@$00$01$02$03$04$05$06@?$XorString@$07$0FE@@XorCompileTime@@QAE@PBDU?$integer_sequence@I$0A@$00$01$02$03$04$05$06@std@@@Z 100487a0 f i Hooks.obj
 0001:000477a0       ??$?0$0A@$00$01$02$03$04$05$06@?$XorString@$07$0BK@@XorCompileTime@@QAE@PBDU?$integer_sequence@I$0A@$00$01$02$03$04$05$06@std@@@Z 100487a0 f i Hooks.obj
 0001:000478b0       ??$?0$0A@$00$01$02$03$04$05$06@?$XorString@$07$0BP@@XorCompileTime@@QAE@PBDU?$integer_sequence@I$0A@$00$01$02$03$04$05$06@std@@@Z 100488b0 f i Hooks.obj
 0001:000479c0       ??$?0$0A@$00$01$02$03$04$05$06@?$XorString@$07$0CA@@XorCompileTime@@QAE@PBDU?$integer_sequence@I$0A@$00$01$02$03$04$05$06@std@@@Z 100489c0 f i Hooks.obj
 0001:00047ad0       ??$?0$0A@$00$01$02$03$04$05$06@?$XorString@$07$0CK@@XorCompileTime@@QAE@PBDU?$integer_sequence@I$0A@$00$01$02$03$04$05$06@std@@@Z 10048ad0 f i Hooks.obj
 0001:00047be0       ??$?0$0A@$00$01$02$03$04$05$06@?$XorString@$07$0FG@@XorCompileTime@@QAE@PBDU?$integer_sequence@I$0A@$00$01$02$03$04$05$06@std@@@Z 10048be0 f i Hooks.obj
 0001:00047cf0       ??$?0$0A@$00$01$02$03$04$05$06@?$XorString@$07$0FI@@XorCompileTime@@QAE@PBDU?$integer_sequence@I$0A@$00$01$02$03$04$05$06@std@@@Z 10048cf0 f i Hooks.obj
 0001:00047e00       ??$?0$0A@$00$01$02$03$04$05$06@?$XorString@$07$0GB@@XorCompileTime@@QAE@PBDU?$integer_sequence@I$0A@$00$01$02$03$04$05$06@std@@@Z 10048e00 f i Hooks.obj
 0001:00047f10       ??$?0$0A@$00$01$02$03$04$05$06@?$XorString@$07$0GI@@XorCompileTime@@QAE@PBDU?$integer_sequence@I$0A@$00$01$02$03$04$05$06@std@@@Z 10048f10 f i Hooks.obj
 0001:00048020       ??$?0$0A@$00$01$02$03$04$05$06@?$XorString@$07$0GJ@@XorCompileTime@@QAE@PBDU?$integer_sequence@I$0A@$00$01$02$03$04$05$06@std@@@Z 10049020 f i Hooks.obj
 0001:00048130       ??$?0$0A@$00$01$02$03$04$05$06@?$XorString@$07$0GM@@XorCompileTime@@QAE@PBDU?$integer_sequence@I$0A@$00$01$02$03$04$05$06@std@@@Z 10049130 f i Hooks.obj
 0001:00048240       ??$?0$0A@$00$01$02$03$04$05$06@?$XorString@$07$0GN@@XorCompileTime@@QAE@PBDU?$integer_sequence@I$0A@$00$01$02$03$04$05$06@std@@@Z 10049240 f i Hooks.obj
 0001:00048350       ??$?0$0A@$00$01$02$03$04$05$06@?$XorString@$07$0GO@@XorCompileTime@@QAE@PBDU?$integer_sequence@I$0A@$00$01$02$03$04$05$06@std@@@Z 10049350 f i Hooks.obj
 0001:00048460       ??$?0$0A@$00$01$02$03$04$05$06@?$XorString@$07$0IB@@XorCompileTime@@QAE@PBDU?$integer_sequence@I$0A@$00$01$02$03$04$05$06@std@@@Z 10049460 f i Hooks.obj
 0001:00048570       ??$?0$0A@$00$01$02$03$04$05$06@?$XorString@$07$0IC@@XorCompileTime@@QAE@PBDU?$integer_sequence@I$0A@$00$01$02$03$04$05$06@std@@@Z 10049570 f i Hooks.obj
 0001:00048680       ??$?0$0A@$00$01$02$03$04$05$06@?$XorString@$07$0JH@@XorCompileTime@@QAE@PBDU?$integer_sequence@I$0A@$00$01$02$03$04$05$06@std@@@Z 10049680 f i Hooks.obj
 0001:00048790       ??$?0$0A@$00$01$02$03$04$05$06@?$XorString@$07$0JJ@@XorCompileTime@@QAE@PBDU?$integer_sequence@I$0A@$00$01$02$03$04$05$06@std@@@Z 10049790 f i Hooks.obj
 0001:000488a0       ??$?0$0A@$00$01$02$03$04$05$06@?$XorString@$07$0JK@@XorCompileTime@@QAE@PBDU?$integer_sequence@I$0A@$00$01$02$03$04$05$06@std@@@Z 100498a0 f i Hooks.obj
 0001:000488a0       ??$?0$0A@$00$01$02$03$04$05$06@?$XorString@$07$0GC@@XorCompileTime@@QAE@PBDU?$integer_sequence@I$0A@$00$01$02$03$04$05$06@std@@@Z 100498a0 f i Hooks.obj
 0001:000489b0       ??$?0$0A@$00$01$02$03$04$05$06@?$XorString@$07$0L@@XorCompileTime@@QAE@PBDU?$integer_sequence@I$0A@$00$01$02$03$04$05$06@std@@@Z 100499b0 f i Hooks.obj
 0001:00048ac0       ??$?0$0A@$00$01$02$03$04$05$06@?$XorString@$07$0P@@XorCompileTime@@QAE@PBDU?$integer_sequence@I$0A@$00$01$02$03$04$05$06@std@@@Z 10049ac0 f i Hooks.obj
 0001:00048bd0       ??$?0$0A@$00$01$02$03$04$05@?$XorString@$06$03@XorCompileTime@@QAE@PBDU?$integer_sequence@I$0A@$00$01$02$03$04$05@std@@@Z 10049bd0 f i Hooks.obj
 0001:00048cd0       ??$?0$0A@$00$01$02$03$04$05@?$XorString@$06$0BC@@XorCompileTime@@QAE@PBDU?$integer_sequence@I$0A@$00$01$02$03$04$05@std@@@Z 10049cd0 f i Hooks.obj
 0001:00048dd0       ??$?0$0A@$00$01$02$03$04$05@?$XorString@$06$0BE@@XorCompileTime@@QAE@PBDU?$integer_sequence@I$0A@$00$01$02$03$04$05@std@@@Z 10049dd0 f i Hooks.obj
 0001:00048ed0       ??$?0$0A@$00$01$02$03$04$05@?$XorString@$06$0BG@@XorCompileTime@@QAE@PBDU?$integer_sequence@I$0A@$00$01$02$03$04$05@std@@@Z 10049ed0 f i Hooks.obj
 0001:00048fd0       ??$?0$0A@$00$01$02$03$04$05@?$XorString@$06$0BI@@XorCompileTime@@QAE@PBDU?$integer_sequence@I$0A@$00$01$02$03$04$05@std@@@Z 10049fd0 f i Hooks.obj
 0001:000490d0       ??$?0$0A@$00$01$02$03$04$05@?$XorString@$06$0BM@@XorCompileTime@@QAE@PBDU?$integer_sequence@I$0A@$00$01$02$03$04$05@std@@@Z 1004a0d0 f i Hooks.obj
 0001:000491d0       ??$?0$0A@$00$01$02$03$04$05@?$XorString@$06$0CD@@XorCompileTime@@QAE@PBDU?$integer_sequence@I$0A@$00$01$02$03$04$05@std@@@Z 1004a1d0 f i Hooks.obj
 0001:000492d0       ??$?0$0A@$00$01$02$03$04$05@?$XorString@$06$0CE@@XorCompileTime@@QAE@PBDU?$integer_sequence@I$0A@$00$01$02$03$04$05@std@@@Z 1004a2d0 f i Hooks.obj
 0001:000493d0       ??$?0$0A@$00$01$02$03$04$05@?$XorString@$06$0EA@@XorCompileTime@@QAE@PBDU?$integer_sequence@I$0A@$00$01$02$03$04$05@std@@@Z 1004a3d0 f i Hooks.obj
 0001:000494d0       ??$?0$0A@$00$01$02$03$04$05@?$XorString@$06$0FO@@XorCompileTime@@QAE@PBDU?$integer_sequence@I$0A@$00$01$02$03$04$05@std@@@Z 1004a4d0 f i Hooks.obj
 0001:000495d0       ??$?0$0A@$00$01$02$03$04$05@?$XorString@$06$0JC@@XorCompileTime@@QAE@PBDU?$integer_sequence@I$0A@$00$01$02$03$04$05@std@@@Z 1004a5d0 f i Hooks.obj
 0001:000496d0       ??$?0$0A@$00$01$02$03$04$05@?$XorString@$06$0JD@@XorCompileTime@@QAE@PBDU?$integer_sequence@I$0A@$00$01$02$03$04$05@std@@@Z 1004a6d0 f i Hooks.obj
 0001:000497d0       ??$?0$0A@$00$01$02$03$04$05@?$XorString@$06$0JE@@XorCompileTime@@QAE@PBDU?$integer_sequence@I$0A@$00$01$02$03$04$05@std@@@Z 1004a7d0 f i Hooks.obj
 0001:000498d0       ??$?0$0A@$00$01$02$03$04@?$XorString@$05$02@XorCompileTime@@QAE@PBDU?$integer_sequence@I$0A@$00$01$02$03$04@std@@@Z 1004a8d0 f i Hooks.obj
 0001:000498d0       ??$?0$0A@$00$01$02$03$04@?$XorString@$05$0DJ@@XorCompileTime@@QAE@PBDU?$integer_sequence@I$0A@$00$01$02$03$04@std@@@Z 1004a8d0 f i Hooks.obj
 0001:000499b0       ??$?0$0A@$00$01$02$03$04@?$XorString@$05$0BB@@XorCompileTime@@QAE@PBDU?$integer_sequence@I$0A@$00$01$02$03$04@std@@@Z 1004a9b0 f i Hooks.obj
 0001:00049a90       ??$?0$0A@$00$01$02$03$04@?$XorString@$05$0BF@@XorCompileTime@@QAE@PBDU?$integer_sequence@I$0A@$00$01$02$03$04@std@@@Z 1004aa90 f i Hooks.obj
 0001:00049b70       ??$?0$0A@$00$01$02$03$04@?$XorString@$05$0CF@@XorCompileTime@@QAE@PBDU?$integer_sequence@I$0A@$00$01$02$03$04@std@@@Z 1004ab70 f i Hooks.obj
 0001:00049c50       ??$?0$0A@$00$01$02$03$04@?$XorString@$05$0CM@@XorCompileTime@@QAE@PBDU?$integer_sequence@I$0A@$00$01$02$03$04@std@@@Z 1004ac50 f i Hooks.obj
 0001:00049d30       ??$?0$0A@$00$01$02$03$04@?$XorString@$05$0DI@@XorCompileTime@@QAE@PBDU?$integer_sequence@I$0A@$00$01$02$03$04@std@@@Z 1004ad30 f i Hooks.obj
 0001:00049e10       ??$?0$0A@$00$01$02$03$04@?$XorString@$05$0DK@@XorCompileTime@@QAE@PBDU?$integer_sequence@I$0A@$00$01$02$03$04@std@@@Z 1004ae10 f i Hooks.obj
 0001:00049ef0       ??$?0$0A@$00$01$02$03$04@?$XorString@$05$0HO@@XorCompileTime@@QAE@PBDU?$integer_sequence@I$0A@$00$01$02$03$04@std@@@Z 1004aef0 f i Hooks.obj
 0001:00049ef0       ??$?0$0A@$00$01$02$03$04@?$XorString@$05$0DM@@XorCompileTime@@QAE@PBDU?$integer_sequence@I$0A@$00$01$02$03$04@std@@@Z 1004aef0 f i Hooks.obj
 0001:00049fd0       ??$?0$0A@$00$01$02$03$04@?$XorString@$05$0EC@@XorCompileTime@@QAE@PBDU?$integer_sequence@I$0A@$00$01$02$03$04@std@@@Z 1004afd0 f i Hooks.obj
 0001:0004a0b0       ??$?0$0A@$00$01$02$03$04@?$XorString@$05$0EE@@XorCompileTime@@QAE@PBDU?$integer_sequence@I$0A@$00$01$02$03$04@std@@@Z 1004b0b0 f i Hooks.obj
 0001:0004a190       ??$?0$0A@$00$01$02$03$04@?$XorString@$05$0EH@@XorCompileTime@@QAE@PBDU?$integer_sequence@I$0A@$00$01$02$03$04@std@@@Z 1004b190 f i Hooks.obj
 0001:0004a270       ??$?0$0A@$00$01$02$03$04@?$XorString@$05$0EJ@@XorCompileTime@@QAE@PBDU?$integer_sequence@I$0A@$00$01$02$03$04@std@@@Z 1004b270 f i Hooks.obj
 0001:0004a350       ??$?0$0A@$00$01$02$03$04@?$XorString@$05$0EN@@XorCompileTime@@QAE@PBDU?$integer_sequence@I$0A@$00$01$02$03$04@std@@@Z 1004b350 f i Hooks.obj
 0001:0004a350       ??$?0$0A@$00$01$02$03$04@?$XorString@$05$0HM@@XorCompileTime@@QAE@PBDU?$integer_sequence@I$0A@$00$01$02$03$04@std@@@Z 1004b350 f i Hooks.obj
 0001:0004a430       ??$?0$0A@$00$01$02$03$04@?$XorString@$05$0EP@@XorCompileTime@@QAE@PBDU?$integer_sequence@I$0A@$00$01$02$03$04@std@@@Z 1004b430 f i Hooks.obj
 0001:0004a510       ??$?0$0A@$00$01$02$03$04@?$XorString@$05$0FA@@XorCompileTime@@QAE@PBDU?$integer_sequence@I$0A@$00$01$02$03$04@std@@@Z 1004b510 f i Hooks.obj
 0001:0004a510       ??$?0$0A@$00$01$02$03$04@?$XorString@$05$0HD@@XorCompileTime@@QAE@PBDU?$integer_sequence@I$0A@$00$01$02$03$04@std@@@Z 1004b510 f i Hooks.obj
 0001:0004a5f0       ??$?0$0A@$00$01$02$03$04@?$XorString@$05$0FD@@XorCompileTime@@QAE@PBDU?$integer_sequence@I$0A@$00$01$02$03$04@std@@@Z 1004b5f0 f i Hooks.obj
 0001:0004a6d0       ??$?0$0A@$00$01$02$03$04@?$XorString@$05$0FK@@XorCompileTime@@QAE@PBDU?$integer_sequence@I$0A@$00$01$02$03$04@std@@@Z 1004b6d0 f i Hooks.obj
 0001:0004a7b0       ??$?0$0A@$00$01$02$03$04@?$XorString@$05$0FM@@XorCompileTime@@QAE@PBDU?$integer_sequence@I$0A@$00$01$02$03$04@std@@@Z 1004b7b0 f i Hooks.obj
 0001:0004a890       ??$?0$0A@$00$01$02$03$04@?$XorString@$05$0HB@@XorCompileTime@@QAE@PBDU?$integer_sequence@I$0A@$00$01$02$03$04@std@@@Z 1004b890 f i Hooks.obj
 0001:0004a970       ??$?0$0A@$00$01$02$03$04@?$XorString@$05$0HK@@XorCompileTime@@QAE@PBDU?$integer_sequence@I$0A@$00$01$02$03$04@std@@@Z 1004b970 f i Hooks.obj
 0001:0004aa50       ??$?0$0A@$00$01$02$03$04@?$XorString@$05$0IG@@XorCompileTime@@QAE@PBDU?$integer_sequence@I$0A@$00$01$02$03$04@std@@@Z 1004ba50 f i Hooks.obj
 0001:0004ab30       ??$?0$0A@$00$01$02$03$04@?$XorString@$05$0HF@@XorCompileTime@@QAE@PBDU?$integer_sequence@I$0A@$00$01$02$03$04@std@@@Z 1004bb30 f i Hooks.obj
 0001:0004ab30       ??$?0$0A@$00$01$02$03$04@?$XorString@$05$0IH@@XorCompileTime@@QAE@PBDU?$integer_sequence@I$0A@$00$01$02$03$04@std@@@Z 1004bb30 f i Hooks.obj
 0001:0004ac10       ??$?0$0A@$00$01$02$03$04@?$XorString@$05$0IJ@@XorCompileTime@@QAE@PBDU?$integer_sequence@I$0A@$00$01$02$03$04@std@@@Z 1004bc10 f i Hooks.obj
 0001:0004acf0       ??$?0$0A@$00$01$02$03$04@?$XorString@$05$0IK@@XorCompileTime@@QAE@PBDU?$integer_sequence@I$0A@$00$01$02$03$04@std@@@Z 1004bcf0 f i Hooks.obj
 0001:0004add0       ??$?0$0A@$00$01$02$03$04@?$XorString@$05$0IP@@XorCompileTime@@QAE@PBDU?$integer_sequence@I$0A@$00$01$02$03$04@std@@@Z 1004bdd0 f i Hooks.obj
 0001:0004aeb0       ??$?0$0A@$00$01$02$03$04@?$XorString@$05$0KB@@XorCompileTime@@QAE@PBDU?$integer_sequence@I$0A@$00$01$02$03$04@std@@@Z 1004beb0 f i Hooks.obj
 0001:0004af90       ??$?0$0A@$00$01$02$03@?$XorString@$04$0CG@@XorCompileTime@@QAE@PBDU?$integer_sequence@I$0A@$00$01$02$03@std@@@Z 1004bf90 f i Hooks.obj
 0001:0004b050       ??$?0$0A@$00$01$02$03@?$XorString@$04$0FB@@XorCompileTime@@QAE@PBDU?$integer_sequence@I$0A@$00$01$02$03@std@@@Z 1004c050 f i Hooks.obj
 0001:0004b110       ??$?0$0A@$00$01$02$03@?$XorString@$04$00@XorCompileTime@@QAE@PBDU?$integer_sequence@I$0A@$00$01$02$03@std@@@Z 1004c110 f i Configuration.obj
 0001:0004b110       ??$?0$0A@$00$01$02$03@?$XorString@$04$0FC@@XorCompileTime@@QAE@PBDU?$integer_sequence@I$0A@$00$01$02$03@std@@@Z 1004c110 f i Hooks.obj
 0001:0004b1d0       ??$?0$0A@$00$01$02$03@?$XorString@$04$0FF@@XorCompileTime@@QAE@PBDU?$integer_sequence@I$0A@$00$01$02$03@std@@@Z 1004c1d0 f i Hooks.obj
 0001:0004b290       ??$?0$0A@$00$01$02$03@?$XorString@$04$0FL@@XorCompileTime@@QAE@PBDU?$integer_sequence@I$0A@$00$01$02$03@std@@@Z 1004c290 f i Hooks.obj
 0001:0004b350       ??$?0$0A@$00$01$02$03@?$XorString@$04$0FN@@XorCompileTime@@QAE@PBDU?$integer_sequence@I$0A@$00$01$02$03@std@@@Z 1004c350 f i Hooks.obj
 0001:0004b410       ??$?0$0A@$00$01$02$03@?$XorString@$04$0JL@@XorCompileTime@@QAE@PBDU?$integer_sequence@I$0A@$00$01$02$03@std@@@Z 1004c410 f i Hooks.obj
 0001:0004b410       ??$?0$0A@$00$01$02$03@?$XorString@$04$0KA@@XorCompileTime@@QAE@PBDU?$integer_sequence@I$0A@$00$01$02$03@std@@@Z 1004c410 f i Hooks.obj
 0001:0004b4d0       ??$?0$0A@$00$01$02$03@?$XorString@$04$0KG@@XorCompileTime@@QAE@PBDU?$integer_sequence@I$0A@$00$01$02$03@std@@@Z 1004c4d0 f i Hooks.obj
 0001:0004b590       ??$?0$0A@$00$01$02@?$XorString@$03$0BH@@XorCompileTime@@QAE@PBDU?$integer_sequence@I$0A@$00$01$02@std@@@Z 1004c590 f i Hooks.obj
 0001:0004b630       ??$?0$0A@$00$01$02@?$XorString@$03$0DF@@XorCompileTime@@QAE@PBDU?$integer_sequence@I$0A@$00$01$02@std@@@Z 1004c630 f i Hooks.obj
 0001:0004b6d0       ??$?0$0A@$00$01$02@?$XorString@$03$0FJ@@XorCompileTime@@QAE@PBDU?$integer_sequence@I$0A@$00$01$02@std@@@Z 1004c6d0 f i Hooks.obj
 0001:0004b770       ??$?0$0A@$00$01$02@?$XorString@$03$0GH@@XorCompileTime@@QAE@PBDU?$integer_sequence@I$0A@$00$01$02@std@@@Z 1004c770 f i Hooks.obj
 0001:0004b810       ??$?0$0A@$00$01$02@?$XorString@$03$0IM@@XorCompileTime@@QAE@PBDU?$integer_sequence@I$0A@$00$01$02@std@@@Z 1004c810 f i Hooks.obj
 0001:0004b8b0       ??$?0$0A@$00$01@?$XorString@$02$01@XorCompileTime@@QAE@PBDU?$integer_sequence@I$0A@$00$01@std@@@Z 1004c8b0 f i Hooks.obj
 0001:0004b930       ??$?0$0A@$00$01@?$XorString@$02$05@XorCompileTime@@QAE@PBDU?$integer_sequence@I$0A@$00$01@std@@@Z 1004c930 f i Hooks.obj
 0001:0004b9b0       ??$?0$0A@$00$01@?$XorString@$02$0CI@@XorCompileTime@@QAE@PBDU?$integer_sequence@I$0A@$00$01@std@@@Z 1004c9b0 f i Hooks.obj
 0001:0004ba30       ??$?0$0A@$00$01@?$XorString@$02$0FH@@XorCompileTime@@QAE@PBDU?$integer_sequence@I$0A@$00$01@std@@@Z 1004ca30 f i Hooks.obj
 0001:0004bab0       ??$?0$0A@$00$01@?$XorString@$02$0GG@@XorCompileTime@@QAE@PBDU?$integer_sequence@I$0A@$00$01@std@@@Z 1004cab0 f i Hooks.obj
 0001:0004bb30       ??$?0$0A@$00$01@?$XorString@$02$0HJ@@XorCompileTime@@QAE@PBDU?$integer_sequence@I$0A@$00$01@std@@@Z 1004cb30 f i Hooks.obj
 0001:0004bbb0       ??$?0$0A@$00$01@?$XorString@$02$0KF@@XorCompileTime@@QAE@PBDU?$integer_sequence@I$0A@$00$01@std@@@Z 1004cbb0 f i Hooks.obj
 0001:0004bc30       ??$?0$0A@@?$XorString@$00$0JO@@XorCompileTime@@QAE@PBDU?$integer_sequence@I$0A@@std@@@Z 1004cc30 f i Hooks.obj
 0001:0004bc70       ??$?0AAV?$_Tree_const_iterator@V?$_Tree_val@U?$_Tree_simple_types@V?$basic_string@DU?$char_traits@D@std@@V?$allocator@D@2@@std@@@std@@@std@@@std@@_NX$0A@@?$pair@V?$_Tree_const_iterator@V?$_Tree_val@U?$_Tree_simple_types@V?$basic_string@DU?$char_traits@D@std@@V?$allocator@D@2@@std@@@std@@@std@@@std@@_N@std@@QAE@AAV?$_Tree_const_iterator@V?$_Tree_val@U?$_Tree_simple_types@V?$basic_string@DU?$char_traits@D@std@@V?$allocator@D@2@@std@@@std@@@std@@@1@$$QA_N@Z 1004cc70 f i Hooks.obj
 0001:0004bc70       ??$?0AAV?$_List_iterator@V?$_List_val@U?$_List_simple_types@U?$pair@$$CBV?$basic_string@DU?$char_traits@D@std@@V?$allocator@D@2@@std@@V12@@std@@@std@@@std@@@std@@_NX$0A@@?$pair@V?$_List_iterator@V?$_List_val@U?$_List_simple_types@U?$pair@$$CBV?$basic_string@DU?$char_traits@D@std@@V?$allocator@D@2@@std@@V12@@std@@@std@@@std@@@std@@_N@std@@QAE@AAV?$_List_iterator@V?$_List_val@U?$_List_simple_types@U?$pair@$$CBV?$basic_string@DU?$char_traits@D@std@@V?$allocator@D@2@@std@@V12@@std@@@std@@@std@@@1@$$QA_N@Z 1004cc70 f i Hooks.obj
 0001:0004bc70       ??$?0V?$_List_iterator@V?$_List_val@U?$_List_simple_types@U?$pair@$$CBV?$basic_string@DU?$char_traits@D@std@@V?$allocator@D@2@@std@@V?$set@V?$basic_string@DU?$char_traits@D@std@@V?$allocator@D@2@@std@@U?$less@V?$basic_string@DU?$char_traits@D@std@@V?$allocator@D@2@@std@@@2@V?$allocator@V?$basic_string@DU?$char_traits@D@std@@V?$allocator@D@2@@std@@@2@@2@@std@@@std@@@std@@@std@@_NX$0A@@?$pair@V?$_List_iterator@V?$_List_val@U?$_List_simple_types@U?$pair@$$CBV?$basic_string@DU?$char_traits@D@std@@V?$allocator@D@2@@std@@V?$set@V?$basic_string@DU?$char_traits@D@std@@V?$allocator@D@2@@std@@U?$less@V?$basic_string@DU?$char_traits@D@std@@V?$allocator@D@2@@std@@@2@V?$allocator@V?$basic_string@DU?$char_traits@D@std@@V?$allocator@D@2@@std@@@2@@2@@std@@@std@@@std@@@std@@_N@std@@QAE@$$QAV?$_List_iterator@V?$_List_val@U?$_List_simple_types@U?$pair@$$CBV?$basic_string@DU?$char_traits@D@std@@V?$allocator@D@2@@std@@V?$set@V?$basic_string@DU?$char_traits@D@std@@V?$allocator@D@2@@std@@U?$less@V?$basic_string@DU?$char_traits@D@std@@V?$allocator@D@2@@std@@@2@V?$allocator@V?$basic_string@DU?$char_traits@D@std@@V?$allocator@D@2@@std@@@2@@2@@std@@@std@@@std@@@1@$$QA_N@Z 1004cc70 f i Hooks.obj
 0001:0004bc70       ??$?0V?$_Tree_const_iterator@V?$_Tree_val@U?$_Tree_simple_types@V?$basic_string@DU?$char_traits@D@std@@V?$allocator@D@2@@std@@@std@@@std@@@std@@_NX$0A@@?$pair@V?$_Tree_const_iterator@V?$_Tree_val@U?$_Tree_simple_types@V?$basic_string@DU?$char_traits@D@std@@V?$allocator@D@2@@std@@@std@@@std@@@std@@_N@std@@QAE@$$QAV?$_Tree_const_iterator@V?$_Tree_val@U?$_Tree_simple_types@V?$basic_string@DU?$char_traits@D@std@@V?$allocator@D@2@@std@@@std@@@std@@@1@$$QA_N@Z 1004cc70 f i Hooks.obj
 0001:0004bc70       ??$?0V?$_List_iterator@V?$_List_val@U?$_List_simple_types@U?$pair@$$CBV?$basic_string@DU?$char_traits@D@std@@V?$allocator@D@2@@std@@V12@@std@@@std@@@std@@@std@@_NX$0A@@?$pair@V?$_List_iterator@V?$_List_val@U?$_List_simple_types@U?$pair@$$CBV?$basic_string@DU?$char_traits@D@std@@V?$allocator@D@2@@std@@V12@@std@@@std@@@std@@@std@@_N@std@@QAE@$$QAV?$_List_iterator@V?$_List_val@U?$_List_simple_types@U?$pair@$$CBV?$basic_string@DU?$char_traits@D@std@@V?$allocator@D@2@@std@@V12@@std@@@std@@@std@@@1@$$QA_N@Z 1004cc70 f i Hooks.obj
 0001:0004bc70       ??$?0V?$_List_iterator@V?$_List_val@U?$_List_simple_types@U?$pair@$$CBV?$basic_string@DU?$char_traits@D@std@@V?$allocator@D@2@@std@@UskinInfo@@@std@@@std@@@std@@@std@@_NX$0A@@?$pair@V?$_List_iterator@V?$_List_val@U?$_List_simple_types@U?$pair@$$CBV?$basic_string@DU?$char_traits@D@std@@V?$allocator@D@2@@std@@UskinInfo@@@std@@@std@@@std@@@std@@_N@std@@QAE@$$QAV?$_List_iterator@V?$_List_val@U?$_List_simple_types@U?$pair@$$CBV?$basic_string@DU?$char_traits@D@std@@V?$allocator@D@2@@std@@UskinInfo@@@std@@@std@@@std@@@1@$$QA_N@Z 1004cc70 f i Hooks.obj
 0001:0004bc70       ??$?0V?$_Tree_iterator@V?$_Tree_val@U?$_Tree_simple_types@U?$pair@$$CBW4ItemDefinitionIndexx@@UDefItem_t@@@std@@@std@@@std@@@std@@_NX$0A@@?$pair@V?$_Tree_iterator@V?$_Tree_val@U?$_Tree_simple_types@U?$pair@$$CBW4ItemDefinitionIndexx@@UDefItem_t@@@std@@@std@@@std@@@std@@_N@std@@QAE@$$QAV?$_Tree_iterator@V?$_Tree_val@U?$_Tree_simple_types@U?$pair@$$CBW4ItemDefinitionIndexx@@UDefItem_t@@@std@@@std@@@std@@@1@$$QA_N@Z 1004cc70 f i recvproxy.obj
 0001:0004bc70       ??$?0AAV?$_List_iterator@V?$_List_val@U?$_List_simple_types@U?$pair@$$CBV?$basic_string@DU?$char_traits@D@std@@V?$allocator@D@2@@std@@UskinInfo@@@std@@@std@@@std@@@std@@_NX$0A@@?$pair@V?$_List_iterator@V?$_List_val@U?$_List_simple_types@U?$pair@$$CBV?$basic_string@DU?$char_traits@D@std@@V?$allocator@D@2@@std@@UskinInfo@@@std@@@std@@@std@@@std@@_N@std@@QAE@AAV?$_List_iterator@V?$_List_val@U?$_List_simple_types@U?$pair@$$CBV?$basic_string@DU?$char_traits@D@std@@V?$allocator@D@2@@std@@UskinInfo@@@std@@@std@@@std@@@1@$$QA_N@Z 1004cc70 f i Hooks.obj
 0001:0004bc70       ??$?0AAV?$_List_iterator@V?$_List_val@U?$_List_simple_types@U?$pair@$$CBV?$basic_string@DU?$char_traits@D@std@@V?$allocator@D@2@@std@@V?$set@V?$basic_string@DU?$char_traits@D@std@@V?$allocator@D@2@@std@@U?$less@V?$basic_string@DU?$char_traits@D@std@@V?$allocator@D@2@@std@@@2@V?$allocator@V?$basic_string@DU?$char_traits@D@std@@V?$allocator@D@2@@std@@@2@@2@@std@@@std@@@std@@@std@@_NX$0A@@?$pair@V?$_List_iterator@V?$_List_val@U?$_List_simple_types@U?$pair@$$CBV?$basic_string@DU?$char_traits@D@std@@V?$allocator@D@2@@std@@V?$set@V?$basic_string@DU?$char_traits@D@std@@V?$allocator@D@2@@std@@U?$less@V?$basic_string@DU?$char_traits@D@std@@V?$allocator@D@2@@std@@@2@V?$allocator@V?$basic_string@DU?$char_traits@D@std@@V?$allocator@D@2@@std@@@2@@2@@std@@@std@@@std@@@std@@_N@std@@QAE@AAV?$_List_iterator@V?$_List_val@U?$_List_simple_types@U?$pair@$$CBV?$basic_string@DU?$char_traits@D@std@@V?$allocator@D@2@@std@@V?$set@V?$basic_string@DU?$char_traits@D@std@@V?$allocator@D@2@@std@@U?$less@V?$basic_string@DU?$char_traits@D@std@@V?$allocator@D@2@@std@@@2@V?$allocator@V?$basic_string@DU?$char_traits@D@std@@V?$allocator@D@2@@std@@@2@@2@@std@@@std@@@std@@@1@$$QA_N@Z 1004cc70 f i Hooks.obj
 0001:0004bc70       ??$?0AAV?$_Tree_iterator@V?$_Tree_val@U?$_Tree_simple_types@U?$pair@$$CBW4ItemDefinitionIndexx@@UDefItem_t@@@std@@@std@@@std@@@std@@_NX$0A@@?$pair@V?$_Tree_iterator@V?$_Tree_val@U?$_Tree_simple_types@U?$pair@$$CBW4ItemDefinitionIndexx@@UDefItem_t@@@std@@@std@@@std@@@std@@_N@std@@QAE@AAV?$_Tree_iterator@V?$_Tree_val@U?$_Tree_simple_types@U?$pair@$$CBW4ItemDefinitionIndexx@@UDefItem_t@@@std@@@std@@@std@@@1@$$QA_N@Z 1004cc70 f i recvproxy.obj
 0001:0004bcb0       ??$?0ABV?$allocator@U?$pair@QADPAD@std@@@std@@X@?$_List_alloc@U?$_List_base_types@U?$pair@QADPAD@std@@V?$allocator@U?$pair@QADPAD@std@@@2@@std@@@std@@QAE@ABV?$allocator@U?$pair@QADPAD@std@@@1@@Z 1004ccb0 f i Hooks.obj
 0001:0004bd00       ??$?0ABV?$allocator@U?$pair@QADPAD@std@@@std@@X@?$_List_buy@U?$pair@QADPAD@std@@V?$allocator@U?$pair@QADPAD@std@@@2@@std@@QAE@ABV?$allocator@U?$pair@QADPAD@std@@@1@@Z 1004cd00 f i Hooks.obj
 0001:0004bd30       ??$?0ABV?$allocator@H@std@@X@?$_Vector_alloc@U?$_Vec_base_types@HV?$allocator@H@std@@@std@@@std@@QAE@ABV?$allocator@H@1@@Z 1004cd30 f i LegitBot.obj
 0001:0004bd30       ??$?0ABV?$allocator@V?$_List_unchecked_iterator@V?$_List_val@U?$_List_simple_types@U?$pair@$$CBV?$basic_string@DU?$char_traits@D@std@@V?$allocator@D@2@@std@@UskinInfo@@@std@@@std@@@std@@@std@@@std@@X@?$_Vector_alloc@U?$_Vec_base_types@V?$_List_unchecked_iterator@V?$_List_val@U?$_List_simple_types@U?$pair@$$CBV?$basic_string@DU?$char_traits@D@std@@V?$allocator@D@2@@std@@UskinInfo@@@std@@@std@@@std@@@std@@V?$allocator@V?$_List_unchecked_iterator@V?$_List_val@U?$_List_simple_types@U?$pair@$$CBV?$basic_string@DU?$char_traits@D@std@@V?$allocator@D@2@@std@@UskinInfo@@@std@@@std@@@std@@@std@@@2@@std@@@std@@QAE@ABV?$allocator@V?$_List_unchecked_iterator@V?$_List_val@U?$_List_simple_types@U?$pair@$$CBV?$basic_string@DU?$char_traits@D@std@@V?$allocator@D@2@@std@@UskinInfo@@@std@@@std@@@std@@@std@@@1@@Z 1004cd30 f i Configuration.obj
 0001:0004bd30       ??$?0ABV?$allocator@V?$_List_unchecked_iterator@V?$_List_val@U?$_List_simple_types@U?$pair@$$CBV?$basic_string@DU?$char_traits@D@std@@V?$allocator@D@2@@std@@V12@@std@@@std@@@std@@@std@@@std@@X@?$_Vector_alloc@U?$_Vec_base_types@V?$_List_unchecked_iterator@V?$_List_val@U?$_List_simple_types@U?$pair@$$CBV?$basic_string@DU?$char_traits@D@std@@V?$allocator@D@2@@std@@V12@@std@@@std@@@std@@@std@@V?$allocator@V?$_List_unchecked_iterator@V?$_List_val@U?$_List_simple_types@U?$pair@$$CBV?$basic_string@DU?$char_traits@D@std@@V?$allocator@D@2@@std@@V12@@std@@@std@@@std@@@std@@@2@@std@@@std@@QAE@ABV?$allocator@V?$_List_unchecked_iterator@V?$_List_val@U?$_List_simple_types@U?$pair@$$CBV?$basic_string@DU?$char_traits@D@std@@V?$allocator@D@2@@std@@V12@@std@@@std@@@std@@@std@@@1@@Z 1004cd30 f i Configuration.obj
 0001:0004bd30       ??$?0V?$allocator@V?$shared_ptr@VNode@valve_parser@@@std@@@std@@X@?$_Vector_alloc@U?$_Vec_base_types@V?$shared_ptr@VNode@valve_parser@@@std@@V?$allocator@V?$shared_ptr@VNode@valve_parser@@@std@@@2@@std@@@std@@QAE@$$QAV?$allocator@V?$shared_ptr@VNode@valve_parser@@@std@@@1@@Z 1004cd30 f i Hooks.obj
 0001:0004bd30       ??$?0ABV?$allocator@V?$_List_unchecked_iterator@V?$_List_val@U?$_List_simple_types@U?$pair@$$CBV?$basic_string@DU?$char_traits@D@std@@V?$allocator@D@2@@std@@V?$set@V?$basic_string@DU?$char_traits@D@std@@V?$allocator@D@2@@std@@U?$less@V?$basic_string@DU?$char_traits@D@std@@V?$allocator@D@2@@std@@@2@V?$allocator@V?$basic_string@DU?$char_traits@D@std@@V?$allocator@D@2@@std@@@2@@2@@std@@@std@@@std@@@std@@@std@@X@?$_Vector_alloc@U?$_Vec_base_types@V?$_List_unchecked_iterator@V?$_List_val@U?$_List_simple_types@U?$pair@$$CBV?$basic_string@DU?$char_traits@D@std@@V?$allocator@D@2@@std@@V?$set@V?$basic_string@DU?$char_traits@D@std@@V?$allocator@D@2@@std@@U?$less@V?$basic_string@DU?$char_traits@D@std@@V?$allocator@D@2@@std@@@2@V?$allocator@V?$basic_string@DU?$char_traits@D@std@@V?$allocator@D@2@@std@@@2@@2@@std@@@std@@@std@@@std@@V?$allocator@V?$_List_unchecked_iterator@V?$_List_val@U?$_List_simple_types@U?$pair@$$CBV?$basic_string@DU?$char_traits@D@std@@V?$allocator@D@2@@std@@V?$set@V?$basic_string@DU?$char_traits@D@std@@V?$allocator@D@2@@std@@U?$less@V?$basic_string@DU?$char_traits@D@std@@V?$allocator@D@2@@std@@@2@V?$allocator@V?$basic_string@DU?$char_traits@D@std@@V?$allocator@D@2@@std@@@2@@2@@std@@@std@@@std@@@std@@@2@@std@@@std@@QAE@ABV?$allocator@V?$_List_unchecked_iterator@V?$_List_val@U?$_List_simple_types@U?$pair@$$CBV?$basic_string@DU?$char_traits@D@std@@V?$allocator@D@2@@std@@V?$set@V?$basic_string@DU?$char_traits@D@std@@V?$allocator@D@2@@std@@U?$less@V?$basic_string@DU?$char_traits@D@std@@V?$allocator@D@2@@std@@@2@V?$allocator@V?$basic_string@DU?$char_traits@D@std@@V?$allocator@D@2@@std@@@2@@2@@std@@@std@@@std@@@std@@@1@@Z 1004cd30 f i Configuration.obj
 0001:0004bd30       ??$?0ABV?$allocator@V?$_List_unchecked_iterator@V?$_List_val@U?$_List_simple_types@U?$pair@QADPAD@std@@@std@@@std@@@std@@@std@@X@?$_Vector_alloc@U?$_Vec_base_types@V?$_List_unchecked_iterator@V?$_List_val@U?$_List_simple_types@U?$pair@QADPAD@std@@@std@@@std@@@std@@V?$allocator@V?$_List_unchecked_iterator@V?$_List_val@U?$_List_simple_types@U?$pair@QADPAD@std@@@std@@@std@@@std@@@2@@std@@@std@@QAE@ABV?$allocator@V?$_List_unchecked_iterator@V?$_List_val@U?$_List_simple_types@U?$pair@QADPAD@std@@@std@@@std@@@std@@@1@@Z 1004cd30 f i Hooks.obj
 0001:0004bd30       ??$?0V?$allocator@H@std@@X@?$_Vector_alloc@U?$_Vec_base_types@HV?$allocator@H@std@@@std@@@std@@QAE@$$QAV?$allocator@H@1@@Z 1004cd30 f i Utilities.obj
 0001:0004bd30       ??$?0ABV?$allocator@V?$basic_string@DU?$char_traits@D@std@@V?$allocator@D@2@@std@@@std@@X@?$_Vector_alloc@U?$_Vec_base_types@V?$basic_string@DU?$char_traits@D@std@@V?$allocator@D@2@@std@@V?$allocator@V?$basic_string@DU?$char_traits@D@std@@V?$allocator@D@2@@std@@@2@@std@@@std@@QAE@ABV?$allocator@V?$basic_string@DU?$char_traits@D@std@@V?$allocator@D@2@@std@@@1@@Z 1004cd30 f i Hooks.obj
 0001:0004bd60       ??$?0ABV?$basic_string@DU?$char_traits@D@std@@V?$allocator@D@2@@std@@$$Z$$V@?$pair@$$CBV?$basic_string@DU?$char_traits@D@std@@V?$allocator@D@2@@std@@UskinInfo@@@std@@QAE@Upiecewise_construct_t@1@V?$tuple@ABV?$basic_string@DU?$char_traits@D@std@@V?$allocator@D@2@@std@@@1@V?$tuple@$$V@1@@Z 1004cd60 f i Hooks.obj
 0001:0004bd90       ??$?0ABV?$basic_string@DU?$char_traits@D@std@@V?$allocator@D@2@@std@@$$Z$$V@?$pair@$$CBV?$basic_string@DU?$char_traits@D@std@@V?$allocator@D@2@@std@@V12@@std@@QAE@Upiecewise_construct_t@1@V?$tuple@ABV?$basic_string@DU?$char_traits@D@std@@V?$allocator@D@2@@std@@@1@V?$tuple@$$V@1@@Z 1004cd90 f i Hooks.obj
 0001:0004bdc0       ??$?0ABV?$basic_string@DU?$char_traits@D@std@@V?$allocator@D@2@@std@@$$Z$$V@?$pair@$$CBV?$basic_string@DU?$char_traits@D@std@@V?$allocator@D@2@@std@@V?$set@V?$basic_string@DU?$char_traits@D@std@@V?$allocator@D@2@@std@@U?$less@V?$basic_string@DU?$char_traits@D@std@@V?$allocator@D@2@@std@@@2@V?$allocator@V?$basic_string@DU?$char_traits@D@std@@V?$allocator@D@2@@std@@@2@@2@@std@@QAE@Upiecewise_construct_t@1@V?$tuple@ABV?$basic_string@DU?$char_traits@D@std@@V?$allocator@D@2@@std@@@1@V?$tuple@$$V@1@@Z 1004cdc0 f i Hooks.obj
 0001:0004bdf0       ??$?0ABV?$basic_string@DU?$char_traits@D@std@@V?$allocator@D@2@@std@@$0A@@?$tuple@ABV?$basic_string@DU?$char_traits@D@std@@V?$allocator@D@2@@std@@@std@@QAE@ABV?$basic_string@DU?$char_traits@D@std@@V?$allocator@D@2@@1@@Z 1004cdf0 f i Hooks.obj
 0001:0004be20       ??$?0ABV?$basic_string@DU?$char_traits@D@std@@V?$allocator@D@2@@std@@@?$_Tuple_val@ABV?$basic_string@DU?$char_traits@D@std@@V?$allocator@D@2@@std@@@std@@QAE@ABV?$basic_string@DU?$char_traits@D@std@@V?$allocator@D@2@@1@@Z 1004ce20 f i Hooks.obj
 0001:0004be50       ??$?0PAVDocument@valve_parser@@@?$_Ref_count_obj@VNode@valve_parser@@@std@@QAE@$$QAPAVDocument@valve_parser@@@Z 1004ce50 f i Hooks.obj
 0001:0004bef0       ??$?0U_Exact_args_t@std@@ABV?$basic_string@DU?$char_traits@D@std@@V?$allocator@D@2@@1@$$V$0A@@?$tuple@ABV?$basic_string@DU?$char_traits@D@std@@V?$allocator@D@2@@std@@@std@@QAE@U_Exact_args_t@1@ABV?$basic_string@DU?$char_traits@D@std@@V?$allocator@D@2@@1@@Z 1004cef0 f i Hooks.obj
 0001:0004bf30       ??$?0V?$tuple@ABV?$basic_string@DU?$char_traits@D@std@@V?$allocator@D@2@@std@@@std@@V?$tuple@$$V@1@$0A@$$Z$S@?$pair@$$CBV?$basic_string@DU?$char_traits@D@std@@V?$allocator@D@2@@std@@UskinInfo@@@std@@QAE@AAV?$tuple@ABV?$basic_string@DU?$char_traits@D@std@@V?$allocator@D@2@@std@@@1@AAV?$tuple@$$V@1@U?$integer_sequence@I$0A@@1@U?$integer_sequence@I$S@1@@Z 1004cf30 f i Hooks.obj
 0001:0004bf90       ??$?0V?$tuple@ABV?$basic_string@DU?$char_traits@D@std@@V?$allocator@D@2@@std@@@std@@V?$tuple@$$V@1@$0A@$$Z$S@?$pair@$$CBV?$basic_string@DU?$char_traits@D@std@@V?$allocator@D@2@@std@@V12@@std@@QAE@AAV?$tuple@ABV?$basic_string@DU?$char_traits@D@std@@V?$allocator@D@2@@std@@@1@AAV?$tuple@$$V@1@U?$integer_sequence@I$0A@@1@U?$integer_sequence@I$S@1@@Z 1004cf90 f i Hooks.obj
 0001:0004bfd0       ??$?0V?$tuple@ABV?$basic_string@DU?$char_traits@D@std@@V?$allocator@D@2@@std@@@std@@V?$tuple@$$V@1@$0A@$$Z$S@?$pair@$$CBV?$basic_string@DU?$char_traits@D@std@@V?$allocator@D@2@@std@@V?$set@V?$basic_string@DU?$char_traits@D@std@@V?$allocator@D@2@@std@@U?$less@V?$basic_string@DU?$char_traits@D@std@@V?$allocator@D@2@@std@@@2@V?$allocator@V?$basic_string@DU?$char_traits@D@std@@V?$allocator@D@2@@std@@@2@@2@@std@@QAE@AAV?$tuple@ABV?$basic_string@DU?$char_traits@D@std@@V?$allocator@D@2@@std@@@1@AAV?$tuple@$$V@1@U?$integer_sequence@I$0A@@1@U?$integer_sequence@I$S@1@@Z 1004cfd0 f i Hooks.obj
 0001:0004c050       ??$?8VNode@valve_parser@@@std@@YA_NABV?$shared_ptr@VNode@valve_parser@@@0@$$T@Z 1004d050 f i Hooks.obj
 0001:0004c080       ??$?9VNode@valve_parser@@@std@@YA_NABV?$shared_ptr@VNode@valve_parser@@@0@$$T@Z 1004d080 f i Hooks.obj
 0001:0004c0b0       ??$?MDU?$char_traits@D@std@@V?$allocator@D@1@@std@@YA_NABV?$basic_string@DU?$char_traits@D@std@@V?$allocator@D@2@@0@0@Z 1004d0b0 f i Hooks.obj
 0001:0004c0e0       ??$GetVirtualFunction@P6EPAVCUserCmd@CInput@@PAXHH@Z@@YAP6EPAVCUserCmd@CInput@@PAXHH@Z0K@Z 1004d0e0 f i Hooks.obj
 0001:0004c0f0       ??$_Buynode@ABUpiecewise_construct_t@std@@V?$tuple@ABV?$basic_string@DU?$char_traits@D@std@@V?$allocator@D@2@@std@@@2@V?$tuple@$$V@2@@?$_List_buy@U?$pair@$$CBV?$basic_string@DU?$char_traits@D@std@@V?$allocator@D@2@@std@@UskinInfo@@@std@@V?$allocator@U?$pair@$$CBV?$basic_string@DU?$char_traits@D@std@@V?$allocator@D@2@@std@@UskinInfo@@@std@@@2@@std@@QAEPAU?$_List_node@U?$pair@$$CBV?$basic_string@DU?$char_traits@D@std@@V?$allocator@D@2@@std@@UskinInfo@@@std@@PAX@1@PAU21@0ABUpiecewise_construct_t@1@$$QAV?$tuple@ABV?$basic_string@DU?$char_traits@D@std@@V?$allocator@D@2@@std@@@1@$$QAV?$tuple@$$V@1@@Z 1004d0f0 f i Hooks.obj
 0001:0004c1d0       ??$_Buynode@ABUpiecewise_construct_t@std@@V?$tuple@ABV?$basic_string@DU?$char_traits@D@std@@V?$allocator@D@2@@std@@@2@V?$tuple@$$V@2@@?$_List_buy@U?$pair@$$CBV?$basic_string@DU?$char_traits@D@std@@V?$allocator@D@2@@std@@V12@@std@@V?$allocator@U?$pair@$$CBV?$basic_string@DU?$char_traits@D@std@@V?$allocator@D@2@@std@@V12@@std@@@2@@std@@QAEPAU?$_List_node@U?$pair@$$CBV?$basic_string@DU?$char_traits@D@std@@V?$allocator@D@2@@std@@V12@@std@@PAX@1@PAU21@0ABUpiecewise_construct_t@1@$$QAV?$tuple@ABV?$basic_string@DU?$char_traits@D@std@@V?$allocator@D@2@@std@@@1@$$QAV?$tuple@$$V@1@@Z 1004d1d0 f i Hooks.obj
 0001:0004c2b0       ??$_Buynode@ABUpiecewise_construct_t@std@@V?$tuple@ABV?$basic_string@DU?$char_traits@D@std@@V?$allocator@D@2@@std@@@2@V?$tuple@$$V@2@@?$_List_buy@U?$pair@$$CBV?$basic_string@DU?$char_traits@D@std@@V?$allocator@D@2@@std@@V?$set@V?$basic_string@DU?$char_traits@D@std@@V?$allocator@D@2@@std@@U?$less@V?$basic_string@DU?$char_traits@D@std@@V?$allocator@D@2@@std@@@2@V?$allocator@V?$basic_string@DU?$char_traits@D@std@@V?$allocator@D@2@@std@@@2@@2@@std@@V?$allocator@U?$pair@$$CBV?$basic_string@DU?$char_traits@D@std@@V?$allocator@D@2@@std@@V?$set@V?$basic_string@DU?$char_traits@D@std@@V?$allocator@D@2@@std@@U?$less@V?$basic_string@DU?$char_traits@D@std@@V?$allocator@D@2@@std@@@2@V?$allocator@V?$basic_string@DU?$char_traits@D@std@@V?$allocator@D@2@@std@@@2@@2@@std@@@2@@std@@QAEPAU?$_List_node@U?$pair@$$CBV?$basic_string@DU?$char_traits@D@std@@V?$allocator@D@2@@std@@V?$set@V?$basic_string@DU?$char_traits@D@std@@V?$allocator@D@2@@std@@U?$less@V?$basic_string@DU?$char_traits@D@std@@V?$allocator@D@2@@std@@@2@V?$allocator@V?$basic_string@DU?$char_traits@D@std@@V?$allocator@D@2@@std@@@2@@2@@std@@PAX@1@PAU21@0ABUpiecewise_construct_t@1@$$QAV?$tuple@ABV?$basic_string@DU?$char_traits@D@std@@V?$allocator@D@2@@std@@@1@$$QAV?$tuple@$$V@1@@Z 1004d2b0 f i Hooks.obj
 0001:0004c390       ??$_Buynode@V?$basic_string@DU?$char_traits@D@std@@V?$allocator@D@2@@std@@@?$_Tree_comp_alloc@V?$_Tset_traits@V?$basic_string@DU?$char_traits@D@std@@V?$allocator@D@2@@std@@U?$less@V?$basic_string@DU?$char_traits@D@std@@V?$allocator@D@2@@std@@@2@V?$allocator@V?$basic_string@DU?$char_traits@D@std@@V?$allocator@D@2@@std@@@2@$0A@@std@@@std@@QAEPAU?$_Tree_node@V?$basic_string@DU?$char_traits@D@std@@V?$allocator@D@2@@std@@PAX@1@$$QAV?$basic_string@DU?$char_traits@D@std@@V?$allocator@D@2@@1@@Z 1004d390 f i Hooks.obj
 0001:0004c460       ??$_Buynode_if_nil@AAU?$pair@$$CBV?$basic_string@DU?$char_traits@D@std@@V?$allocator@D@2@@std@@V12@@std@@@?$_Hash@V?$_Umap_traits@V?$basic_string@DU?$char_traits@D@std@@V?$allocator@D@2@@std@@V12@V?$_Uhash_compare@V?$basic_string@DU?$char_traits@D@std@@V?$allocator@D@2@@std@@U?$hash@V?$basic_string@DU?$char_traits@D@std@@V?$allocator@D@2@@std@@@2@U?$equal_to@V?$basic_string@DU?$char_traits@D@std@@V?$allocator@D@2@@std@@@2@@2@V?$allocator@U?$pair@$$CBV?$basic_string@DU?$char_traits@D@std@@V?$allocator@D@2@@std@@V12@@std@@@2@$0A@@std@@@std@@IAE?AV?$_List_unchecked_iterator@V?$_List_val@U?$_List_simple_types@U?$pair@$$CBV?$basic_string@DU?$char_traits@D@std@@V?$allocator@D@2@@std@@V12@@std@@@std@@@std@@@1@AAU?$pair@$$CBV?$basic_string@DU?$char_traits@D@std@@V?$allocator@D@2@@std@@V12@@1@V21@@Z 1004d460 f i Hooks.obj
 0001:0004c460       ??$_Buynode_if_nil@AAU?$pair@$$CBV?$basic_string@DU?$char_traits@D@std@@V?$allocator@D@2@@std@@UskinInfo@@@std@@@?$_Hash@V?$_Umap_traits@V?$basic_string@DU?$char_traits@D@std@@V?$allocator@D@2@@std@@UskinInfo@@V?$_Uhash_compare@V?$basic_string@DU?$char_traits@D@std@@V?$allocator@D@2@@std@@U?$hash@V?$basic_string@DU?$char_traits@D@std@@V?$allocator@D@2@@std@@@2@U?$equal_to@V?$basic_string@DU?$char_traits@D@std@@V?$allocator@D@2@@std@@@2@@2@V?$allocator@U?$pair@$$CBV?$basic_string@DU?$char_traits@D@std@@V?$allocator@D@2@@std@@UskinInfo@@@std@@@2@$0A@@std@@@std@@IAE?AV?$_List_unchecked_iterator@V?$_List_val@U?$_List_simple_types@U?$pair@$$CBV?$basic_string@DU?$char_traits@D@std@@V?$allocator@D@2@@std@@UskinInfo@@@std@@@std@@@std@@@1@AAU?$pair@$$CBV?$basic_string@DU?$char_traits@D@std@@V?$allocator@D@2@@std@@UskinInfo@@@1@V21@@Z 1004d460 f i Hooks.obj
 0001:0004c460       ??$_Buynode_if_nil@AAU?$pair@$$CBV?$basic_string@DU?$char_traits@D@std@@V?$allocator@D@2@@std@@V?$set@V?$basic_string@DU?$char_traits@D@std@@V?$allocator@D@2@@std@@U?$less@V?$basic_string@DU?$char_traits@D@std@@V?$allocator@D@2@@std@@@2@V?$allocator@V?$basic_string@DU?$char_traits@D@std@@V?$allocator@D@2@@std@@@2@@2@@std@@@?$_Hash@V?$_Umap_traits@V?$basic_string@DU?$char_traits@D@std@@V?$allocator@D@2@@std@@V?$set@V?$basic_string@DU?$char_traits@D@std@@V?$allocator@D@2@@std@@U?$less@V?$basic_string@DU?$char_traits@D@std@@V?$allocator@D@2@@std@@@2@V?$allocator@V?$basic_string@DU?$char_traits@D@std@@V?$allocator@D@2@@std@@@2@@2@V?$_Uhash_compare@V?$basic_string@DU?$char_traits@D@std@@V?$allocator@D@2@@std@@U?$hash@V?$basic_string@DU?$char_traits@D@std@@V?$allocator@D@2@@std@@@2@U?$equal_to@V?$basic_string@DU?$char_traits@D@std@@V?$allocator@D@2@@std@@@2@@2@V?$allocator@U?$pair@$$CBV?$basic_string@DU?$char_traits@D@std@@V?$allocator@D@2@@std@@V?$set@V?$basic_string@DU?$char_traits@D@std@@V?$allocator@D@2@@std@@U?$less@V?$basic_string@DU?$char_traits@D@std@@V?$allocator@D@2@@std@@@2@V?$allocator@V?$basic_string@DU?$char_traits@D@std@@V?$allocator@D@2@@std@@@2@@2@@std@@@2@$0A@@std@@@std@@IAE?AV?$_List_unchecked_iterator@V?$_List_val@U?$_List_simple_types@U?$pair@$$CBV?$basic_string@DU?$char_traits@D@std@@V?$allocator@D@2@@std@@V?$set@V?$basic_string@DU?$char_traits@D@std@@V?$allocator@D@2@@std@@U?$less@V?$basic_string@DU?$char_traits@D@std@@V?$allocator@D@2@@std@@@2@V?$allocator@V?$basic_string@DU?$char_traits@D@std@@V?$allocator@D@2@@std@@@2@@2@@std@@@std@@@std@@@1@AAU?$pair@$$CBV?$basic_string@DU?$char_traits@D@std@@V?$allocator@D@2@@std@@V?$set@V?$basic_string@DU?$char_traits@D@std@@V?$allocator@D@2@@std@@U?$less@V?$basic_string@DU?$char_traits@D@std@@V?$allocator@D@2@@std@@@2@V?$allocator@V?$basic_string@DU?$char_traits@D@std@@V?$allocator@D@2@@std@@@2@@2@@1@V21@@Z 1004d460 f i Hooks.obj
 0001:0004c480       ??$_Buynode_if_nil@V?$basic_string@DU?$char_traits@D@std@@V?$allocator@D@2@@std@@@?$_Tree@V?$_Tset_traits@V?$basic_string@DU?$char_traits@D@std@@V?$allocator@D@2@@std@@U?$less@V?$basic_string@DU?$char_traits@D@std@@V?$allocator@D@2@@std@@@2@V?$allocator@V?$basic_string@DU?$char_traits@D@std@@V?$allocator@D@2@@std@@@2@$0A@@std@@@std@@IAEPAU?$_Tree_node@V?$basic_string@DU?$char_traits@D@std@@V?$allocator@D@2@@std@@PAX@1@U_Nil@1@$$QAV?$basic_string@DU?$char_traits@D@std@@V?$allocator@D@2@@1@@Z 1004d480 f i Hooks.obj
 0001:0004c4b0       ??$_Deallocate_plain@V?$allocator@U_Container_proxy@std@@@std@@$0A@@std@@YAXAAV?$allocator@U_Container_proxy@std@@@0@QAU_Container_proxy@0@@Z 1004d4b0 f i Hooks.obj
 0001:0004c4d0       ??$_Distance1@PBV?$basic_string@DU?$char_traits@D@std@@V?$allocator@D@2@@std@@@std@@YAHPBV?$basic_string@DU?$char_traits@D@std@@V?$allocator@D@2@@0@0Urandom_access_iterator_tag@0@@Z 1004d4d0 f i Hooks.obj
 0001:0004c4f0       ??$_Fill_unchecked1@PAV?$_List_unchecked_iterator@V?$_List_val@U?$_List_simple_types@U?$pair@$$CBV?$basic_string@DU?$char_traits@D@std@@V?$allocator@D@2@@std@@UskinInfo@@@std@@@std@@@std@@@std@@V12@@std@@YAXPAV?$_List_unchecked_iterator@V?$_List_val@U?$_List_simple_types@U?$pair@$$CBV?$basic_string@DU?$char_traits@D@std@@V?$allocator@D@2@@std@@UskinInfo@@@std@@@std@@@std@@@0@0ABV10@U?$integral_constant@_N$0A@@0@@Z 1004d4f0 f i Configuration.obj
 0001:0004c4f0       ??$_Fill_unchecked1@PAV?$_List_unchecked_iterator@V?$_List_val@U?$_List_simple_types@U?$pair@$$CBV?$basic_string@DU?$char_traits@D@std@@V?$allocator@D@2@@std@@V12@@std@@@std@@@std@@@std@@V12@@std@@YAXPAV?$_List_unchecked_iterator@V?$_List_val@U?$_List_simple_types@U?$pair@$$CBV?$basic_string@DU?$char_traits@D@std@@V?$allocator@D@2@@std@@V12@@std@@@std@@@std@@@0@0ABV10@U?$integral_constant@_N$0A@@0@@Z 1004d4f0 f i Configuration.obj
 0001:0004c4f0       ??$_Fill_unchecked1@PAV?$_List_unchecked_iterator@V?$_List_val@U?$_List_simple_types@U?$pair@QADPAD@std@@@std@@@std@@@std@@V12@@std@@YAXPAV?$_List_unchecked_iterator@V?$_List_val@U?$_List_simple_types@U?$pair@QADPAD@std@@@std@@@std@@@0@0ABV10@U?$integral_constant@_N$0A@@0@@Z 1004d4f0 f i Hooks.obj
 0001:0004c4f0       ??$_Fill_unchecked1@PAV?$_List_unchecked_iterator@V?$_List_val@U?$_List_simple_types@U?$pair@$$CBV?$basic_string@DU?$char_traits@D@std@@V?$allocator@D@2@@std@@V?$set@V?$basic_string@DU?$char_traits@D@std@@V?$allocator@D@2@@std@@U?$less@V?$basic_string@DU?$char_traits@D@std@@V?$allocator@D@2@@std@@@2@V?$allocator@V?$basic_string@DU?$char_traits@D@std@@V?$allocator@D@2@@std@@@2@@2@@std@@@std@@@std@@@std@@V12@@std@@YAXPAV?$_List_unchecked_iterator@V?$_List_val@U?$_List_simple_types@U?$pair@$$CBV?$basic_string@DU?$char_traits@D@std@@V?$allocator@D@2@@std@@V?$set@V?$basic_string@DU?$char_traits@D@std@@V?$allocator@D@2@@std@@U?$less@V?$basic_string@DU?$char_traits@D@std@@V?$allocator@D@2@@std@@@2@V?$allocator@V?$basic_string@DU?$char_traits@D@std@@V?$allocator@D@2@@std@@@2@@2@@std@@@std@@@std@@@0@0ABV10@U?$integral_constant@_N$0A@@0@@Z 1004d4f0 f i Configuration.obj
 0001:0004c520       ??$_Fill_unchecked@PAV?$_List_unchecked_iterator@V?$_List_val@U?$_List_simple_types@U?$pair@$$CBV?$basic_string@DU?$char_traits@D@std@@V?$allocator@D@2@@std@@V12@@std@@@std@@@std@@@std@@V12@@std@@YAXPAV?$_List_unchecked_iterator@V?$_List_val@U?$_List_simple_types@U?$pair@$$CBV?$basic_string@DU?$char_traits@D@std@@V?$allocator@D@2@@std@@V12@@std@@@std@@@std@@@0@0ABV10@@Z 1004d520 f i Configuration.obj
 0001:0004c520       ??$_Fill_unchecked@PAV?$_List_unchecked_iterator@V?$_List_val@U?$_List_simple_types@U?$pair@$$CBV?$basic_string@DU?$char_traits@D@std@@V?$allocator@D@2@@std@@UskinInfo@@@std@@@std@@@std@@@std@@V12@@std@@YAXPAV?$_List_unchecked_iterator@V?$_List_val@U?$_List_simple_types@U?$pair@$$CBV?$basic_string@DU?$char_traits@D@std@@V?$allocator@D@2@@std@@UskinInfo@@@std@@@std@@@std@@@0@0ABV10@@Z 1004d520 f i Configuration.obj
 0001:0004c520       ??$_Fill_unchecked@PAV?$_List_unchecked_iterator@V?$_List_val@U?$_List_simple_types@U?$pair@$$CBV?$basic_string@DU?$char_traits@D@std@@V?$allocator@D@2@@std@@V?$set@V?$basic_string@DU?$char_traits@D@std@@V?$allocator@D@2@@std@@U?$less@V?$basic_string@DU?$char_traits@D@std@@V?$allocator@D@2@@std@@@2@V?$allocator@V?$basic_string@DU?$char_traits@D@std@@V?$allocator@D@2@@std@@@2@@2@@std@@@std@@@std@@@std@@V12@@std@@YAXPAV?$_List_unchecked_iterator@V?$_List_val@U?$_List_simple_types@U?$pair@$$CBV?$basic_string@DU?$char_traits@D@std@@V?$allocator@D@2@@std@@V?$set@V?$basic_string@DU?$char_traits@D@std@@V?$allocator@D@2@@std@@U?$less@V?$basic_string@DU?$char_traits@D@std@@V?$allocator@D@2@@std@@@2@V?$allocator@V?$basic_string@DU?$char_traits@D@std@@V?$allocator@D@2@@std@@@2@@2@@std@@@std@@@std@@@0@0ABV10@@Z 1004d520 f i Configuration.obj
 0001:0004c520       ??$_Fill_unchecked@PAV?$_List_unchecked_iterator@V?$_List_val@U?$_List_simple_types@U?$pair@QADPAD@std@@@std@@@std@@@std@@V12@@std@@YAXPAV?$_List_unchecked_iterator@V?$_List_val@U?$_List_simple_types@U?$pair@QADPAD@std@@@std@@@std@@@0@0ABV10@@Z 1004d520 f i Hooks.obj
 0001:0004c560       ??$_Hash_array_representation@D@std@@YAIQBDI@Z 1004d560 f i Hooks.obj
 0001:0004c580       ??$_Insert@AAU?$pair@$$CBV?$basic_string@DU?$char_traits@D@std@@V?$allocator@D@2@@std@@UskinInfo@@@std@@V?$_List_unchecked_iterator@V?$_List_val@U?$_List_simple_types@U?$pair@$$CBV?$basic_string@DU?$char_traits@D@std@@V?$allocator@D@2@@std@@UskinInfo@@@std@@@std@@@std@@@2@@?$_Hash@V?$_Umap_traits@V?$basic_string@DU?$char_traits@D@std@@V?$allocator@D@2@@std@@UskinInfo@@V?$_Uhash_compare@V?$basic_string@DU?$char_traits@D@std@@V?$allocator@D@2@@std@@U?$hash@V?$basic_string@DU?$char_traits@D@std@@V?$allocator@D@2@@std@@@2@U?$equal_to@V?$basic_string@DU?$char_traits@D@std@@V?$allocator@D@2@@std@@@2@@2@V?$allocator@U?$pair@$$CBV?$basic_string@DU?$char_traits@D@std@@V?$allocator@D@2@@std@@UskinInfo@@@std@@@2@$0A@@std@@@std@@IAE?AU?$pair@V?$_List_iterator@V?$_List_val@U?$_List_simple_types@U?$pair@$$CBV?$basic_string@DU?$char_traits@D@std@@V?$allocator@D@2@@std@@UskinInfo@@@std@@@std@@@std@@@std@@_N@1@AAU?$pair@$$CBV?$basic_string@DU?$char_traits@D@std@@V?$allocator@D@2@@std@@UskinInfo@@@1@V?$_List_unchecked_iterator@V?$_List_val@U?$_List_simple_types@U?$pair@$$CBV?$basic_string@DU?$char_traits@D@std@@V?$allocator@D@2@@std@@UskinInfo@@@std@@@std@@@std@@@1@@Z 1004d580 f i Hooks.obj
 0001:0004c810       ??$_Insert@AAU?$pair@$$CBV?$basic_string@DU?$char_traits@D@std@@V?$allocator@D@2@@std@@V12@@std@@V?$_List_unchecked_iterator@V?$_List_val@U?$_List_simple_types@U?$pair@$$CBV?$basic_string@DU?$char_traits@D@std@@V?$allocator@D@2@@std@@V12@@std@@@std@@@std@@@2@@?$_Hash@V?$_Umap_traits@V?$basic_string@DU?$char_traits@D@std@@V?$allocator@D@2@@std@@V12@V?$_Uhash_compare@V?$basic_string@DU?$char_traits@D@std@@V?$allocator@D@2@@std@@U?$hash@V?$basic_string@DU?$char_traits@D@std@@V?$allocator@D@2@@std@@@2@U?$equal_to@V?$basic_string@DU?$char_traits@D@std@@V?$allocator@D@2@@std@@@2@@2@V?$allocator@U?$pair@$$CBV?$basic_string@DU?$char_traits@D@std@@V?$allocator@D@2@@std@@V12@@std@@@2@$0A@@std@@@std@@IAE?AU?$pair@V?$_List_iterator@V?$_List_val@U?$_List_simple_types@U?$pair@$$CBV?$basic_string@DU?$char_traits@D@std@@V?$allocator@D@2@@std@@V12@@std@@@std@@@std@@@std@@_N@1@AAU?$pair@$$CBV?$basic_string@DU?$char_traits@D@std@@V?$allocator@D@2@@std@@V12@@1@V?$_List_unchecked_iterator@V?$_List_val@U?$_List_simple_types@U?$pair@$$CBV?$basic_string@DU?$char_traits@D@std@@V?$allocator@D@2@@std@@V12@@std@@@std@@@std@@@1@@Z 1004d810 f i Hooks.obj
 0001:0004caa0       ??$_Insert@AAU?$pair@$$CBV?$basic_string@DU?$char_traits@D@std@@V?$allocator@D@2@@std@@V?$set@V?$basic_string@DU?$char_traits@D@std@@V?$allocator@D@2@@std@@U?$less@V?$basic_string@DU?$char_traits@D@std@@V?$allocator@D@2@@std@@@2@V?$allocator@V?$basic_string@DU?$char_traits@D@std@@V?$allocator@D@2@@std@@@2@@2@@std@@V?$_List_unchecked_iterator@V?$_List_val@U?$_List_simple_types@U?$pair@$$CBV?$basic_string@DU?$char_traits@D@std@@V?$allocator@D@2@@std@@V?$set@V?$basic_string@DU?$char_traits@D@std@@V?$allocator@D@2@@std@@U?$less@V?$basic_string@DU?$char_traits@D@std@@V?$allocator@D@2@@std@@@2@V?$allocator@V?$basic_string@DU?$char_traits@D@std@@V?$allocator@D@2@@std@@@2@@2@@std@@@std@@@std@@@2@@?$_Hash@V?$_Umap_traits@V?$basic_string@DU?$char_traits@D@std@@V?$allocator@D@2@@std@@V?$set@V?$basic_string@DU?$char_traits@D@std@@V?$allocator@D@2@@std@@U?$less@V?$basic_string@DU?$char_traits@D@std@@V?$allocator@D@2@@std@@@2@V?$allocator@V?$basic_string@DU?$char_traits@D@std@@V?$allocator@D@2@@std@@@2@@2@V?$_Uhash_compare@V?$basic_string@DU?$char_traits@D@std@@V?$allocator@D@2@@std@@U?$hash@V?$basic_string@DU?$char_traits@D@std@@V?$allocator@D@2@@std@@@2@U?$equal_to@V?$basic_string@DU?$char_traits@D@std@@V?$allocator@D@2@@std@@@2@@2@V?$allocator@U?$pair@$$CBV?$basic_string@DU?$char_traits@D@std@@V?$allocator@D@2@@std@@V?$set@V?$basic_string@DU?$char_traits@D@std@@V?$allocator@D@2@@std@@U?$less@V?$basic_string@DU?$char_traits@D@std@@V?$allocator@D@2@@std@@@2@V?$allocator@V?$basic_string@DU?$char_traits@D@std@@V?$allocator@D@2@@std@@@2@@2@@std@@@2@$0A@@std@@@std@@IAE?AU?$pair@V?$_List_iterator@V?$_List_val@U?$_List_simple_types@U?$pair@$$CBV?$basic_string@DU?$char_traits@D@std@@V?$allocator@D@2@@std@@V?$set@V?$basic_string@DU?$char_traits@D@std@@V?$allocator@D@2@@std@@U?$less@V?$basic_string@DU?$char_traits@D@std@@V?$allocator@D@2@@std@@@2@V?$allocator@V?$basic_string@DU?$char_traits@D@std@@V?$allocator@D@2@@std@@@2@@2@@std@@@std@@@std@@@std@@_N@1@AAU?$pair@$$CBV?$basic_string@DU?$char_traits@D@std@@V?$allocator@D@2@@std@@V?$set@V?$basic_string@DU?$char_traits@D@std@@V?$allocator@D@2@@std@@U?$less@V?$basic_string@DU?$char_traits@D@std@@V?$allocator@D@2@@std@@@2@V?$allocator@V?$basic_string@DU?$char_traits@D@std@@V?$allocator@D@2@@std@@@2@@2@@1@V?$_List_unchecked_iterator@V?$_List_val@U?$_List_simple_types@U?$pair@$$CBV?$basic_string@DU?$char_traits@D@std@@V?$allocator@D@2@@std@@V?$set@V?$basic_string@DU?$char_traits@D@std@@V?$allocator@D@2@@std@@U?$less@V?$basic_string@DU?$char_traits@D@std@@V?$allocator@D@2@@std@@@2@V?$allocator@V?$basic_string@DU?$char_traits@D@std@@V?$allocator@D@2@@std@@@2@@2@@std@@@std@@@std@@@1@@Z 1004daa0 f i Hooks.obj
 0001:0004cd30       ??$_Insert@ABUpiecewise_construct_t@std@@V?$tuple@ABV?$basic_string@DU?$char_traits@D@std@@V?$allocator@D@2@@std@@@2@V?$tuple@$$V@2@@?$list@U?$pair@$$CBV?$basic_string@DU?$char_traits@D@std@@V?$allocator@D@2@@std@@UskinInfo@@@std@@V?$allocator@U?$pair@$$CBV?$basic_string@DU?$char_traits@D@std@@V?$allocator@D@2@@std@@UskinInfo@@@std@@@2@@std@@QAEXV?$_List_unchecked_const_iterator@V?$_List_val@U?$_List_simple_types@U?$pair@$$CBV?$basic_string@DU?$char_traits@D@std@@V?$allocator@D@2@@std@@UskinInfo@@@std@@@std@@@std@@U_Iterator_base0@2@@1@ABUpiecewise_construct_t@1@$$QAV?$tuple@ABV?$basic_string@DU?$char_traits@D@std@@V?$allocator@D@2@@std@@@1@$$QAV?$tuple@$$V@1@@Z 1004dd30 f i Hooks.obj
 0001:0004cdb0       ??$_Insert@ABUpiecewise_construct_t@std@@V?$tuple@ABV?$basic_string@DU?$char_traits@D@std@@V?$allocator@D@2@@std@@@2@V?$tuple@$$V@2@@?$list@U?$pair@$$CBV?$basic_string@DU?$char_traits@D@std@@V?$allocator@D@2@@std@@V12@@std@@V?$allocator@U?$pair@$$CBV?$basic_string@DU?$char_traits@D@std@@V?$allocator@D@2@@std@@V12@@std@@@2@@std@@QAEXV?$_List_unchecked_const_iterator@V?$_List_val@U?$_List_simple_types@U?$pair@$$CBV?$basic_string@DU?$char_traits@D@std@@V?$allocator@D@2@@std@@V12@@std@@@std@@@std@@U_Iterator_base0@2@@1@ABUpiecewise_construct_t@1@$$QAV?$tuple@ABV?$basic_string@DU?$char_traits@D@std@@V?$allocator@D@2@@std@@@1@$$QAV?$tuple@$$V@1@@Z 1004ddb0 f i Hooks.obj
 0001:0004ce30       ??$_Insert@ABUpiecewise_construct_t@std@@V?$tuple@ABV?$basic_string@DU?$char_traits@D@std@@V?$allocator@D@2@@std@@@2@V?$tuple@$$V@2@@?$list@U?$pair@$$CBV?$basic_string@DU?$char_traits@D@std@@V?$allocator@D@2@@std@@V?$set@V?$basic_string@DU?$char_traits@D@std@@V?$allocator@D@2@@std@@U?$less@V?$basic_string@DU?$char_traits@D@std@@V?$allocator@D@2@@std@@@2@V?$allocator@V?$basic_string@DU?$char_traits@D@std@@V?$allocator@D@2@@std@@@2@@2@@std@@V?$allocator@U?$pair@$$CBV?$basic_string@DU?$char_traits@D@std@@V?$allocator@D@2@@std@@V?$set@V?$basic_string@DU?$char_traits@D@std@@V?$allocator@D@2@@std@@U?$less@V?$basic_string@DU?$char_traits@D@std@@V?$allocator@D@2@@std@@@2@V?$allocator@V?$basic_string@DU?$char_traits@D@std@@V?$allocator@D@2@@std@@@2@@2@@std@@@2@@std@@QAEXV?$_List_unchecked_const_iterator@V?$_List_val@U?$_List_simple_types@U?$pair@$$CBV?$basic_string@DU?$char_traits@D@std@@V?$allocator@D@2@@std@@V?$set@V?$basic_string@DU?$char_traits@D@std@@V?$allocator@D@2@@std@@U?$less@V?$basic_string@DU?$char_traits@D@std@@V?$allocator@D@2@@std@@@2@V?$allocator@V?$basic_string@DU?$char_traits@D@std@@V?$allocator@D@2@@std@@@2@@2@@std@@@std@@@std@@U_Iterator_base0@2@@1@ABUpiecewise_construct_t@1@$$QAV?$tuple@ABV?$basic_string@DU?$char_traits@D@std@@V?$allocator@D@2@@std@@@1@$$QAV?$tuple@$$V@1@@Z 1004de30 f i Hooks.obj
 0001:0004ceb0       ??$_Insert_at@V?$basic_string@DU?$char_traits@D@std@@V?$allocator@D@2@@std@@U_Nil@2@@?$_Tree@V?$_Tset_traits@V?$basic_string@DU?$char_traits@D@std@@V?$allocator@D@2@@std@@U?$less@V?$basic_string@DU?$char_traits@D@std@@V?$allocator@D@2@@std@@@2@V?$allocator@V?$basic_string@DU?$char_traits@D@std@@V?$allocator@D@2@@std@@@2@$0A@@std@@@std@@IAE?AV?$_Tree_const_iterator@V?$_Tree_val@U?$_Tree_simple_types@V?$basic_string@DU?$char_traits@D@std@@V?$allocator@D@2@@std@@@std@@@std@@@1@_NPAU?$_Tree_node@V?$basic_string@DU?$char_traits@D@std@@V?$allocator@D@2@@std@@PAX@1@$$QAV?$basic_string@DU?$char_traits@D@std@@V?$allocator@D@2@@1@U_Nil@1@@Z 1004deb0 f i Hooks.obj
 0001:0004d150       ??$_Insert_nohint@V?$basic_string@DU?$char_traits@D@std@@V?$allocator@D@2@@std@@U_Nil@2@@?$_Tree@V?$_Tset_traits@V?$basic_string@DU?$char_traits@D@std@@V?$allocator@D@2@@std@@U?$less@V?$basic_string@DU?$char_traits@D@std@@V?$allocator@D@2@@std@@@2@V?$allocator@V?$basic_string@DU?$char_traits@D@std@@V?$allocator@D@2@@std@@@2@$0A@@std@@@std@@IAE?AU?$pair@V?$_Tree_const_iterator@V?$_Tree_val@U?$_Tree_simple_types@V?$basic_string@DU?$char_traits@D@std@@V?$allocator@D@2@@std@@@std@@@std@@@std@@_N@1@_N$$QAV?$basic_string@DU?$char_traits@D@std@@V?$allocator@D@2@@1@U_Nil@1@@Z 1004e150 f i Hooks.obj
 0001:0004d460       ??$_Lbound@W4ItemDefinitionIndexx@@@?$_Tree@V?$_Tmap_traits@W4ItemDefinitionIndexx@@UDefItem_t@@U?$less@W4ItemDefinitionIndexx@@@std@@V?$allocator@U?$pair@$$CBW4ItemDefinitionIndexx@@UDefItem_t@@@std@@@4@$0A@@std@@@std@@IBEPAU?$_Tree_node@U?$pair@$$CBW4ItemDefinitionIndexx@@UDefItem_t@@@std@@PAX@1@ABW4ItemDefinitionIndexx@@@Z 1004e460 f i Hooks.obj
 0001:0004d4e0       ??$_Range_construct_or_tidy@PBV?$basic_string@DU?$char_traits@D@std@@V?$allocator@D@2@@std@@@?$vector@V?$basic_string@DU?$char_traits@D@std@@V?$allocator@D@2@@std@@V?$allocator@V?$basic_string@DU?$char_traits@D@std@@V?$allocator@D@2@@std@@@2@@std@@AAEXPBV?$basic_string@DU?$char_traits@D@std@@V?$allocator@D@2@@1@0Uforward_iterator_tag@1@@Z 1004e4e0 f i Hooks.obj
 0001:0004d5b0       ??$_Traits_compare@U?$char_traits@D@std@@@std@@YAHQBDI0I@Z 1004e5b0 f i Hooks.obj
 0001:0004d610       ??$_Traits_find@U?$char_traits@D@std@@@std@@YAIQBDII0I@Z 1004e610 f i Hooks.obj
 0001:0004d6b0       ??$_Traits_rfind_ch@U?$char_traits@D@std@@@std@@YAIQBDIID@Z 1004e6b0 f i Hooks.obj
 0001:0004d720       ??$_Transform_no_deprecate@V?$_String_iterator@V?$_String_val@U?$_Simple_types@D@std@@@std@@@std@@V12@P6AGG@Z@std@@YA?AV?$_String_iterator@V?$_String_val@U?$_Simple_types@D@std@@@std@@@0@V10@00AAP6AGG@Z@Z 1004e720 f i Hooks.obj
 0001:0004d7d0       ??$_Transform_no_deprecate@V?$_String_iterator@V?$_String_val@U?$_Simple_types@D@std@@@std@@@std@@V12@P6AHH@Z@std@@YA?AV?$_String_iterator@V?$_String_val@U?$_Simple_types@D@std@@@std@@@0@V10@00AAP6AHH@Z@Z 1004e7d0 f i Hooks.obj
 0001:0004d870       ??$_Try_emplace@ABV?$basic_string@DU?$char_traits@D@std@@V?$allocator@D@2@@std@@$$V@?$unordered_map@V?$basic_string@DU?$char_traits@D@std@@V?$allocator@D@2@@std@@UskinInfo@@U?$hash@V?$basic_string@DU?$char_traits@D@std@@V?$allocator@D@2@@std@@@2@U?$equal_to@V?$basic_string@DU?$char_traits@D@std@@V?$allocator@D@2@@std@@@2@V?$allocator@U?$pair@$$CBV?$basic_string@DU?$char_traits@D@std@@V?$allocator@D@2@@std@@UskinInfo@@@std@@@2@@std@@QAE?AU?$pair@V?$_List_iterator@V?$_List_val@U?$_List_simple_types@U?$pair@$$CBV?$basic_string@DU?$char_traits@D@std@@V?$allocator@D@2@@std@@UskinInfo@@@std@@@std@@@std@@@std@@_N@1@ABV?$basic_string@DU?$char_traits@D@std@@V?$allocator@D@2@@1@@Z 1004e870 f i Hooks.obj
